
rv64ui-p-ori:     file format elf64-littleriscv


Disassembly of section .text.init:

0000000090000000 <_start>:
    90000000:	0480006f          	j	90000048 <reset_vector>

0000000090000004 <trap_vector>:
    90000004:	34202f73          	csrr	t5,mcause
    90000008:	00800f93          	li	t6,8
    9000000c:	03ff0863          	beq	t5,t6,9000003c <write_tohost>
    90000010:	00900f93          	li	t6,9
    90000014:	03ff0463          	beq	t5,t6,9000003c <write_tohost>
    90000018:	00b00f93          	li	t6,11
    9000001c:	03ff0063          	beq	t5,t6,9000003c <write_tohost>
    90000020:	00000f13          	li	t5,0
    90000024:	000f0463          	beqz	t5,9000002c <trap_vector+0x28>
    90000028:	000f0067          	jr	t5
    9000002c:	34202f73          	csrr	t5,mcause
    90000030:	000f5463          	bgez	t5,90000038 <handle_exception>
    90000034:	0040006f          	j	90000038 <handle_exception>

0000000090000038 <handle_exception>:
    90000038:	5391e193          	ori	gp,gp,1337

000000009000003c <write_tohost>:
    9000003c:	00001f17          	auipc	t5,0x1
    90000040:	fc3f2223          	sw	gp,-60(t5) # 90001000 <tohost>
    90000044:	ff9ff06f          	j	9000003c <write_tohost>

0000000090000048 <reset_vector>:
    90000048:	00000093          	li	ra,0
    9000004c:	00000113          	li	sp,0
    90000050:	00000193          	li	gp,0
    90000054:	00000213          	li	tp,0
    90000058:	00000293          	li	t0,0
    9000005c:	00000313          	li	t1,0
    90000060:	00000393          	li	t2,0
    90000064:	00000413          	li	s0,0
    90000068:	00000493          	li	s1,0
    9000006c:	00000513          	li	a0,0
    90000070:	00000593          	li	a1,0
    90000074:	00000613          	li	a2,0
    90000078:	00000693          	li	a3,0
    9000007c:	00000713          	li	a4,0
    90000080:	00000793          	li	a5,0
    90000084:	00000813          	li	a6,0
    90000088:	00000893          	li	a7,0
    9000008c:	00000913          	li	s2,0
    90000090:	00000993          	li	s3,0
    90000094:	00000a13          	li	s4,0
    90000098:	00000a93          	li	s5,0
    9000009c:	00000b13          	li	s6,0
    900000a0:	00000b93          	li	s7,0
    900000a4:	00000c13          	li	s8,0
    900000a8:	00000c93          	li	s9,0
    900000ac:	00000d13          	li	s10,0
    900000b0:	00000d93          	li	s11,0
    900000b4:	00000e13          	li	t3,0
    900000b8:	00000e93          	li	t4,0
    900000bc:	00000f13          	li	t5,0
    900000c0:	00000f93          	li	t6,0
    900000c4:	f1402573          	csrr	a0,mhartid
    900000c8:	00051063          	bnez	a0,900000c8 <reset_vector+0x80>
    900000cc:	00000297          	auipc	t0,0x0
    900000d0:	01028293          	addi	t0,t0,16 # 900000dc <reset_vector+0x94>
    900000d4:	30529073          	csrw	mtvec,t0
    900000d8:	18005073          	csrwi	satp,0
    900000dc:	00000297          	auipc	t0,0x0
    900000e0:	02428293          	addi	t0,t0,36 # 90000100 <reset_vector+0xb8>
    900000e4:	30529073          	csrw	mtvec,t0
    900000e8:	0010029b          	addiw	t0,zero,1
    900000ec:	03529293          	slli	t0,t0,0x35
    900000f0:	fff28293          	addi	t0,t0,-1
    900000f4:	3b029073          	csrw	pmpaddr0,t0
    900000f8:	01f00293          	li	t0,31
    900000fc:	3a029073          	csrw	pmpcfg0,t0
    90000100:	30405073          	csrwi	mie,0
    90000104:	00000297          	auipc	t0,0x0
    90000108:	01428293          	addi	t0,t0,20 # 90000118 <reset_vector+0xd0>
    9000010c:	30529073          	csrw	mtvec,t0
    90000110:	30205073          	csrwi	medeleg,0
    90000114:	30305073          	csrwi	mideleg,0
    90000118:	00000193          	li	gp,0
    9000011c:	00000297          	auipc	t0,0x0
    90000120:	ee828293          	addi	t0,t0,-280 # 90000004 <trap_vector>
    90000124:	30529073          	csrw	mtvec,t0
    90000128:	00100513          	li	a0,1
    9000012c:	01f51513          	slli	a0,a0,0x1f
    90000130:	00055c63          	bgez	a0,90000148 <reset_vector+0x100>
    90000134:	0ff0000f          	fence
    90000138:	00100193          	li	gp,1
    9000013c:	05d00893          	li	a7,93
    90000140:	00000513          	li	a0,0
    90000144:	00000073          	ecall
    90000148:	00000293          	li	t0,0
    9000014c:	00028a63          	beqz	t0,90000160 <reset_vector+0x118>
    90000150:	10529073          	csrw	stvec,t0
    90000154:	0000b2b7          	lui	t0,0xb
    90000158:	1092829b          	addiw	t0,t0,265
    9000015c:	30229073          	csrw	medeleg,t0
    90000160:	30005073          	csrwi	mstatus,0
    90000164:	00000297          	auipc	t0,0x0
    90000168:	01428293          	addi	t0,t0,20 # 90000178 <test_2>
    9000016c:	34129073          	csrw	mepc,t0
    90000170:	f1402573          	csrr	a0,mhartid
    90000174:	30200073          	mret

0000000090000178 <test_2>:
    90000178:	ff0100b7          	lui	ra,0xff010
    9000017c:	f000809b          	addiw	ra,ra,-256
    90000180:	f0f0e713          	ori	a4,ra,-241
    90000184:	f0f00393          	li	t2,-241
    90000188:	00200193          	li	gp,2
    9000018c:	1c771c63          	bne	a4,t2,90000364 <fail>

0000000090000190 <test_3>:
    90000190:	0ff010b7          	lui	ra,0xff01
    90000194:	ff00809b          	addiw	ra,ra,-16
    90000198:	0f00e713          	ori	a4,ra,240
    9000019c:	0ff013b7          	lui	t2,0xff01
    900001a0:	ff03839b          	addiw	t2,t2,-16
    900001a4:	00300193          	li	gp,3
    900001a8:	1a771e63          	bne	a4,t2,90000364 <fail>

00000000900001ac <test_4>:
    900001ac:	00ff00b7          	lui	ra,0xff0
    900001b0:	0ff0809b          	addiw	ra,ra,255
    900001b4:	70f0e713          	ori	a4,ra,1807
    900001b8:	00ff03b7          	lui	t2,0xff0
    900001bc:	7ff3839b          	addiw	t2,t2,2047
    900001c0:	00400193          	li	gp,4
    900001c4:	1a771063          	bne	a4,t2,90000364 <fail>

00000000900001c8 <test_5>:
    900001c8:	f00ff0b7          	lui	ra,0xf00ff
    900001cc:	00f0809b          	addiw	ra,ra,15
    900001d0:	0f00e713          	ori	a4,ra,240
    900001d4:	f00ff3b7          	lui	t2,0xf00ff
    900001d8:	0ff3839b          	addiw	t2,t2,255
    900001dc:	00500193          	li	gp,5
    900001e0:	18771263          	bne	a4,t2,90000364 <fail>

00000000900001e4 <test_6>:
    900001e4:	000100b7          	lui	ra,0x10
    900001e8:	f010809b          	addiw	ra,ra,-255
    900001ec:	01009093          	slli	ra,ra,0x10
    900001f0:	f0008093          	addi	ra,ra,-256 # ff00 <_start-0x8fff0100>
    900001f4:	0f00e093          	ori	ra,ra,240
    900001f8:	000103b7          	lui	t2,0x10
    900001fc:	f013839b          	addiw	t2,t2,-255
    90000200:	01039393          	slli	t2,t2,0x10
    90000204:	ff038393          	addi	t2,t2,-16 # fff0 <_start-0x8fff0010>
    90000208:	00600193          	li	gp,6
    9000020c:	14709c63          	bne	ra,t2,90000364 <fail>

0000000090000210 <test_7>:
    90000210:	00000213          	li	tp,0
    90000214:	0ff010b7          	lui	ra,0xff01
    90000218:	ff00809b          	addiw	ra,ra,-16
    9000021c:	0f00e713          	ori	a4,ra,240
    90000220:	00070313          	mv	t1,a4
    90000224:	00120213          	addi	tp,tp,1 # 1 <_start-0x8fffffff>
    90000228:	00200293          	li	t0,2
    9000022c:	fe5214e3          	bne	tp,t0,90000214 <test_7+0x4>
    90000230:	0ff013b7          	lui	t2,0xff01
    90000234:	ff03839b          	addiw	t2,t2,-16
    90000238:	00700193          	li	gp,7
    9000023c:	12731463          	bne	t1,t2,90000364 <fail>

0000000090000240 <test_8>:
    90000240:	00000213          	li	tp,0
    90000244:	00ff00b7          	lui	ra,0xff0
    90000248:	0ff0809b          	addiw	ra,ra,255
    9000024c:	70f0e713          	ori	a4,ra,1807
    90000250:	00000013          	nop
    90000254:	00070313          	mv	t1,a4
    90000258:	00120213          	addi	tp,tp,1 # 1 <_start-0x8fffffff>
    9000025c:	00200293          	li	t0,2
    90000260:	fe5212e3          	bne	tp,t0,90000244 <test_8+0x4>
    90000264:	00ff03b7          	lui	t2,0xff0
    90000268:	7ff3839b          	addiw	t2,t2,2047
    9000026c:	00800193          	li	gp,8
    90000270:	0e731a63          	bne	t1,t2,90000364 <fail>

0000000090000274 <test_9>:
    90000274:	00000213          	li	tp,0
    90000278:	f00ff0b7          	lui	ra,0xf00ff
    9000027c:	00f0809b          	addiw	ra,ra,15
    90000280:	0f00e713          	ori	a4,ra,240
    90000284:	00000013          	nop
    90000288:	00000013          	nop
    9000028c:	00070313          	mv	t1,a4
    90000290:	00120213          	addi	tp,tp,1 # 1 <_start-0x8fffffff>
    90000294:	00200293          	li	t0,2
    90000298:	fe5210e3          	bne	tp,t0,90000278 <test_9+0x4>
    9000029c:	f00ff3b7          	lui	t2,0xf00ff
    900002a0:	0ff3839b          	addiw	t2,t2,255
    900002a4:	00900193          	li	gp,9
    900002a8:	0a731e63          	bne	t1,t2,90000364 <fail>

00000000900002ac <test_10>:
    900002ac:	00000213          	li	tp,0
    900002b0:	0ff010b7          	lui	ra,0xff01
    900002b4:	ff00809b          	addiw	ra,ra,-16
    900002b8:	0f00e713          	ori	a4,ra,240
    900002bc:	00120213          	addi	tp,tp,1 # 1 <_start-0x8fffffff>
    900002c0:	00200293          	li	t0,2
    900002c4:	fe5216e3          	bne	tp,t0,900002b0 <test_10+0x4>
    900002c8:	0ff013b7          	lui	t2,0xff01
    900002cc:	ff03839b          	addiw	t2,t2,-16
    900002d0:	00a00193          	li	gp,10
    900002d4:	08771863          	bne	a4,t2,90000364 <fail>

00000000900002d8 <test_11>:
    900002d8:	00000213          	li	tp,0
    900002dc:	00ff00b7          	lui	ra,0xff0
    900002e0:	0ff0809b          	addiw	ra,ra,255
    900002e4:	00000013          	nop
    900002e8:	f0f0e713          	ori	a4,ra,-241
    900002ec:	00120213          	addi	tp,tp,1 # 1 <_start-0x8fffffff>
    900002f0:	00200293          	li	t0,2
    900002f4:	fe5214e3          	bne	tp,t0,900002dc <test_11+0x4>
    900002f8:	fff00393          	li	t2,-1
    900002fc:	00b00193          	li	gp,11
    90000300:	06771263          	bne	a4,t2,90000364 <fail>

0000000090000304 <test_12>:
    90000304:	00000213          	li	tp,0
    90000308:	f00ff0b7          	lui	ra,0xf00ff
    9000030c:	00f0809b          	addiw	ra,ra,15
    90000310:	00000013          	nop
    90000314:	00000013          	nop
    90000318:	0f00e713          	ori	a4,ra,240
    9000031c:	00120213          	addi	tp,tp,1 # 1 <_start-0x8fffffff>
    90000320:	00200293          	li	t0,2
    90000324:	fe5212e3          	bne	tp,t0,90000308 <test_12+0x4>
    90000328:	f00ff3b7          	lui	t2,0xf00ff
    9000032c:	0ff3839b          	addiw	t2,t2,255
    90000330:	00c00193          	li	gp,12
    90000334:	02771863          	bne	a4,t2,90000364 <fail>

0000000090000338 <test_13>:
    90000338:	0f006093          	ori	ra,zero,240
    9000033c:	0f000393          	li	t2,240
    90000340:	00d00193          	li	gp,13
    90000344:	02709063          	bne	ra,t2,90000364 <fail>

0000000090000348 <test_14>:
    90000348:	00ff00b7          	lui	ra,0xff0
    9000034c:	0ff0809b          	addiw	ra,ra,255
    90000350:	70f0e013          	ori	zero,ra,1807
    90000354:	00000393          	li	t2,0
    90000358:	00e00193          	li	gp,14
    9000035c:	00701463          	bne	zero,t2,90000364 <fail>
    90000360:	02301063          	bne	zero,gp,90000380 <pass>

0000000090000364 <fail>:
    90000364:	0ff0000f          	fence
    90000368:	00018063          	beqz	gp,90000368 <fail+0x4>
    9000036c:	00119193          	slli	gp,gp,0x1
    90000370:	0011e193          	ori	gp,gp,1
    90000374:	05d00893          	li	a7,93
    90000378:	00018513          	mv	a0,gp
    9000037c:	00000073          	ecall

0000000090000380 <pass>:
    90000380:	0ff0000f          	fence
    90000384:	00100193          	li	gp,1
    90000388:	05d00893          	li	a7,93
    9000038c:	00000513          	li	a0,0
    90000390:	00000073          	ecall
    90000394:	c0001073          	unimp
    90000398:	0000                	unimp
    9000039a:	0000                	unimp
    9000039c:	0000                	unimp
    9000039e:	0000                	unimp
    900003a0:	0000                	unimp
    900003a2:	0000                	unimp
    900003a4:	0000                	unimp
    900003a6:	0000                	unimp
    900003a8:	0000                	unimp
    900003aa:	0000                	unimp
    900003ac:	0000                	unimp
    900003ae:	0000                	unimp
    900003b0:	0000                	unimp
    900003b2:	0000                	unimp
    900003b4:	0000                	unimp
    900003b6:	0000                	unimp
    900003b8:	0000                	unimp
    900003ba:	0000                	unimp
