
rv64ui-p-slt:     file format elf64-littleriscv


Disassembly of section .text.init:

0000000090000000 <_start>:
    90000000:	0480006f          	j	90000048 <reset_vector>

0000000090000004 <trap_vector>:
    90000004:	34202f73          	csrr	t5,mcause
    90000008:	00800f93          	li	t6,8
    9000000c:	03ff0863          	beq	t5,t6,9000003c <write_tohost>
    90000010:	00900f93          	li	t6,9
    90000014:	03ff0463          	beq	t5,t6,9000003c <write_tohost>
    90000018:	00b00f93          	li	t6,11
    9000001c:	03ff0063          	beq	t5,t6,9000003c <write_tohost>
    90000020:	00000f13          	li	t5,0
    90000024:	000f0463          	beqz	t5,9000002c <trap_vector+0x28>
    90000028:	000f0067          	jr	t5
    9000002c:	34202f73          	csrr	t5,mcause
    90000030:	000f5463          	bgez	t5,90000038 <handle_exception>
    90000034:	0040006f          	j	90000038 <handle_exception>

0000000090000038 <handle_exception>:
    90000038:	5391e193          	ori	gp,gp,1337

000000009000003c <write_tohost>:
    9000003c:	00001f17          	auipc	t5,0x1
    90000040:	fc3f2223          	sw	gp,-60(t5) # 90001000 <tohost>
    90000044:	ff9ff06f          	j	9000003c <write_tohost>

0000000090000048 <reset_vector>:
    90000048:	00000093          	li	ra,0
    9000004c:	00000113          	li	sp,0
    90000050:	00000193          	li	gp,0
    90000054:	00000213          	li	tp,0
    90000058:	00000293          	li	t0,0
    9000005c:	00000313          	li	t1,0
    90000060:	00000393          	li	t2,0
    90000064:	00000413          	li	s0,0
    90000068:	00000493          	li	s1,0
    9000006c:	00000513          	li	a0,0
    90000070:	00000593          	li	a1,0
    90000074:	00000613          	li	a2,0
    90000078:	00000693          	li	a3,0
    9000007c:	00000713          	li	a4,0
    90000080:	00000793          	li	a5,0
    90000084:	00000813          	li	a6,0
    90000088:	00000893          	li	a7,0
    9000008c:	00000913          	li	s2,0
    90000090:	00000993          	li	s3,0
    90000094:	00000a13          	li	s4,0
    90000098:	00000a93          	li	s5,0
    9000009c:	00000b13          	li	s6,0
    900000a0:	00000b93          	li	s7,0
    900000a4:	00000c13          	li	s8,0
    900000a8:	00000c93          	li	s9,0
    900000ac:	00000d13          	li	s10,0
    900000b0:	00000d93          	li	s11,0
    900000b4:	00000e13          	li	t3,0
    900000b8:	00000e93          	li	t4,0
    900000bc:	00000f13          	li	t5,0
    900000c0:	00000f93          	li	t6,0
    900000c4:	f1402573          	csrr	a0,mhartid
    900000c8:	00051063          	bnez	a0,900000c8 <reset_vector+0x80>
    900000cc:	00000297          	auipc	t0,0x0
    900000d0:	01028293          	addi	t0,t0,16 # 900000dc <reset_vector+0x94>
    900000d4:	30529073          	csrw	mtvec,t0
    900000d8:	18005073          	csrwi	satp,0
    900000dc:	00000297          	auipc	t0,0x0
    900000e0:	02428293          	addi	t0,t0,36 # 90000100 <reset_vector+0xb8>
    900000e4:	30529073          	csrw	mtvec,t0
    900000e8:	0010029b          	addiw	t0,zero,1
    900000ec:	03529293          	slli	t0,t0,0x35
    900000f0:	fff28293          	addi	t0,t0,-1
    900000f4:	3b029073          	csrw	pmpaddr0,t0
    900000f8:	01f00293          	li	t0,31
    900000fc:	3a029073          	csrw	pmpcfg0,t0
    90000100:	30405073          	csrwi	mie,0
    90000104:	00000297          	auipc	t0,0x0
    90000108:	01428293          	addi	t0,t0,20 # 90000118 <reset_vector+0xd0>
    9000010c:	30529073          	csrw	mtvec,t0
    90000110:	30205073          	csrwi	medeleg,0
    90000114:	30305073          	csrwi	mideleg,0
    90000118:	00000193          	li	gp,0
    9000011c:	00000297          	auipc	t0,0x0
    90000120:	ee828293          	addi	t0,t0,-280 # 90000004 <trap_vector>
    90000124:	30529073          	csrw	mtvec,t0
    90000128:	00100513          	li	a0,1
    9000012c:	01f51513          	slli	a0,a0,0x1f
    90000130:	00055c63          	bgez	a0,90000148 <reset_vector+0x100>
    90000134:	0ff0000f          	fence
    90000138:	00100193          	li	gp,1
    9000013c:	05d00893          	li	a7,93
    90000140:	00000513          	li	a0,0
    90000144:	00000073          	ecall
    90000148:	00000293          	li	t0,0
    9000014c:	00028a63          	beqz	t0,90000160 <reset_vector+0x118>
    90000150:	10529073          	csrw	stvec,t0
    90000154:	0000b2b7          	lui	t0,0xb
    90000158:	1092829b          	addiw	t0,t0,265
    9000015c:	30229073          	csrw	medeleg,t0
    90000160:	30005073          	csrwi	mstatus,0
    90000164:	00000297          	auipc	t0,0x0
    90000168:	01428293          	addi	t0,t0,20 # 90000178 <test_2>
    9000016c:	34129073          	csrw	mepc,t0
    90000170:	f1402573          	csrr	a0,mhartid
    90000174:	30200073          	mret

0000000090000178 <test_2>:
    90000178:	00000093          	li	ra,0
    9000017c:	00000113          	li	sp,0
    90000180:	0020a733          	slt	a4,ra,sp
    90000184:	00000393          	li	t2,0
    90000188:	00200193          	li	gp,2
    9000018c:	4a771a63          	bne	a4,t2,90000640 <fail>

0000000090000190 <test_3>:
    90000190:	00100093          	li	ra,1
    90000194:	00100113          	li	sp,1
    90000198:	0020a733          	slt	a4,ra,sp
    9000019c:	00000393          	li	t2,0
    900001a0:	00300193          	li	gp,3
    900001a4:	48771e63          	bne	a4,t2,90000640 <fail>

00000000900001a8 <test_4>:
    900001a8:	00300093          	li	ra,3
    900001ac:	00700113          	li	sp,7
    900001b0:	0020a733          	slt	a4,ra,sp
    900001b4:	00100393          	li	t2,1
    900001b8:	00400193          	li	gp,4
    900001bc:	48771263          	bne	a4,t2,90000640 <fail>

00000000900001c0 <test_5>:
    900001c0:	00700093          	li	ra,7
    900001c4:	00300113          	li	sp,3
    900001c8:	0020a733          	slt	a4,ra,sp
    900001cc:	00000393          	li	t2,0
    900001d0:	00500193          	li	gp,5
    900001d4:	46771663          	bne	a4,t2,90000640 <fail>

00000000900001d8 <test_6>:
    900001d8:	00000093          	li	ra,0
    900001dc:	ffff8137          	lui	sp,0xffff8
    900001e0:	0020a733          	slt	a4,ra,sp
    900001e4:	00000393          	li	t2,0
    900001e8:	00600193          	li	gp,6
    900001ec:	44771a63          	bne	a4,t2,90000640 <fail>

00000000900001f0 <test_7>:
    900001f0:	800000b7          	lui	ra,0x80000
    900001f4:	00000113          	li	sp,0
    900001f8:	0020a733          	slt	a4,ra,sp
    900001fc:	00100393          	li	t2,1
    90000200:	00700193          	li	gp,7
    90000204:	42771e63          	bne	a4,t2,90000640 <fail>

0000000090000208 <test_8>:
    90000208:	800000b7          	lui	ra,0x80000
    9000020c:	ffff8137          	lui	sp,0xffff8
    90000210:	0020a733          	slt	a4,ra,sp
    90000214:	00100393          	li	t2,1
    90000218:	00800193          	li	gp,8
    9000021c:	42771263          	bne	a4,t2,90000640 <fail>

0000000090000220 <test_9>:
    90000220:	00000093          	li	ra,0
    90000224:	00008137          	lui	sp,0x8
    90000228:	fff1011b          	addiw	sp,sp,-1
    9000022c:	0020a733          	slt	a4,ra,sp
    90000230:	00100393          	li	t2,1
    90000234:	00900193          	li	gp,9
    90000238:	40771463          	bne	a4,t2,90000640 <fail>

000000009000023c <test_10>:
    9000023c:	800000b7          	lui	ra,0x80000
    90000240:	fff0809b          	addiw	ra,ra,-1
    90000244:	00000113          	li	sp,0
    90000248:	0020a733          	slt	a4,ra,sp
    9000024c:	00000393          	li	t2,0
    90000250:	00a00193          	li	gp,10
    90000254:	3e771663          	bne	a4,t2,90000640 <fail>

0000000090000258 <test_11>:
    90000258:	800000b7          	lui	ra,0x80000
    9000025c:	fff0809b          	addiw	ra,ra,-1
    90000260:	00008137          	lui	sp,0x8
    90000264:	fff1011b          	addiw	sp,sp,-1
    90000268:	0020a733          	slt	a4,ra,sp
    9000026c:	00000393          	li	t2,0
    90000270:	00b00193          	li	gp,11
    90000274:	3c771663          	bne	a4,t2,90000640 <fail>

0000000090000278 <test_12>:
    90000278:	800000b7          	lui	ra,0x80000
    9000027c:	00008137          	lui	sp,0x8
    90000280:	fff1011b          	addiw	sp,sp,-1
    90000284:	0020a733          	slt	a4,ra,sp
    90000288:	00100393          	li	t2,1
    9000028c:	00c00193          	li	gp,12
    90000290:	3a771863          	bne	a4,t2,90000640 <fail>

0000000090000294 <test_13>:
    90000294:	800000b7          	lui	ra,0x80000
    90000298:	fff0809b          	addiw	ra,ra,-1
    9000029c:	ffff8137          	lui	sp,0xffff8
    900002a0:	0020a733          	slt	a4,ra,sp
    900002a4:	00000393          	li	t2,0
    900002a8:	00d00193          	li	gp,13
    900002ac:	38771a63          	bne	a4,t2,90000640 <fail>

00000000900002b0 <test_14>:
    900002b0:	00000093          	li	ra,0
    900002b4:	fff00113          	li	sp,-1
    900002b8:	0020a733          	slt	a4,ra,sp
    900002bc:	00000393          	li	t2,0
    900002c0:	00e00193          	li	gp,14
    900002c4:	36771e63          	bne	a4,t2,90000640 <fail>

00000000900002c8 <test_15>:
    900002c8:	fff00093          	li	ra,-1
    900002cc:	00100113          	li	sp,1
    900002d0:	0020a733          	slt	a4,ra,sp
    900002d4:	00100393          	li	t2,1
    900002d8:	00f00193          	li	gp,15
    900002dc:	36771263          	bne	a4,t2,90000640 <fail>

00000000900002e0 <test_16>:
    900002e0:	fff00093          	li	ra,-1
    900002e4:	fff00113          	li	sp,-1
    900002e8:	0020a733          	slt	a4,ra,sp
    900002ec:	00000393          	li	t2,0
    900002f0:	01000193          	li	gp,16
    900002f4:	34771663          	bne	a4,t2,90000640 <fail>

00000000900002f8 <test_17>:
    900002f8:	00e00093          	li	ra,14
    900002fc:	00d00113          	li	sp,13
    90000300:	0020a0b3          	slt	ra,ra,sp
    90000304:	00000393          	li	t2,0
    90000308:	01100193          	li	gp,17
    9000030c:	32709a63          	bne	ra,t2,90000640 <fail>

0000000090000310 <test_18>:
    90000310:	00b00093          	li	ra,11
    90000314:	00d00113          	li	sp,13
    90000318:	0020a133          	slt	sp,ra,sp
    9000031c:	00100393          	li	t2,1
    90000320:	01200193          	li	gp,18
    90000324:	30711e63          	bne	sp,t2,90000640 <fail>

0000000090000328 <test_19>:
    90000328:	00d00093          	li	ra,13
    9000032c:	0010a0b3          	slt	ra,ra,ra
    90000330:	00000393          	li	t2,0
    90000334:	01300193          	li	gp,19
    90000338:	30709463          	bne	ra,t2,90000640 <fail>

000000009000033c <test_20>:
    9000033c:	00000213          	li	tp,0
    90000340:	00b00093          	li	ra,11
    90000344:	00d00113          	li	sp,13
    90000348:	0020a733          	slt	a4,ra,sp
    9000034c:	00070313          	mv	t1,a4
    90000350:	00120213          	addi	tp,tp,1 # 1 <_start-0x8fffffff>
    90000354:	00200293          	li	t0,2
    90000358:	fe5214e3          	bne	tp,t0,90000340 <test_20+0x4>
    9000035c:	00100393          	li	t2,1
    90000360:	01400193          	li	gp,20
    90000364:	2c731e63          	bne	t1,t2,90000640 <fail>

0000000090000368 <test_21>:
    90000368:	00000213          	li	tp,0
    9000036c:	00e00093          	li	ra,14
    90000370:	00d00113          	li	sp,13
    90000374:	0020a733          	slt	a4,ra,sp
    90000378:	00000013          	nop
    9000037c:	00070313          	mv	t1,a4
    90000380:	00120213          	addi	tp,tp,1 # 1 <_start-0x8fffffff>
    90000384:	00200293          	li	t0,2
    90000388:	fe5212e3          	bne	tp,t0,9000036c <test_21+0x4>
    9000038c:	00000393          	li	t2,0
    90000390:	01500193          	li	gp,21
    90000394:	2a731663          	bne	t1,t2,90000640 <fail>

0000000090000398 <test_22>:
    90000398:	00000213          	li	tp,0
    9000039c:	00c00093          	li	ra,12
    900003a0:	00d00113          	li	sp,13
    900003a4:	0020a733          	slt	a4,ra,sp
    900003a8:	00000013          	nop
    900003ac:	00000013          	nop
    900003b0:	00070313          	mv	t1,a4
    900003b4:	00120213          	addi	tp,tp,1 # 1 <_start-0x8fffffff>
    900003b8:	00200293          	li	t0,2
    900003bc:	fe5210e3          	bne	tp,t0,9000039c <test_22+0x4>
    900003c0:	00100393          	li	t2,1
    900003c4:	01600193          	li	gp,22
    900003c8:	26731c63          	bne	t1,t2,90000640 <fail>

00000000900003cc <test_23>:
    900003cc:	00000213          	li	tp,0
    900003d0:	00e00093          	li	ra,14
    900003d4:	00d00113          	li	sp,13
    900003d8:	0020a733          	slt	a4,ra,sp
    900003dc:	00120213          	addi	tp,tp,1 # 1 <_start-0x8fffffff>
    900003e0:	00200293          	li	t0,2
    900003e4:	fe5216e3          	bne	tp,t0,900003d0 <test_23+0x4>
    900003e8:	00000393          	li	t2,0
    900003ec:	01700193          	li	gp,23
    900003f0:	24771863          	bne	a4,t2,90000640 <fail>

00000000900003f4 <test_24>:
    900003f4:	00000213          	li	tp,0
    900003f8:	00b00093          	li	ra,11
    900003fc:	00d00113          	li	sp,13
    90000400:	00000013          	nop
    90000404:	0020a733          	slt	a4,ra,sp
    90000408:	00120213          	addi	tp,tp,1 # 1 <_start-0x8fffffff>
    9000040c:	00200293          	li	t0,2
    90000410:	fe5214e3          	bne	tp,t0,900003f8 <test_24+0x4>
    90000414:	00100393          	li	t2,1
    90000418:	01800193          	li	gp,24
    9000041c:	22771263          	bne	a4,t2,90000640 <fail>

0000000090000420 <test_25>:
    90000420:	00000213          	li	tp,0
    90000424:	00f00093          	li	ra,15
    90000428:	00d00113          	li	sp,13
    9000042c:	00000013          	nop
    90000430:	00000013          	nop
    90000434:	0020a733          	slt	a4,ra,sp
    90000438:	00120213          	addi	tp,tp,1 # 1 <_start-0x8fffffff>
    9000043c:	00200293          	li	t0,2
    90000440:	fe5212e3          	bne	tp,t0,90000424 <test_25+0x4>
    90000444:	00000393          	li	t2,0
    90000448:	01900193          	li	gp,25
    9000044c:	1e771a63          	bne	a4,t2,90000640 <fail>

0000000090000450 <test_26>:
    90000450:	00000213          	li	tp,0
    90000454:	00a00093          	li	ra,10
    90000458:	00000013          	nop
    9000045c:	00d00113          	li	sp,13
    90000460:	0020a733          	slt	a4,ra,sp
    90000464:	00120213          	addi	tp,tp,1 # 1 <_start-0x8fffffff>
    90000468:	00200293          	li	t0,2
    9000046c:	fe5214e3          	bne	tp,t0,90000454 <test_26+0x4>
    90000470:	00100393          	li	t2,1
    90000474:	01a00193          	li	gp,26
    90000478:	1c771463          	bne	a4,t2,90000640 <fail>

000000009000047c <test_27>:
    9000047c:	00000213          	li	tp,0
    90000480:	01000093          	li	ra,16
    90000484:	00000013          	nop
    90000488:	00d00113          	li	sp,13
    9000048c:	00000013          	nop
    90000490:	0020a733          	slt	a4,ra,sp
    90000494:	00120213          	addi	tp,tp,1 # 1 <_start-0x8fffffff>
    90000498:	00200293          	li	t0,2
    9000049c:	fe5212e3          	bne	tp,t0,90000480 <test_27+0x4>
    900004a0:	00000393          	li	t2,0
    900004a4:	01b00193          	li	gp,27
    900004a8:	18771c63          	bne	a4,t2,90000640 <fail>

00000000900004ac <test_28>:
    900004ac:	00000213          	li	tp,0
    900004b0:	00900093          	li	ra,9
    900004b4:	00000013          	nop
    900004b8:	00000013          	nop
    900004bc:	00d00113          	li	sp,13
    900004c0:	0020a733          	slt	a4,ra,sp
    900004c4:	00120213          	addi	tp,tp,1 # 1 <_start-0x8fffffff>
    900004c8:	00200293          	li	t0,2
    900004cc:	fe5212e3          	bne	tp,t0,900004b0 <test_28+0x4>
    900004d0:	00100393          	li	t2,1
    900004d4:	01c00193          	li	gp,28
    900004d8:	16771463          	bne	a4,t2,90000640 <fail>

00000000900004dc <test_29>:
    900004dc:	00000213          	li	tp,0
    900004e0:	00d00113          	li	sp,13
    900004e4:	01100093          	li	ra,17
    900004e8:	0020a733          	slt	a4,ra,sp
    900004ec:	00120213          	addi	tp,tp,1 # 1 <_start-0x8fffffff>
    900004f0:	00200293          	li	t0,2
    900004f4:	fe5216e3          	bne	tp,t0,900004e0 <test_29+0x4>
    900004f8:	00000393          	li	t2,0
    900004fc:	01d00193          	li	gp,29
    90000500:	14771063          	bne	a4,t2,90000640 <fail>

0000000090000504 <test_30>:
    90000504:	00000213          	li	tp,0
    90000508:	00d00113          	li	sp,13
    9000050c:	00800093          	li	ra,8
    90000510:	00000013          	nop
    90000514:	0020a733          	slt	a4,ra,sp
    90000518:	00120213          	addi	tp,tp,1 # 1 <_start-0x8fffffff>
    9000051c:	00200293          	li	t0,2
    90000520:	fe5214e3          	bne	tp,t0,90000508 <test_30+0x4>
    90000524:	00100393          	li	t2,1
    90000528:	01e00193          	li	gp,30
    9000052c:	10771a63          	bne	a4,t2,90000640 <fail>

0000000090000530 <test_31>:
    90000530:	00000213          	li	tp,0
    90000534:	00d00113          	li	sp,13
    90000538:	01200093          	li	ra,18
    9000053c:	00000013          	nop
    90000540:	00000013          	nop
    90000544:	0020a733          	slt	a4,ra,sp
    90000548:	00120213          	addi	tp,tp,1 # 1 <_start-0x8fffffff>
    9000054c:	00200293          	li	t0,2
    90000550:	fe5212e3          	bne	tp,t0,90000534 <test_31+0x4>
    90000554:	00000393          	li	t2,0
    90000558:	01f00193          	li	gp,31
    9000055c:	0e771263          	bne	a4,t2,90000640 <fail>

0000000090000560 <test_32>:
    90000560:	00000213          	li	tp,0
    90000564:	00d00113          	li	sp,13
    90000568:	00000013          	nop
    9000056c:	00700093          	li	ra,7
    90000570:	0020a733          	slt	a4,ra,sp
    90000574:	00120213          	addi	tp,tp,1 # 1 <_start-0x8fffffff>
    90000578:	00200293          	li	t0,2
    9000057c:	fe5214e3          	bne	tp,t0,90000564 <test_32+0x4>
    90000580:	00100393          	li	t2,1
    90000584:	02000193          	li	gp,32
    90000588:	0a771c63          	bne	a4,t2,90000640 <fail>

000000009000058c <test_33>:
    9000058c:	00000213          	li	tp,0
    90000590:	00d00113          	li	sp,13
    90000594:	00000013          	nop
    90000598:	01300093          	li	ra,19
    9000059c:	00000013          	nop
    900005a0:	0020a733          	slt	a4,ra,sp
    900005a4:	00120213          	addi	tp,tp,1 # 1 <_start-0x8fffffff>
    900005a8:	00200293          	li	t0,2
    900005ac:	fe5212e3          	bne	tp,t0,90000590 <test_33+0x4>
    900005b0:	00000393          	li	t2,0
    900005b4:	02100193          	li	gp,33
    900005b8:	08771463          	bne	a4,t2,90000640 <fail>

00000000900005bc <test_34>:
    900005bc:	00000213          	li	tp,0
    900005c0:	00d00113          	li	sp,13
    900005c4:	00000013          	nop
    900005c8:	00000013          	nop
    900005cc:	00600093          	li	ra,6
    900005d0:	0020a733          	slt	a4,ra,sp
    900005d4:	00120213          	addi	tp,tp,1 # 1 <_start-0x8fffffff>
    900005d8:	00200293          	li	t0,2
    900005dc:	fe5212e3          	bne	tp,t0,900005c0 <test_34+0x4>
    900005e0:	00100393          	li	t2,1
    900005e4:	02200193          	li	gp,34
    900005e8:	04771c63          	bne	a4,t2,90000640 <fail>

00000000900005ec <test_35>:
    900005ec:	fff00093          	li	ra,-1
    900005f0:	00102133          	sgtz	sp,ra
    900005f4:	00000393          	li	t2,0
    900005f8:	02300193          	li	gp,35
    900005fc:	04711263          	bne	sp,t2,90000640 <fail>

0000000090000600 <test_36>:
    90000600:	fff00093          	li	ra,-1
    90000604:	0000a133          	sltz	sp,ra
    90000608:	00100393          	li	t2,1
    9000060c:	02400193          	li	gp,36
    90000610:	02711863          	bne	sp,t2,90000640 <fail>

0000000090000614 <test_37>:
    90000614:	000020b3          	sltz	ra,zero
    90000618:	00000393          	li	t2,0
    9000061c:	02500193          	li	gp,37
    90000620:	02709063          	bne	ra,t2,90000640 <fail>

0000000090000624 <test_38>:
    90000624:	01000093          	li	ra,16
    90000628:	01e00113          	li	sp,30
    9000062c:	0020a033          	slt	zero,ra,sp
    90000630:	00000393          	li	t2,0
    90000634:	02600193          	li	gp,38
    90000638:	00701463          	bne	zero,t2,90000640 <fail>
    9000063c:	02301063          	bne	zero,gp,9000065c <pass>

0000000090000640 <fail>:
    90000640:	0ff0000f          	fence
    90000644:	00018063          	beqz	gp,90000644 <fail+0x4>
    90000648:	00119193          	slli	gp,gp,0x1
    9000064c:	0011e193          	ori	gp,gp,1
    90000650:	05d00893          	li	a7,93
    90000654:	00018513          	mv	a0,gp
    90000658:	00000073          	ecall

000000009000065c <pass>:
    9000065c:	0ff0000f          	fence
    90000660:	00100193          	li	gp,1
    90000664:	05d00893          	li	a7,93
    90000668:	00000513          	li	a0,0
    9000066c:	00000073          	ecall
    90000670:	c0001073          	unimp
    90000674:	0000                	unimp
    90000676:	0000                	unimp
    90000678:	0000                	unimp
    9000067a:	0000                	unimp
