
rv64ui-v-lbu:     file format elf64-littleriscv


Disassembly of section .text.init:

0000000090000000 <_start>:
    90000000:	00c0006f          	j	9000000c <handle_reset>

0000000090000004 <nmi_vector>:
    90000004:	2c80206f          	j	900022cc <wtf>

0000000090000008 <trap_vector>:
    90000008:	2c40206f          	j	900022cc <wtf>

000000009000000c <handle_reset>:
    9000000c:	00000093          	li	ra,0
    90000010:	00000113          	li	sp,0
    90000014:	00000193          	li	gp,0
    90000018:	00000213          	li	tp,0
    9000001c:	00000293          	li	t0,0
    90000020:	00000313          	li	t1,0
    90000024:	00000393          	li	t2,0
    90000028:	00000413          	li	s0,0
    9000002c:	00000493          	li	s1,0
    90000030:	00000513          	li	a0,0
    90000034:	00000593          	li	a1,0
    90000038:	00000613          	li	a2,0
    9000003c:	00000693          	li	a3,0
    90000040:	00000713          	li	a4,0
    90000044:	00000793          	li	a5,0
    90000048:	00000813          	li	a6,0
    9000004c:	00000893          	li	a7,0
    90000050:	00000913          	li	s2,0
    90000054:	00000993          	li	s3,0
    90000058:	00000a13          	li	s4,0
    9000005c:	00000a93          	li	s5,0
    90000060:	00000b13          	li	s6,0
    90000064:	00000b93          	li	s7,0
    90000068:	00000c13          	li	s8,0
    9000006c:	00000c93          	li	s9,0
    90000070:	00000d13          	li	s10,0
    90000074:	00000d93          	li	s11,0
    90000078:	00000e13          	li	t3,0
    9000007c:	00000e93          	li	t4,0
    90000080:	00000f13          	li	t5,0
    90000084:	00000f93          	li	t6,0
    90000088:	00000297          	auipc	t0,0x0
    9000008c:	f8028293          	addi	t0,t0,-128 # 90000008 <trap_vector>
    90000090:	30529073          	csrw	mtvec,t0
    90000094:	0000a117          	auipc	sp,0xa
    90000098:	e4c10113          	addi	sp,sp,-436 # 90009ee0 <freelist_head+0xed8>
    9000009c:	f14022f3          	csrr	t0,mhartid
    900000a0:	00c29293          	slli	t0,t0,0xc
    900000a4:	00510133          	add	sp,sp,t0
    900000a8:	34011073          	csrw	mscratch,sp
    900000ac:	0b9020ef          	jal	ra,90002964 <extra_boot>
    900000b0:	00003517          	auipc	a0,0x3
    900000b4:	8b850513          	addi	a0,a0,-1864 # 90002968 <userstart>
    900000b8:	6b00206f          	j	90002768 <vm_boot>

00000000900000bc <pop_tf>:
    900000bc:	10853283          	ld	t0,264(a0)
    900000c0:	14129073          	csrw	sepc,t0
    900000c4:	00853083          	ld	ra,8(a0)
    900000c8:	01053103          	ld	sp,16(a0)
    900000cc:	01853183          	ld	gp,24(a0)
    900000d0:	02053203          	ld	tp,32(a0)
    900000d4:	02853283          	ld	t0,40(a0)
    900000d8:	03053303          	ld	t1,48(a0)
    900000dc:	03853383          	ld	t2,56(a0)
    900000e0:	04053403          	ld	s0,64(a0)
    900000e4:	04853483          	ld	s1,72(a0)
    900000e8:	05853583          	ld	a1,88(a0)
    900000ec:	06053603          	ld	a2,96(a0)
    900000f0:	06853683          	ld	a3,104(a0)
    900000f4:	07053703          	ld	a4,112(a0)
    900000f8:	07853783          	ld	a5,120(a0)
    900000fc:	08053803          	ld	a6,128(a0)
    90000100:	08853883          	ld	a7,136(a0)
    90000104:	09053903          	ld	s2,144(a0)
    90000108:	09853983          	ld	s3,152(a0)
    9000010c:	0a053a03          	ld	s4,160(a0)
    90000110:	0a853a83          	ld	s5,168(a0)
    90000114:	0b053b03          	ld	s6,176(a0)
    90000118:	0b853b83          	ld	s7,184(a0)
    9000011c:	0c053c03          	ld	s8,192(a0)
    90000120:	0c853c83          	ld	s9,200(a0)
    90000124:	0d053d03          	ld	s10,208(a0)
    90000128:	0d853d83          	ld	s11,216(a0)
    9000012c:	0e053e03          	ld	t3,224(a0)
    90000130:	0e853e83          	ld	t4,232(a0)
    90000134:	0f053f03          	ld	t5,240(a0)
    90000138:	0f853f83          	ld	t6,248(a0)
    9000013c:	05053503          	ld	a0,80(a0)
    90000140:	10200073          	sret

0000000090000144 <trap_entry>:
    90000144:	14011173          	csrrw	sp,sscratch,sp
    90000148:	00113423          	sd	ra,8(sp)
    9000014c:	00313c23          	sd	gp,24(sp)
    90000150:	02413023          	sd	tp,32(sp)
    90000154:	02513423          	sd	t0,40(sp)
    90000158:	02613823          	sd	t1,48(sp)
    9000015c:	02713c23          	sd	t2,56(sp)
    90000160:	04813023          	sd	s0,64(sp)
    90000164:	04913423          	sd	s1,72(sp)
    90000168:	04a13823          	sd	a0,80(sp)
    9000016c:	04b13c23          	sd	a1,88(sp)
    90000170:	06c13023          	sd	a2,96(sp)
    90000174:	06d13423          	sd	a3,104(sp)
    90000178:	06e13823          	sd	a4,112(sp)
    9000017c:	06f13c23          	sd	a5,120(sp)
    90000180:	09013023          	sd	a6,128(sp)
    90000184:	09113423          	sd	a7,136(sp)
    90000188:	09213823          	sd	s2,144(sp)
    9000018c:	09313c23          	sd	s3,152(sp)
    90000190:	0b413023          	sd	s4,160(sp)
    90000194:	0b513423          	sd	s5,168(sp)
    90000198:	0b613823          	sd	s6,176(sp)
    9000019c:	0b713c23          	sd	s7,184(sp)
    900001a0:	0d813023          	sd	s8,192(sp)
    900001a4:	0d913423          	sd	s9,200(sp)
    900001a8:	0da13823          	sd	s10,208(sp)
    900001ac:	0db13c23          	sd	s11,216(sp)
    900001b0:	0fc13023          	sd	t3,224(sp)
    900001b4:	0fd13423          	sd	t4,232(sp)
    900001b8:	0fe13823          	sd	t5,240(sp)
    900001bc:	0ff13c23          	sd	t6,248(sp)
    900001c0:	140112f3          	csrrw	t0,sscratch,sp
    900001c4:	00513823          	sd	t0,16(sp)
    900001c8:	100022f3          	csrr	t0,sstatus
    900001cc:	10513023          	sd	t0,256(sp)
    900001d0:	141022f3          	csrr	t0,sepc
    900001d4:	10513423          	sd	t0,264(sp)
    900001d8:	143022f3          	csrr	t0,stval
    900001dc:	10513823          	sd	t0,272(sp)
    900001e0:	142022f3          	csrr	t0,scause
    900001e4:	10513c23          	sd	t0,280(sp)
    900001e8:	00010513          	mv	a0,sp
    900001ec:	3380206f          	j	90002524 <handle_trap>

Disassembly of section .text:

0000000090002000 <memcpy>:
    90002000:	00c5e7b3          	or	a5,a1,a2
    90002004:	00f567b3          	or	a5,a0,a5
    90002008:	0077f793          	andi	a5,a5,7
    9000200c:	00c506b3          	add	a3,a0,a2
    90002010:	02078463          	beqz	a5,90002038 <memcpy+0x38>
    90002014:	00c58633          	add	a2,a1,a2
    90002018:	00050793          	mv	a5,a0
    9000201c:	02d57e63          	bgeu	a0,a3,90002058 <memcpy+0x58>
    90002020:	0005c703          	lbu	a4,0(a1)
    90002024:	00158593          	addi	a1,a1,1
    90002028:	00178793          	addi	a5,a5,1
    9000202c:	fee78fa3          	sb	a4,-1(a5)
    90002030:	fec598e3          	bne	a1,a2,90002020 <memcpy+0x20>
    90002034:	00008067          	ret
    90002038:	fed57ee3          	bgeu	a0,a3,90002034 <memcpy+0x34>
    9000203c:	00050793          	mv	a5,a0
    90002040:	0005b703          	ld	a4,0(a1)
    90002044:	00878793          	addi	a5,a5,8
    90002048:	00858593          	addi	a1,a1,8
    9000204c:	fee7bc23          	sd	a4,-8(a5)
    90002050:	fed7e8e3          	bltu	a5,a3,90002040 <memcpy+0x40>
    90002054:	00008067          	ret
    90002058:	00008067          	ret

000000009000205c <memset>:
    9000205c:	ff010113          	addi	sp,sp,-16
    90002060:	00c567b3          	or	a5,a0,a2
    90002064:	00813023          	sd	s0,0(sp)
    90002068:	00113423          	sd	ra,8(sp)
    9000206c:	0077f793          	andi	a5,a5,7
    90002070:	00050413          	mv	s0,a0
    90002074:	00c50733          	add	a4,a0,a2
    90002078:	02078263          	beqz	a5,9000209c <memset+0x40>
    9000207c:	00e57663          	bgeu	a0,a4,90002088 <memset+0x2c>
    90002080:	0ff5f593          	andi	a1,a1,255
    90002084:	fd9ff0ef          	jal	ra,9000205c <memset>
    90002088:	00813083          	ld	ra,8(sp)
    9000208c:	00040513          	mv	a0,s0
    90002090:	00013403          	ld	s0,0(sp)
    90002094:	01010113          	addi	sp,sp,16
    90002098:	00008067          	ret
    9000209c:	0ff5f593          	andi	a1,a1,255
    900020a0:	00859693          	slli	a3,a1,0x8
    900020a4:	00b6e5b3          	or	a1,a3,a1
    900020a8:	01059693          	slli	a3,a1,0x10
    900020ac:	00b6e5b3          	or	a1,a3,a1
    900020b0:	02059693          	slli	a3,a1,0x20
    900020b4:	00b6e6b3          	or	a3,a3,a1
    900020b8:	fce578e3          	bgeu	a0,a4,90002088 <memset+0x2c>
    900020bc:	00050793          	mv	a5,a0
    900020c0:	00878793          	addi	a5,a5,8
    900020c4:	fed7bc23          	sd	a3,-8(a5)
    900020c8:	fee7ece3          	bltu	a5,a4,900020c0 <memset+0x64>
    900020cc:	00813083          	ld	ra,8(sp)
    900020d0:	00040513          	mv	a0,s0
    900020d4:	00013403          	ld	s0,0(sp)
    900020d8:	01010113          	addi	sp,sp,16
    900020dc:	00008067          	ret

00000000900020e0 <strlen>:
    900020e0:	00054783          	lbu	a5,0(a0)
    900020e4:	00078e63          	beqz	a5,90002100 <strlen+0x20>
    900020e8:	00050793          	mv	a5,a0
    900020ec:	0017c703          	lbu	a4,1(a5)
    900020f0:	00178793          	addi	a5,a5,1
    900020f4:	fe071ce3          	bnez	a4,900020ec <strlen+0xc>
    900020f8:	40a78533          	sub	a0,a5,a0
    900020fc:	00008067          	ret
    90002100:	00000513          	li	a0,0
    90002104:	00008067          	ret

0000000090002108 <strcmp>:
    90002108:	00054783          	lbu	a5,0(a0)
    9000210c:	00158593          	addi	a1,a1,1
    90002110:	00150513          	addi	a0,a0,1
    90002114:	fff5c703          	lbu	a4,-1(a1)
    90002118:	00078a63          	beqz	a5,9000212c <strcmp+0x24>
    9000211c:	fee786e3          	beq	a5,a4,90002108 <strcmp>
    90002120:	0007851b          	sext.w	a0,a5
    90002124:	40e5053b          	subw	a0,a0,a4
    90002128:	00008067          	ret
    9000212c:	00000513          	li	a0,0
    90002130:	ff5ff06f          	j	90002124 <strcmp+0x1c>

0000000090002134 <memcmp>:
    90002134:	00b567b3          	or	a5,a0,a1
    90002138:	0077f793          	andi	a5,a5,7
    9000213c:	02079e63          	bnez	a5,90002178 <memcmp+0x44>
    90002140:	ff867813          	andi	a6,a2,-8
    90002144:	01050833          	add	a6,a0,a6
    90002148:	03057863          	bgeu	a0,a6,90002178 <memcmp+0x44>
    9000214c:	00050793          	mv	a5,a0
    90002150:	0100006f          	j	90002160 <memcmp+0x2c>
    90002154:	00878793          	addi	a5,a5,8
    90002158:	00858593          	addi	a1,a1,8
    9000215c:	0107f863          	bgeu	a5,a6,9000216c <memcmp+0x38>
    90002160:	0007b683          	ld	a3,0(a5)
    90002164:	0005b703          	ld	a4,0(a1)
    90002168:	fee686e3          	beq	a3,a4,90002154 <memcmp+0x20>
    9000216c:	40a78533          	sub	a0,a5,a0
    90002170:	40a60633          	sub	a2,a2,a0
    90002174:	00078513          	mv	a0,a5
    90002178:	00c58633          	add	a2,a1,a2
    9000217c:	0140006f          	j	90002190 <memcmp+0x5c>
    90002180:	0005c703          	lbu	a4,0(a1)
    90002184:	fff54783          	lbu	a5,-1(a0)
    90002188:	00158593          	addi	a1,a1,1
    9000218c:	00e79a63          	bne	a5,a4,900021a0 <memcmp+0x6c>
    90002190:	00150513          	addi	a0,a0,1
    90002194:	fec596e3          	bne	a1,a2,90002180 <memcmp+0x4c>
    90002198:	00000513          	li	a0,0
    9000219c:	00008067          	ret
    900021a0:	40e7853b          	subw	a0,a5,a4
    900021a4:	00008067          	ret

00000000900021a8 <strcpy>:
    900021a8:	00050793          	mv	a5,a0
    900021ac:	0005c703          	lbu	a4,0(a1)
    900021b0:	00178793          	addi	a5,a5,1
    900021b4:	00158593          	addi	a1,a1,1
    900021b8:	fee78fa3          	sb	a4,-1(a5)
    900021bc:	fe0718e3          	bnez	a4,900021ac <strcpy+0x4>
    900021c0:	00008067          	ret

00000000900021c4 <atol>:
    900021c4:	00054703          	lbu	a4,0(a0)
    900021c8:	02000693          	li	a3,32
    900021cc:	00050793          	mv	a5,a0
    900021d0:	00d71863          	bne	a4,a3,900021e0 <atol+0x1c>
    900021d4:	0017c703          	lbu	a4,1(a5)
    900021d8:	00178793          	addi	a5,a5,1
    900021dc:	fed70ce3          	beq	a4,a3,900021d4 <atol+0x10>
    900021e0:	02d00693          	li	a3,45
    900021e4:	06d70063          	beq	a4,a3,90002244 <atol+0x80>
    900021e8:	02b00693          	li	a3,43
    900021ec:	04d70063          	beq	a4,a3,9000222c <atol+0x68>
    900021f0:	0007c683          	lbu	a3,0(a5)
    900021f4:	00000593          	li	a1,0
    900021f8:	04068263          	beqz	a3,9000223c <atol+0x78>
    900021fc:	00000513          	li	a0,0
    90002200:	00178793          	addi	a5,a5,1
    90002204:	fd06861b          	addiw	a2,a3,-48
    90002208:	00251713          	slli	a4,a0,0x2
    9000220c:	0007c683          	lbu	a3,0(a5)
    90002210:	00a70533          	add	a0,a4,a0
    90002214:	00151513          	slli	a0,a0,0x1
    90002218:	00a60533          	add	a0,a2,a0
    9000221c:	fe0692e3          	bnez	a3,90002200 <atol+0x3c>
    90002220:	02058063          	beqz	a1,90002240 <atol+0x7c>
    90002224:	40a00533          	neg	a0,a0
    90002228:	00008067          	ret
    9000222c:	0017c683          	lbu	a3,1(a5)
    90002230:	00000593          	li	a1,0
    90002234:	00178793          	addi	a5,a5,1
    90002238:	fc0692e3          	bnez	a3,900021fc <atol+0x38>
    9000223c:	00000513          	li	a0,0
    90002240:	00008067          	ret
    90002244:	0017c683          	lbu	a3,1(a5)
    90002248:	00100593          	li	a1,1
    9000224c:	00178793          	addi	a5,a5,1
    90002250:	fa0696e3          	bnez	a3,900021fc <atol+0x38>
    90002254:	00000513          	li	a0,0
    90002258:	fe9ff06f          	j	90002240 <atol+0x7c>

000000009000225c <cputstring>:
    9000225c:	00054783          	lbu	a5,0(a0)
    90002260:	04078063          	beqz	a5,900022a0 <cputstring+0x44>
    90002264:	10100593          	li	a1,257
    90002268:	fffff717          	auipc	a4,0xfffff
    9000226c:	d9870713          	addi	a4,a4,-616 # 90001000 <tohost>
    90002270:	03059593          	slli	a1,a1,0x30
    90002274:	00073603          	ld	a2,0(a4)
    90002278:	00150513          	addi	a0,a0,1
    9000227c:	00b7e6b3          	or	a3,a5,a1
    90002280:	00060a63          	beqz	a2,90002294 <cputstring+0x38>
    90002284:	fffff797          	auipc	a5,0xfffff
    90002288:	da07be23          	sd	zero,-580(a5) # 90001040 <fromhost>
    9000228c:	00073783          	ld	a5,0(a4)
    90002290:	fe079ae3          	bnez	a5,90002284 <cputstring+0x28>
    90002294:	00d73023          	sd	a3,0(a4)
    90002298:	00054783          	lbu	a5,0(a0)
    9000229c:	fc079ce3          	bnez	a5,90002274 <cputstring+0x18>
    900022a0:	00008067          	ret

00000000900022a4 <terminate>:
    900022a4:	fffff717          	auipc	a4,0xfffff
    900022a8:	d5c70713          	addi	a4,a4,-676 # 90001000 <tohost>
    900022ac:	00073783          	ld	a5,0(a4)
    900022b0:	00078a63          	beqz	a5,900022c4 <terminate+0x20>
    900022b4:	fffff797          	auipc	a5,0xfffff
    900022b8:	d807b623          	sd	zero,-628(a5) # 90001040 <fromhost>
    900022bc:	00073783          	ld	a5,0(a4)
    900022c0:	fe079ae3          	bnez	a5,900022b4 <terminate+0x10>
    900022c4:	00a73023          	sd	a0,0(a4)
    900022c8:	0000006f          	j	900022c8 <terminate+0x24>

00000000900022cc <wtf>:
    900022cc:	ff010113          	addi	sp,sp,-16
    900022d0:	34900513          	li	a0,841
    900022d4:	00113423          	sd	ra,8(sp)
    900022d8:	fcdff0ef          	jal	ra,900022a4 <terminate>

00000000900022dc <printhex>:
    900022dc:	fe010113          	addi	sp,sp,-32
    900022e0:	00810613          	addi	a2,sp,8
    900022e4:	01710793          	addi	a5,sp,23
    900022e8:	00900813          	li	a6,9
    900022ec:	0080006f          	j	900022f4 <printhex+0x18>
    900022f0:	00070793          	mv	a5,a4
    900022f4:	00f57693          	andi	a3,a0,15
    900022f8:	00068713          	mv	a4,a3
    900022fc:	03000593          	li	a1,48
    90002300:	00d87463          	bgeu	a6,a3,90002308 <printhex+0x2c>
    90002304:	05700593          	li	a1,87
    90002308:	00b7073b          	addw	a4,a4,a1
    9000230c:	00e78023          	sb	a4,0(a5)
    90002310:	00455513          	srli	a0,a0,0x4
    90002314:	fff78713          	addi	a4,a5,-1
    90002318:	fcf61ce3          	bne	a2,a5,900022f0 <printhex+0x14>
    9000231c:	00814783          	lbu	a5,8(sp)
    90002320:	00010c23          	sb	zero,24(sp)
    90002324:	04078263          	beqz	a5,90002368 <printhex+0x8c>
    90002328:	10100513          	li	a0,257
    9000232c:	00060693          	mv	a3,a2
    90002330:	fffff717          	auipc	a4,0xfffff
    90002334:	cd070713          	addi	a4,a4,-816 # 90001000 <tohost>
    90002338:	03051513          	slli	a0,a0,0x30
    9000233c:	00073583          	ld	a1,0(a4)
    90002340:	00168693          	addi	a3,a3,1
    90002344:	00a7e633          	or	a2,a5,a0
    90002348:	00058a63          	beqz	a1,9000235c <printhex+0x80>
    9000234c:	fffff797          	auipc	a5,0xfffff
    90002350:	ce07ba23          	sd	zero,-780(a5) # 90001040 <fromhost>
    90002354:	00073783          	ld	a5,0(a4)
    90002358:	fe079ae3          	bnez	a5,9000234c <printhex+0x70>
    9000235c:	0006c783          	lbu	a5,0(a3)
    90002360:	00c73023          	sd	a2,0(a4)
    90002364:	fc079ce3          	bnez	a5,9000233c <printhex+0x60>
    90002368:	02010113          	addi	sp,sp,32
    9000236c:	00008067          	ret

0000000090002370 <handle_fault>:
    90002370:	ff010113          	addi	sp,sp,-16
    90002374:	fffff6b7          	lui	a3,0xfffff
    90002378:	00113423          	sd	ra,8(sp)
    9000237c:	00d50733          	add	a4,a0,a3
    90002380:	0003e7b7          	lui	a5,0x3e
    90002384:	14f77863          	bgeu	a4,a5,900024d4 <handle_fault+0x164>
    90002388:	00c55893          	srli	a7,a0,0xc
    9000238c:	60088813          	addi	a6,a7,1536
    90002390:	00003617          	auipc	a2,0x3
    90002394:	c7060613          	addi	a2,a2,-912 # 90005000 <pt>
    90002398:	00381793          	slli	a5,a6,0x3
    9000239c:	00f607b3          	add	a5,a2,a5
    900023a0:	0007b703          	ld	a4,0(a5) # 3e000 <_start-0x8ffc2000>
    900023a4:	00d57533          	and	a0,a0,a3
    900023a8:	0e071063          	bnez	a4,90002488 <handle_fault+0x118>
    900023ac:	00007697          	auipc	a3,0x7
    900023b0:	c5c68693          	addi	a3,a3,-932 # 90009008 <freelist_head>
    900023b4:	0006b703          	ld	a4,0(a3)
    900023b8:	14070263          	beqz	a4,900024fc <handle_fault+0x18c>
    900023bc:	00873783          	ld	a5,8(a4)
    900023c0:	00007597          	auipc	a1,0x7
    900023c4:	c405b583          	ld	a1,-960(a1) # 90009000 <freelist_tail>
    900023c8:	00f6b023          	sd	a5,0(a3)
    900023cc:	0eb78e63          	beq	a5,a1,900024c8 <handle_fault+0x158>
    900023d0:	00073783          	ld	a5,0(a4)
    900023d4:	00381593          	slli	a1,a6,0x3
    900023d8:	00b605b3          	add	a1,a2,a1
    900023dc:	00c7d793          	srli	a5,a5,0xc
    900023e0:	00a79793          	slli	a5,a5,0xa
    900023e4:	0df7e313          	ori	t1,a5,223
    900023e8:	01f7e693          	ori	a3,a5,31
    900023ec:	0065b023          	sd	t1,0(a1)
    900023f0:	12050073          	sfence.vma	a0
    900023f4:	00002797          	auipc	a5,0x2
    900023f8:	c0c78793          	addi	a5,a5,-1012 # 90004000 <user_mapping>
    900023fc:	00489893          	slli	a7,a7,0x4
    90002400:	011788b3          	add	a7,a5,a7
    90002404:	0008b783          	ld	a5,0(a7)
    90002408:	10079463          	bnez	a5,90002510 <handle_fault+0x1a0>
    9000240c:	00073783          	ld	a5,0(a4)
    90002410:	00f8b023          	sd	a5,0(a7)
    90002414:	00873783          	ld	a5,8(a4)
    90002418:	00f8b423          	sd	a5,8(a7)
    9000241c:	000408b7          	lui	a7,0x40
    90002420:	1008a8f3          	csrrs	a7,sstatus,a7
    90002424:	ffe007b7          	lui	a5,0xffe00
    90002428:	00f507b3          	add	a5,a0,a5
    9000242c:	000015b7          	lui	a1,0x1
    90002430:	00050713          	mv	a4,a0
    90002434:	00b785b3          	add	a1,a5,a1
    90002438:	0007bf03          	ld	t5,0(a5) # ffffffffffe00000 <freelist_head+0xffffffff6fdf6ff8>
    9000243c:	0087be83          	ld	t4,8(a5)
    90002440:	0107be03          	ld	t3,16(a5)
    90002444:	0187b303          	ld	t1,24(a5)
    90002448:	01e73023          	sd	t5,0(a4)
    9000244c:	01d73423          	sd	t4,8(a4)
    90002450:	01c73823          	sd	t3,16(a4)
    90002454:	00673c23          	sd	t1,24(a4)
    90002458:	02078793          	addi	a5,a5,32
    9000245c:	02070713          	addi	a4,a4,32
    90002460:	fcb79ce3          	bne	a5,a1,90002438 <handle_fault+0xc8>
    90002464:	10089073          	csrw	sstatus,a7
    90002468:	00381813          	slli	a6,a6,0x3
    9000246c:	01060633          	add	a2,a2,a6
    90002470:	00d63023          	sd	a3,0(a2)
    90002474:	12050073          	sfence.vma	a0
    90002478:	0000100f          	fence.i
    9000247c:	00813083          	ld	ra,8(sp)
    90002480:	01010113          	addi	sp,sp,16
    90002484:	00008067          	ret
    90002488:	04077693          	andi	a3,a4,64
    9000248c:	02068663          	beqz	a3,900024b8 <handle_fault+0x148>
    90002490:	08077693          	andi	a3,a4,128
    90002494:	04069a63          	bnez	a3,900024e8 <handle_fault+0x178>
    90002498:	00f00693          	li	a3,15
    9000249c:	04d59663          	bne	a1,a3,900024e8 <handle_fault+0x178>
    900024a0:	08076713          	ori	a4,a4,128
    900024a4:	00e7b023          	sd	a4,0(a5)
    900024a8:	12050073          	sfence.vma	a0
    900024ac:	00813083          	ld	ra,8(sp)
    900024b0:	01010113          	addi	sp,sp,16
    900024b4:	00008067          	ret
    900024b8:	04076713          	ori	a4,a4,64
    900024bc:	00e7b023          	sd	a4,0(a5)
    900024c0:	12050073          	sfence.vma	a0
    900024c4:	fe9ff06f          	j	900024ac <handle_fault+0x13c>
    900024c8:	00007797          	auipc	a5,0x7
    900024cc:	b207bc23          	sd	zero,-1224(a5) # 90009000 <freelist_tail>
    900024d0:	f01ff06f          	j	900023d0 <handle_fault+0x60>
    900024d4:	00000517          	auipc	a0,0x0
    900024d8:	6fc50513          	addi	a0,a0,1788 # 90002bd0 <pass+0xc>
    900024dc:	d81ff0ef          	jal	ra,9000225c <cputstring>
    900024e0:	00300513          	li	a0,3
    900024e4:	dc1ff0ef          	jal	ra,900022a4 <terminate>
    900024e8:	00000517          	auipc	a0,0x0
    900024ec:	73050513          	addi	a0,a0,1840 # 90002c18 <pass+0x54>
    900024f0:	d6dff0ef          	jal	ra,9000225c <cputstring>
    900024f4:	00300513          	li	a0,3
    900024f8:	dadff0ef          	jal	ra,900022a4 <terminate>
    900024fc:	00000517          	auipc	a0,0x0
    90002500:	76450513          	addi	a0,a0,1892 # 90002c60 <pass+0x9c>
    90002504:	d59ff0ef          	jal	ra,9000225c <cputstring>
    90002508:	00300513          	li	a0,3
    9000250c:	d99ff0ef          	jal	ra,900022a4 <terminate>
    90002510:	00000517          	auipc	a0,0x0
    90002514:	76850513          	addi	a0,a0,1896 # 90002c78 <pass+0xb4>
    90002518:	d45ff0ef          	jal	ra,9000225c <cputstring>
    9000251c:	00300513          	li	a0,3
    90002520:	d85ff0ef          	jal	ra,900022a4 <terminate>

0000000090002524 <handle_trap>:
    90002524:	11853583          	ld	a1,280(a0)
    90002528:	f8010113          	addi	sp,sp,-128
    9000252c:	06813823          	sd	s0,112(sp)
    90002530:	06113c23          	sd	ra,120(sp)
    90002534:	06913423          	sd	s1,104(sp)
    90002538:	07213023          	sd	s2,96(sp)
    9000253c:	05313c23          	sd	s3,88(sp)
    90002540:	05413823          	sd	s4,80(sp)
    90002544:	05513423          	sd	s5,72(sp)
    90002548:	05613023          	sd	s6,64(sp)
    9000254c:	03713c23          	sd	s7,56(sp)
    90002550:	03813823          	sd	s8,48(sp)
    90002554:	03913423          	sd	s9,40(sp)
    90002558:	03a13023          	sd	s10,32(sp)
    9000255c:	01b13c23          	sd	s11,24(sp)
    90002560:	00800793          	li	a5,8
    90002564:	00050413          	mv	s0,a0
    90002568:	0ef58a63          	beq	a1,a5,9000265c <handle_trap+0x138>
    9000256c:	00200793          	li	a5,2
    90002570:	06f58063          	beq	a1,a5,900025d0 <handle_trap+0xac>
    90002574:	ff458793          	addi	a5,a1,-12 # ff4 <_start-0x8ffff00c>
    90002578:	00100713          	li	a4,1
    9000257c:	00f77663          	bgeu	a4,a5,90002588 <handle_trap+0x64>
    90002580:	00f00793          	li	a5,15
    90002584:	1af59263          	bne	a1,a5,90002728 <handle_trap+0x204>
    90002588:	11043503          	ld	a0,272(s0)
    9000258c:	de5ff0ef          	jal	ra,90002370 <handle_fault>
    90002590:	00040513          	mv	a0,s0
    90002594:	07013403          	ld	s0,112(sp)
    90002598:	07813083          	ld	ra,120(sp)
    9000259c:	06813483          	ld	s1,104(sp)
    900025a0:	06013903          	ld	s2,96(sp)
    900025a4:	05813983          	ld	s3,88(sp)
    900025a8:	05013a03          	ld	s4,80(sp)
    900025ac:	04813a83          	ld	s5,72(sp)
    900025b0:	04013b03          	ld	s6,64(sp)
    900025b4:	03813b83          	ld	s7,56(sp)
    900025b8:	03013c03          	ld	s8,48(sp)
    900025bc:	02813c83          	ld	s9,40(sp)
    900025c0:	02013d03          	ld	s10,32(sp)
    900025c4:	01813d83          	ld	s11,24(sp)
    900025c8:	08010113          	addi	sp,sp,128
    900025cc:	af1fd06f          	j	900000bc <pop_tf>
    900025d0:	10853703          	ld	a4,264(a0)
    900025d4:	00377793          	andi	a5,a4,3
    900025d8:	06079863          	bnez	a5,90002648 <handle_trap+0x124>
    900025dc:	008007ef          	jal	a5,900025e4 <handle_trap+0xc0>
    900025e0:	00301073          	fscsr	zero
    900025e4:	00072703          	lw	a4,0(a4)
    900025e8:	0007a783          	lw	a5,0(a5)
    900025ec:	04f70a63          	beq	a4,a5,90002640 <handle_trap+0x11c>
    900025f0:	10100513          	li	a0,257
    900025f4:	04100793          	li	a5,65
    900025f8:	00000697          	auipc	a3,0x0
    900025fc:	6c068693          	addi	a3,a3,1728 # 90002cb8 <pass+0xf4>
    90002600:	fffff717          	auipc	a4,0xfffff
    90002604:	a0070713          	addi	a4,a4,-1536 # 90001000 <tohost>
    90002608:	03051513          	slli	a0,a0,0x30
    9000260c:	00073583          	ld	a1,0(a4)
    90002610:	00168693          	addi	a3,a3,1
    90002614:	00a7e633          	or	a2,a5,a0
    90002618:	00058a63          	beqz	a1,9000262c <handle_trap+0x108>
    9000261c:	fffff797          	auipc	a5,0xfffff
    90002620:	a207b223          	sd	zero,-1500(a5) # 90001040 <fromhost>
    90002624:	00073783          	ld	a5,0(a4)
    90002628:	fe079ae3          	bnez	a5,9000261c <handle_trap+0xf8>
    9000262c:	0006c783          	lbu	a5,0(a3)
    90002630:	00c73023          	sd	a2,0(a4)
    90002634:	fc079ce3          	bnez	a5,9000260c <handle_trap+0xe8>
    90002638:	00300513          	li	a0,3
    9000263c:	c69ff0ef          	jal	ra,900022a4 <terminate>
    90002640:	00100513          	li	a0,1
    90002644:	c61ff0ef          	jal	ra,900022a4 <terminate>
    90002648:	00000517          	auipc	a0,0x0
    9000264c:	71050513          	addi	a0,a0,1808 # 90002d58 <pass+0x194>
    90002650:	c0dff0ef          	jal	ra,9000225c <cputstring>
    90002654:	00300513          	li	a0,3
    90002658:	c4dff0ef          	jal	ra,900022a4 <terminate>
    9000265c:	05052903          	lw	s2,80(a0)
    90002660:	00001c37          	lui	s8,0x1
    90002664:	00002497          	auipc	s1,0x2
    90002668:	99c48493          	addi	s1,s1,-1636 # 90004000 <user_mapping>
    9000266c:	00003b97          	auipc	s7,0x3
    90002670:	994b8b93          	addi	s7,s7,-1644 # 90005000 <pt>
    90002674:	00040b37          	lui	s6,0x40
    90002678:	ffe00ab7          	lui	s5,0xffe00
    9000267c:	00007d97          	auipc	s11,0x7
    90002680:	984d8d93          	addi	s11,s11,-1660 # 90009000 <freelist_tail>
    90002684:	00007a17          	auipc	s4,0x7
    90002688:	984a0a13          	addi	s4,s4,-1660 # 90009008 <freelist_head>
    9000268c:	0003f9b7          	lui	s3,0x3f
    90002690:	0180006f          	j	900026a8 <handle_trap+0x184>
    90002694:	00f73423          	sd	a5,8(a4)
    90002698:	00fdb023          	sd	a5,0(s11)
    9000269c:	000017b7          	lui	a5,0x1
    900026a0:	00fc0c33          	add	s8,s8,a5
    900026a4:	0b3c0e63          	beq	s8,s3,90002760 <handle_trap+0x23c>
    900026a8:	00cc5793          	srli	a5,s8,0xc
    900026ac:	00479413          	slli	s0,a5,0x4
    900026b0:	00848733          	add	a4,s1,s0
    900026b4:	00073703          	ld	a4,0(a4)
    900026b8:	fe0702e3          	beqz	a4,9000269c <handle_trap+0x178>
    900026bc:	60078793          	addi	a5,a5,1536 # 1600 <_start-0x8fffea00>
    900026c0:	00379793          	slli	a5,a5,0x3
    900026c4:	00fb87b3          	add	a5,s7,a5
    900026c8:	0007bc83          	ld	s9,0(a5)
    900026cc:	040cf793          	andi	a5,s9,64
    900026d0:	06078e63          	beqz	a5,9000274c <handle_trap+0x228>
    900026d4:	100b2d73          	csrrs	s10,sstatus,s6
    900026d8:	00001637          	lui	a2,0x1
    900026dc:	015c05b3          	add	a1,s8,s5
    900026e0:	000c0513          	mv	a0,s8
    900026e4:	00b13423          	sd	a1,8(sp)
    900026e8:	a4dff0ef          	jal	ra,90002134 <memcmp>
    900026ec:	00050e63          	beqz	a0,90002708 <handle_trap+0x1e4>
    900026f0:	080cfc93          	andi	s9,s9,128
    900026f4:	00813583          	ld	a1,8(sp)
    900026f8:	040c8063          	beqz	s9,90002738 <handle_trap+0x214>
    900026fc:	00001637          	lui	a2,0x1
    90002700:	000c0513          	mv	a0,s8
    90002704:	8fdff0ef          	jal	ra,90002000 <memcpy>
    90002708:	008487b3          	add	a5,s1,s0
    9000270c:	100d1073          	csrw	sstatus,s10
    90002710:	000db703          	ld	a4,0(s11)
    90002714:	0007b023          	sd	zero,0(a5)
    90002718:	f6071ee3          	bnez	a4,90002694 <handle_trap+0x170>
    9000271c:	00fdb023          	sd	a5,0(s11)
    90002720:	00fa3023          	sd	a5,0(s4)
    90002724:	f79ff06f          	j	9000269c <handle_trap+0x178>
    90002728:	00000517          	auipc	a0,0x0
    9000272c:	65850513          	addi	a0,a0,1624 # 90002d80 <pass+0x1bc>
    90002730:	b2dff0ef          	jal	ra,9000225c <cputstring>
    90002734:	f05ff06f          	j	90002638 <handle_trap+0x114>
    90002738:	00000517          	auipc	a0,0x0
    9000273c:	5e850513          	addi	a0,a0,1512 # 90002d20 <pass+0x15c>
    90002740:	b1dff0ef          	jal	ra,9000225c <cputstring>
    90002744:	00300513          	li	a0,3
    90002748:	b5dff0ef          	jal	ra,900022a4 <terminate>
    9000274c:	00000517          	auipc	a0,0x0
    90002750:	59c50513          	addi	a0,a0,1436 # 90002ce8 <pass+0x124>
    90002754:	b09ff0ef          	jal	ra,9000225c <cputstring>
    90002758:	00300513          	li	a0,3
    9000275c:	b49ff0ef          	jal	ra,900022a4 <terminate>
    90002760:	00090513          	mv	a0,s2
    90002764:	b41ff0ef          	jal	ra,900022a4 <terminate>

0000000090002768 <vm_boot>:
    90002768:	f14027f3          	csrr	a5,mhartid
    9000276c:	18079a63          	bnez	a5,90002900 <vm_boot+0x198>
    90002770:	00005797          	auipc	a5,0x5
    90002774:	89078793          	addi	a5,a5,-1904 # 90007000 <pt+0x2000>
    90002778:	ed010113          	addi	sp,sp,-304
    9000277c:	00c7d793          	srli	a5,a5,0xc
    90002780:	12813023          	sd	s0,288(sp)
    90002784:	00006817          	auipc	a6,0x6
    90002788:	87c80813          	addi	a6,a6,-1924 # 90008000 <pt+0x3000>
    9000278c:	00050413          	mv	s0,a0
    90002790:	00a79793          	slli	a5,a5,0xa
    90002794:	00004517          	auipc	a0,0x4
    90002798:	86c50513          	addi	a0,a0,-1940 # 90006000 <pt+0x1000>
    9000279c:	12113423          	sd	ra,296(sp)
    900027a0:	00c55693          	srli	a3,a0,0xc
    900027a4:	00c85713          	srli	a4,a6,0xc
    900027a8:	0017e793          	ori	a5,a5,1
    900027ac:	00003897          	auipc	a7,0x3
    900027b0:	85488893          	addi	a7,a7,-1964 # 90005000 <pt>
    900027b4:	fff00613          	li	a2,-1
    900027b8:	fef53c23          	sd	a5,-8(a0)
    900027bc:	00a69693          	slli	a3,a3,0xa
    900027c0:	00a71713          	slli	a4,a4,0xa
    900027c4:	200007b7          	lui	a5,0x20000
    900027c8:	0016e693          	ori	a3,a3,1
    900027cc:	00176713          	ori	a4,a4,1
    900027d0:	00c8d593          	srli	a1,a7,0xc
    900027d4:	03f61313          	slli	t1,a2,0x3f
    900027d8:	0cf78793          	addi	a5,a5,207 # 200000cf <_start-0x6fffff31>
    900027dc:	fef83c23          	sd	a5,-8(a6)
    900027e0:	00d8b023          	sd	a3,0(a7)
    900027e4:	00e53023          	sd	a4,0(a0)
    900027e8:	0065e7b3          	or	a5,a1,t1
    900027ec:	18079073          	csrw	satp,a5
    900027f0:	18002773          	csrr	a4,satp
    900027f4:	14e79e63          	bne	a5,a4,90002950 <vm_boot+0x1e8>
    900027f8:	00b65613          	srli	a2,a2,0xb
    900027fc:	01f00793          	li	a5,31
    90002800:	00000297          	auipc	t0,0x0
    90002804:	01428293          	addi	t0,t0,20 # 90002814 <vm_boot+0xac>
    90002808:	305292f3          	csrrw	t0,mtvec,t0
    9000280c:	3b061073          	csrw	pmpaddr0,a2
    90002810:	3a079073          	csrw	pmpcfg0,a5
    90002814:	30529073          	csrw	mtvec,t0
    90002818:	bff00813          	li	a6,-1025
    9000281c:	01581813          	slli	a6,a6,0x15
    90002820:	ffffe797          	auipc	a5,0xffffe
    90002824:	92478793          	addi	a5,a5,-1756 # 90000144 <trap_entry>
    90002828:	010787b3          	add	a5,a5,a6
    9000282c:	10579073          	csrw	stvec,a5
    90002830:	340027f3          	csrr	a5,mscratch
    90002834:	010787b3          	add	a5,a5,a6
    90002838:	14079073          	csrw	sscratch,a5
    9000283c:	0000b7b7          	lui	a5,0xb
    90002840:	1007879b          	addiw	a5,a5,256
    90002844:	30279073          	csrw	medeleg,a5
    90002848:	0001e7b7          	lui	a5,0x1e
    9000284c:	6007879b          	addiw	a5,a5,1536
    90002850:	30079073          	csrw	mstatus,a5
    90002854:	30405073          	csrwi	mie,0
    90002858:	00002717          	auipc	a4,0x2
    9000285c:	b9870713          	addi	a4,a4,-1128 # 900043f0 <freelist_nodes>
    90002860:	3e080793          	addi	a5,a6,992
    90002864:	010706b3          	add	a3,a4,a6
    90002868:	00f707b3          	add	a5,a4,a5
    9000286c:	000808b7          	lui	a7,0x80
    90002870:	00006617          	auipc	a2,0x6
    90002874:	78d63c23          	sd	a3,1944(a2) # 90009008 <freelist_head>
    90002878:	00002317          	auipc	t1,0x2
    9000287c:	f6830313          	addi	t1,t1,-152 # 900047e0 <freelist_nodes+0x3f0>
    90002880:	00006697          	auipc	a3,0x6
    90002884:	78f6b023          	sd	a5,1920(a3) # 90009000 <freelist_tail>
    90002888:	03f88893          	addi	a7,a7,63 # 8003f <_start-0x8ff7ffc1>
    9000288c:	00d00793          	li	a5,13
    90002890:	01080813          	addi	a6,a6,16
    90002894:	0017d613          	srli	a2,a5,0x1
    90002898:	011786b3          	add	a3,a5,a7
    9000289c:	00f647b3          	xor	a5,a2,a5
    900028a0:	010705b3          	add	a1,a4,a6
    900028a4:	00c69693          	slli	a3,a3,0xc
    900028a8:	00579793          	slli	a5,a5,0x5
    900028ac:	00d73023          	sd	a3,0(a4)
    900028b0:	00b73423          	sd	a1,8(a4)
    900028b4:	0207f793          	andi	a5,a5,32
    900028b8:	01070713          	addi	a4,a4,16
    900028bc:	00f667b3          	or	a5,a2,a5
    900028c0:	fce31ae3          	bne	t1,a4,90002894 <vm_boot+0x12c>
    900028c4:	12000613          	li	a2,288
    900028c8:	00000593          	li	a1,0
    900028cc:	00010513          	mv	a0,sp
    900028d0:	00002797          	auipc	a5,0x2
    900028d4:	f007b423          	sd	zero,-248(a5) # 900047d8 <freelist_nodes+0x3e8>
    900028d8:	f84ff0ef          	jal	ra,9000205c <memset>
    900028dc:	800007b7          	lui	a5,0x80000
    900028e0:	00f40433          	add	s0,s0,a5
    900028e4:	00010513          	mv	a0,sp
    900028e8:	10813423          	sd	s0,264(sp)
    900028ec:	fd0fd0ef          	jal	ra,900000bc <pop_tf>
    900028f0:	12813083          	ld	ra,296(sp)
    900028f4:	12013403          	ld	s0,288(sp)
    900028f8:	13010113          	addi	sp,sp,304
    900028fc:	00008067          	ret
    90002900:	00100713          	li	a4,1
    90002904:	04c8f7b7          	lui	a5,0x4c8f
    90002908:	00080637          	lui	a2,0x80
    9000290c:	8a478793          	addi	a5,a5,-1884 # 4c8e8a4 <_start-0x8b37175c>
    90002910:	ffc60613          	addi	a2,a2,-4 # 7fffc <_start-0x8ff80004>
    90002914:	01f71513          	slli	a0,a4,0x1f
    90002918:	03e71693          	slli	a3,a4,0x3e
    9000291c:	01c0006f          	j	90002938 <vm_boot+0x1d0>
    90002920:	0007202f          	amoadd.w	zero,zero,(a4)
    90002924:	0017d713          	srli	a4,a5,0x1
    90002928:	00e7c7b3          	xor	a5,a5,a4
    9000292c:	03e79793          	slli	a5,a5,0x3e
    90002930:	00d7f7b3          	and	a5,a5,a3
    90002934:	00e7e7b3          	or	a5,a5,a4
    90002938:	00c7f733          	and	a4,a5,a2
    9000293c:	0017f593          	andi	a1,a5,1
    90002940:	00a70733          	add	a4,a4,a0
    90002944:	fc059ee3          	bnez	a1,90002920 <vm_boot+0x1b8>
    90002948:	00072003          	lw	zero,0(a4)
    9000294c:	fd9ff06f          	j	90002924 <vm_boot+0x1bc>
    90002950:	00000517          	auipc	a0,0x0
    90002954:	46050513          	addi	a0,a0,1120 # 90002db0 <pass+0x1ec>
    90002958:	905ff0ef          	jal	ra,9000225c <cputstring>
    9000295c:	00300513          	li	a0,3
    90002960:	945ff0ef          	jal	ra,900022a4 <terminate>

0000000090002964 <extra_boot>:
    90002964:	00008067          	ret

0000000090002968 <userstart>:
    90002968:	00000097          	auipc	ra,0x0
    9000296c:	69808093          	addi	ra,ra,1688 # 90003000 <begin_signature>
    90002970:	0000c703          	lbu	a4,0(ra)
    90002974:	0ff00393          	li	t2,255
    90002978:	00200193          	li	gp,2
    9000297c:	22771c63          	bne	a4,t2,90002bb4 <fail>

0000000090002980 <test_3>:
    90002980:	00000097          	auipc	ra,0x0
    90002984:	68008093          	addi	ra,ra,1664 # 90003000 <begin_signature>
    90002988:	0010c703          	lbu	a4,1(ra)
    9000298c:	00000393          	li	t2,0
    90002990:	00300193          	li	gp,3
    90002994:	22771063          	bne	a4,t2,90002bb4 <fail>

0000000090002998 <test_4>:
    90002998:	00000097          	auipc	ra,0x0
    9000299c:	66808093          	addi	ra,ra,1640 # 90003000 <begin_signature>
    900029a0:	0020c703          	lbu	a4,2(ra)
    900029a4:	0f000393          	li	t2,240
    900029a8:	00400193          	li	gp,4
    900029ac:	20771463          	bne	a4,t2,90002bb4 <fail>

00000000900029b0 <test_5>:
    900029b0:	00000097          	auipc	ra,0x0
    900029b4:	65008093          	addi	ra,ra,1616 # 90003000 <begin_signature>
    900029b8:	0030c703          	lbu	a4,3(ra)
    900029bc:	00f00393          	li	t2,15
    900029c0:	00500193          	li	gp,5
    900029c4:	1e771863          	bne	a4,t2,90002bb4 <fail>

00000000900029c8 <test_6>:
    900029c8:	00000097          	auipc	ra,0x0
    900029cc:	63b08093          	addi	ra,ra,1595 # 90003003 <tdat4>
    900029d0:	ffd0c703          	lbu	a4,-3(ra)
    900029d4:	0ff00393          	li	t2,255
    900029d8:	00600193          	li	gp,6
    900029dc:	1c771c63          	bne	a4,t2,90002bb4 <fail>

00000000900029e0 <test_7>:
    900029e0:	00000097          	auipc	ra,0x0
    900029e4:	62308093          	addi	ra,ra,1571 # 90003003 <tdat4>
    900029e8:	ffe0c703          	lbu	a4,-2(ra)
    900029ec:	00000393          	li	t2,0
    900029f0:	00700193          	li	gp,7
    900029f4:	1c771063          	bne	a4,t2,90002bb4 <fail>

00000000900029f8 <test_8>:
    900029f8:	00000097          	auipc	ra,0x0
    900029fc:	60b08093          	addi	ra,ra,1547 # 90003003 <tdat4>
    90002a00:	fff0c703          	lbu	a4,-1(ra)
    90002a04:	0f000393          	li	t2,240
    90002a08:	00800193          	li	gp,8
    90002a0c:	1a771463          	bne	a4,t2,90002bb4 <fail>

0000000090002a10 <test_9>:
    90002a10:	00000097          	auipc	ra,0x0
    90002a14:	5f308093          	addi	ra,ra,1523 # 90003003 <tdat4>
    90002a18:	0000c703          	lbu	a4,0(ra)
    90002a1c:	00f00393          	li	t2,15
    90002a20:	00900193          	li	gp,9
    90002a24:	18771863          	bne	a4,t2,90002bb4 <fail>

0000000090002a28 <test_10>:
    90002a28:	00000097          	auipc	ra,0x0
    90002a2c:	5d808093          	addi	ra,ra,1496 # 90003000 <begin_signature>
    90002a30:	fe008093          	addi	ra,ra,-32
    90002a34:	0200c283          	lbu	t0,32(ra)
    90002a38:	0ff00393          	li	t2,255
    90002a3c:	00a00193          	li	gp,10
    90002a40:	16729a63          	bne	t0,t2,90002bb4 <fail>

0000000090002a44 <test_11>:
    90002a44:	00000097          	auipc	ra,0x0
    90002a48:	5bc08093          	addi	ra,ra,1468 # 90003000 <begin_signature>
    90002a4c:	ffa08093          	addi	ra,ra,-6
    90002a50:	0070c283          	lbu	t0,7(ra)
    90002a54:	00000393          	li	t2,0
    90002a58:	00b00193          	li	gp,11
    90002a5c:	14729c63          	bne	t0,t2,90002bb4 <fail>

0000000090002a60 <test_12>:
    90002a60:	00c00193          	li	gp,12
    90002a64:	00000213          	li	tp,0
    90002a68:	00000097          	auipc	ra,0x0
    90002a6c:	59908093          	addi	ra,ra,1433 # 90003001 <tdat2>
    90002a70:	0010c703          	lbu	a4,1(ra)
    90002a74:	00070313          	mv	t1,a4
    90002a78:	0f000393          	li	t2,240
    90002a7c:	12731c63          	bne	t1,t2,90002bb4 <fail>
    90002a80:	00120213          	addi	tp,tp,1 # 1 <_start-0x8fffffff>
    90002a84:	00200293          	li	t0,2
    90002a88:	fe5210e3          	bne	tp,t0,90002a68 <test_12+0x8>

0000000090002a8c <test_13>:
    90002a8c:	00d00193          	li	gp,13
    90002a90:	00000213          	li	tp,0
    90002a94:	00000097          	auipc	ra,0x0
    90002a98:	56e08093          	addi	ra,ra,1390 # 90003002 <tdat3>
    90002a9c:	0010c703          	lbu	a4,1(ra)
    90002aa0:	00000013          	nop
    90002aa4:	00070313          	mv	t1,a4
    90002aa8:	00f00393          	li	t2,15
    90002aac:	10731463          	bne	t1,t2,90002bb4 <fail>
    90002ab0:	00120213          	addi	tp,tp,1 # 1 <_start-0x8fffffff>
    90002ab4:	00200293          	li	t0,2
    90002ab8:	fc521ee3          	bne	tp,t0,90002a94 <test_13+0x8>

0000000090002abc <test_14>:
    90002abc:	00e00193          	li	gp,14
    90002ac0:	00000213          	li	tp,0
    90002ac4:	00000097          	auipc	ra,0x0
    90002ac8:	53c08093          	addi	ra,ra,1340 # 90003000 <begin_signature>
    90002acc:	0010c703          	lbu	a4,1(ra)
    90002ad0:	00000013          	nop
    90002ad4:	00000013          	nop
    90002ad8:	00070313          	mv	t1,a4
    90002adc:	00000393          	li	t2,0
    90002ae0:	0c731a63          	bne	t1,t2,90002bb4 <fail>
    90002ae4:	00120213          	addi	tp,tp,1 # 1 <_start-0x8fffffff>
    90002ae8:	00200293          	li	t0,2
    90002aec:	fc521ce3          	bne	tp,t0,90002ac4 <test_14+0x8>

0000000090002af0 <test_15>:
    90002af0:	00f00193          	li	gp,15
    90002af4:	00000213          	li	tp,0
    90002af8:	00000097          	auipc	ra,0x0
    90002afc:	50908093          	addi	ra,ra,1289 # 90003001 <tdat2>
    90002b00:	0010c703          	lbu	a4,1(ra)
    90002b04:	0f000393          	li	t2,240
    90002b08:	0a771663          	bne	a4,t2,90002bb4 <fail>
    90002b0c:	00120213          	addi	tp,tp,1 # 1 <_start-0x8fffffff>
    90002b10:	00200293          	li	t0,2
    90002b14:	fe5212e3          	bne	tp,t0,90002af8 <test_15+0x8>

0000000090002b18 <test_16>:
    90002b18:	01000193          	li	gp,16
    90002b1c:	00000213          	li	tp,0
    90002b20:	00000097          	auipc	ra,0x0
    90002b24:	4e208093          	addi	ra,ra,1250 # 90003002 <tdat3>
    90002b28:	00000013          	nop
    90002b2c:	0010c703          	lbu	a4,1(ra)
    90002b30:	00f00393          	li	t2,15
    90002b34:	08771063          	bne	a4,t2,90002bb4 <fail>
    90002b38:	00120213          	addi	tp,tp,1 # 1 <_start-0x8fffffff>
    90002b3c:	00200293          	li	t0,2
    90002b40:	fe5210e3          	bne	tp,t0,90002b20 <test_16+0x8>

0000000090002b44 <test_17>:
    90002b44:	01100193          	li	gp,17
    90002b48:	00000213          	li	tp,0
    90002b4c:	00000097          	auipc	ra,0x0
    90002b50:	4b408093          	addi	ra,ra,1204 # 90003000 <begin_signature>
    90002b54:	00000013          	nop
    90002b58:	00000013          	nop
    90002b5c:	0010c703          	lbu	a4,1(ra)
    90002b60:	00000393          	li	t2,0
    90002b64:	04771863          	bne	a4,t2,90002bb4 <fail>
    90002b68:	00120213          	addi	tp,tp,1 # 1 <_start-0x8fffffff>
    90002b6c:	00200293          	li	t0,2
    90002b70:	fc521ee3          	bne	tp,t0,90002b4c <test_17+0x8>

0000000090002b74 <test_18>:
    90002b74:	00000297          	auipc	t0,0x0
    90002b78:	48c28293          	addi	t0,t0,1164 # 90003000 <begin_signature>
    90002b7c:	0002c103          	lbu	sp,0(t0)
    90002b80:	00200113          	li	sp,2
    90002b84:	00200393          	li	t2,2
    90002b88:	01200193          	li	gp,18
    90002b8c:	02711463          	bne	sp,t2,90002bb4 <fail>

0000000090002b90 <test_19>:
    90002b90:	00000297          	auipc	t0,0x0
    90002b94:	47028293          	addi	t0,t0,1136 # 90003000 <begin_signature>
    90002b98:	0002c103          	lbu	sp,0(t0)
    90002b9c:	00000013          	nop
    90002ba0:	00200113          	li	sp,2
    90002ba4:	00200393          	li	t2,2
    90002ba8:	01300193          	li	gp,19
    90002bac:	00711463          	bne	sp,t2,90002bb4 <fail>
    90002bb0:	00301a63          	bne	zero,gp,90002bc4 <pass>

0000000090002bb4 <fail>:
    90002bb4:	00119513          	slli	a0,gp,0x1
    90002bb8:	00050063          	beqz	a0,90002bb8 <fail+0x4>
    90002bbc:	00156513          	ori	a0,a0,1
    90002bc0:	00000073          	ecall

0000000090002bc4 <pass>:
    90002bc4:	00100513          	li	a0,1
    90002bc8:	00000073          	ecall
    90002bcc:	c0001073          	unimp
