
rv64uc-p-rvc:     file format elf64-littleriscv


Disassembly of section .text.init:

0000000090000000 <_start>:
    90000000:	0480006f          	j	90000048 <reset_vector>

0000000090000004 <trap_vector>:
    90000004:	34202f73          	csrr	t5,mcause
    90000008:	00800f93          	li	t6,8
    9000000c:	03ff0863          	beq	t5,t6,9000003c <write_tohost>
    90000010:	00900f93          	li	t6,9
    90000014:	03ff0463          	beq	t5,t6,9000003c <write_tohost>
    90000018:	00b00f93          	li	t6,11
    9000001c:	03ff0063          	beq	t5,t6,9000003c <write_tohost>
    90000020:	00000f13          	li	t5,0
    90000024:	000f0463          	beqz	t5,9000002c <trap_vector+0x28>
    90000028:	000f0067          	jr	t5
    9000002c:	34202f73          	csrr	t5,mcause
    90000030:	000f5463          	bgez	t5,90000038 <handle_exception>
    90000034:	0040006f          	j	90000038 <handle_exception>

0000000090000038 <handle_exception>:
    90000038:	5391e193          	ori	gp,gp,1337

000000009000003c <write_tohost>:
    9000003c:	00003f17          	auipc	t5,0x3
    90000040:	fc3f2223          	sw	gp,-60(t5) # 90003000 <tohost>
    90000044:	ff9ff06f          	j	9000003c <write_tohost>

0000000090000048 <reset_vector>:
    90000048:	00000093          	li	ra,0
    9000004c:	00000113          	li	sp,0
    90000050:	00000193          	li	gp,0
    90000054:	00000213          	li	tp,0
    90000058:	00000293          	li	t0,0
    9000005c:	00000313          	li	t1,0
    90000060:	00000393          	li	t2,0
    90000064:	00000413          	li	s0,0
    90000068:	00000493          	li	s1,0
    9000006c:	00000513          	li	a0,0
    90000070:	00000593          	li	a1,0
    90000074:	00000613          	li	a2,0
    90000078:	00000693          	li	a3,0
    9000007c:	00000713          	li	a4,0
    90000080:	00000793          	li	a5,0
    90000084:	00000813          	li	a6,0
    90000088:	00000893          	li	a7,0
    9000008c:	00000913          	li	s2,0
    90000090:	00000993          	li	s3,0
    90000094:	00000a13          	li	s4,0
    90000098:	00000a93          	li	s5,0
    9000009c:	00000b13          	li	s6,0
    900000a0:	00000b93          	li	s7,0
    900000a4:	00000c13          	li	s8,0
    900000a8:	00000c93          	li	s9,0
    900000ac:	00000d13          	li	s10,0
    900000b0:	00000d93          	li	s11,0
    900000b4:	00000e13          	li	t3,0
    900000b8:	00000e93          	li	t4,0
    900000bc:	00000f13          	li	t5,0
    900000c0:	00000f93          	li	t6,0
    900000c4:	f1402573          	csrr	a0,mhartid
    900000c8:	00051063          	bnez	a0,900000c8 <reset_vector+0x80>
    900000cc:	00000297          	auipc	t0,0x0
    900000d0:	01028293          	addi	t0,t0,16 # 900000dc <reset_vector+0x94>
    900000d4:	30529073          	csrw	mtvec,t0
    900000d8:	18005073          	csrwi	satp,0
    900000dc:	00000297          	auipc	t0,0x0
    900000e0:	02428293          	addi	t0,t0,36 # 90000100 <reset_vector+0xb8>
    900000e4:	30529073          	csrw	mtvec,t0
    900000e8:	0010029b          	addiw	t0,zero,1
    900000ec:	03529293          	slli	t0,t0,0x35
    900000f0:	fff28293          	addi	t0,t0,-1
    900000f4:	3b029073          	csrw	pmpaddr0,t0
    900000f8:	01f00293          	li	t0,31
    900000fc:	3a029073          	csrw	pmpcfg0,t0
    90000100:	30405073          	csrwi	mie,0
    90000104:	00000297          	auipc	t0,0x0
    90000108:	01428293          	addi	t0,t0,20 # 90000118 <reset_vector+0xd0>
    9000010c:	30529073          	csrw	mtvec,t0
    90000110:	30205073          	csrwi	medeleg,0
    90000114:	30305073          	csrwi	mideleg,0
    90000118:	00000193          	li	gp,0
    9000011c:	00000297          	auipc	t0,0x0
    90000120:	ee828293          	addi	t0,t0,-280 # 90000004 <trap_vector>
    90000124:	30529073          	csrw	mtvec,t0
    90000128:	00100513          	li	a0,1
    9000012c:	01f51513          	slli	a0,a0,0x1f
    90000130:	00055c63          	bgez	a0,90000148 <reset_vector+0x100>
    90000134:	0ff0000f          	fence
    90000138:	00100193          	li	gp,1
    9000013c:	05d00893          	li	a7,93
    90000140:	00000513          	li	a0,0
    90000144:	00000073          	ecall
    90000148:	00000293          	li	t0,0
    9000014c:	00028a63          	beqz	t0,90000160 <reset_vector+0x118>
    90000150:	10529073          	csrw	stvec,t0
    90000154:	0000b2b7          	lui	t0,0xb
    90000158:	1092829b          	addiw	t0,t0,265
    9000015c:	30229073          	csrw	medeleg,t0
    90000160:	30005073          	csrwi	mstatus,0
    90000164:	00000297          	auipc	t0,0x0
    90000168:	01428293          	addi	t0,t0,20 # 90000178 <reset_vector+0x130>
    9000016c:	34129073          	csrw	mepc,t0
    90000170:	f1402573          	csrr	a0,mhartid
    90000174:	30200073          	mret
    90000178:	00200193          	li	gp,2
    9000017c:	29a00593          	li	a1,666

0000000090000180 <test_2>:
    90000180:	67f0106f          	j	90001ffe <data+0x1e76>
    90000184:	00000013          	nop

0000000090000188 <data>:
    90000188:	3210                	fld	fa2,32(a2)
    9000018a:	7654                	ld	a3,168(a2)
    9000018c:	ba98                	fsd	fa4,48(a3)
    9000018e:	fedc                	sd	a5,184(a3)
    90000190:	3210                	fld	fa2,32(a2)
    90000192:	7654                	ld	a3,168(a2)
    90000194:	ba98                	fsd	fa4,48(a3)
    90000196:	fedc                	sd	a5,184(a3)
    90000198:	00000013          	nop
    9000019c:	00000013          	nop
    900001a0:	00000013          	nop
    900001a4:	00000013          	nop
    900001a8:	00000013          	nop
    900001ac:	00000013          	nop
    900001b0:	00000013          	nop
    900001b4:	00000013          	nop
    900001b8:	00000013          	nop
    900001bc:	00000013          	nop
    900001c0:	00000013          	nop
    900001c4:	00000013          	nop
    900001c8:	00000013          	nop
    900001cc:	00000013          	nop
    900001d0:	00000013          	nop
    900001d4:	00000013          	nop
    900001d8:	00000013          	nop
    900001dc:	00000013          	nop
    900001e0:	00000013          	nop
    900001e4:	00000013          	nop
    900001e8:	00000013          	nop
    900001ec:	00000013          	nop
    900001f0:	00000013          	nop
    900001f4:	00000013          	nop
    900001f8:	00000013          	nop
    900001fc:	00000013          	nop
    90000200:	00000013          	nop
    90000204:	00000013          	nop
    90000208:	00000013          	nop
    9000020c:	00000013          	nop
    90000210:	00000013          	nop
    90000214:	00000013          	nop
    90000218:	00000013          	nop
    9000021c:	00000013          	nop
    90000220:	00000013          	nop
    90000224:	00000013          	nop
    90000228:	00000013          	nop
    9000022c:	00000013          	nop
    90000230:	00000013          	nop
    90000234:	00000013          	nop
    90000238:	00000013          	nop
    9000023c:	00000013          	nop
    90000240:	00000013          	nop
    90000244:	00000013          	nop
    90000248:	00000013          	nop
    9000024c:	00000013          	nop
    90000250:	00000013          	nop
    90000254:	00000013          	nop
    90000258:	00000013          	nop
    9000025c:	00000013          	nop
    90000260:	00000013          	nop
    90000264:	00000013          	nop
    90000268:	00000013          	nop
    9000026c:	00000013          	nop
    90000270:	00000013          	nop
    90000274:	00000013          	nop
    90000278:	00000013          	nop
    9000027c:	00000013          	nop
    90000280:	00000013          	nop
    90000284:	00000013          	nop
    90000288:	00000013          	nop
    9000028c:	00000013          	nop
    90000290:	00000013          	nop
    90000294:	00000013          	nop
    90000298:	00000013          	nop
    9000029c:	00000013          	nop
    900002a0:	00000013          	nop
    900002a4:	00000013          	nop
    900002a8:	00000013          	nop
    900002ac:	00000013          	nop
    900002b0:	00000013          	nop
    900002b4:	00000013          	nop
    900002b8:	00000013          	nop
    900002bc:	00000013          	nop
    900002c0:	00000013          	nop
    900002c4:	00000013          	nop
    900002c8:	00000013          	nop
    900002cc:	00000013          	nop
    900002d0:	00000013          	nop
    900002d4:	00000013          	nop
    900002d8:	00000013          	nop
    900002dc:	00000013          	nop
    900002e0:	00000013          	nop
    900002e4:	00000013          	nop
    900002e8:	00000013          	nop
    900002ec:	00000013          	nop
    900002f0:	00000013          	nop
    900002f4:	00000013          	nop
    900002f8:	00000013          	nop
    900002fc:	00000013          	nop
    90000300:	00000013          	nop
    90000304:	00000013          	nop
    90000308:	00000013          	nop
    9000030c:	00000013          	nop
    90000310:	00000013          	nop
    90000314:	00000013          	nop
    90000318:	00000013          	nop
    9000031c:	00000013          	nop
    90000320:	00000013          	nop
    90000324:	00000013          	nop
    90000328:	00000013          	nop
    9000032c:	00000013          	nop
    90000330:	00000013          	nop
    90000334:	00000013          	nop
    90000338:	00000013          	nop
    9000033c:	00000013          	nop
    90000340:	00000013          	nop
    90000344:	00000013          	nop
    90000348:	00000013          	nop
    9000034c:	00000013          	nop
    90000350:	00000013          	nop
    90000354:	00000013          	nop
    90000358:	00000013          	nop
    9000035c:	00000013          	nop
    90000360:	00000013          	nop
    90000364:	00000013          	nop
    90000368:	00000013          	nop
    9000036c:	00000013          	nop
    90000370:	00000013          	nop
    90000374:	00000013          	nop
    90000378:	00000013          	nop
    9000037c:	00000013          	nop
    90000380:	00000013          	nop
    90000384:	00000013          	nop
    90000388:	00000013          	nop
    9000038c:	00000013          	nop
    90000390:	00000013          	nop
    90000394:	00000013          	nop
    90000398:	00000013          	nop
    9000039c:	00000013          	nop
    900003a0:	00000013          	nop
    900003a4:	00000013          	nop
    900003a8:	00000013          	nop
    900003ac:	00000013          	nop
    900003b0:	00000013          	nop
    900003b4:	00000013          	nop
    900003b8:	00000013          	nop
    900003bc:	00000013          	nop
    900003c0:	00000013          	nop
    900003c4:	00000013          	nop
    900003c8:	00000013          	nop
    900003cc:	00000013          	nop
    900003d0:	00000013          	nop
    900003d4:	00000013          	nop
    900003d8:	00000013          	nop
    900003dc:	00000013          	nop
    900003e0:	00000013          	nop
    900003e4:	00000013          	nop
    900003e8:	00000013          	nop
    900003ec:	00000013          	nop
    900003f0:	00000013          	nop
    900003f4:	00000013          	nop
    900003f8:	00000013          	nop
    900003fc:	00000013          	nop
    90000400:	00000013          	nop
    90000404:	00000013          	nop
    90000408:	00000013          	nop
    9000040c:	00000013          	nop
    90000410:	00000013          	nop
    90000414:	00000013          	nop
    90000418:	00000013          	nop
    9000041c:	00000013          	nop
    90000420:	00000013          	nop
    90000424:	00000013          	nop
    90000428:	00000013          	nop
    9000042c:	00000013          	nop
    90000430:	00000013          	nop
    90000434:	00000013          	nop
    90000438:	00000013          	nop
    9000043c:	00000013          	nop
    90000440:	00000013          	nop
    90000444:	00000013          	nop
    90000448:	00000013          	nop
    9000044c:	00000013          	nop
    90000450:	00000013          	nop
    90000454:	00000013          	nop
    90000458:	00000013          	nop
    9000045c:	00000013          	nop
    90000460:	00000013          	nop
    90000464:	00000013          	nop
    90000468:	00000013          	nop
    9000046c:	00000013          	nop
    90000470:	00000013          	nop
    90000474:	00000013          	nop
    90000478:	00000013          	nop
    9000047c:	00000013          	nop
    90000480:	00000013          	nop
    90000484:	00000013          	nop
    90000488:	00000013          	nop
    9000048c:	00000013          	nop
    90000490:	00000013          	nop
    90000494:	00000013          	nop
    90000498:	00000013          	nop
    9000049c:	00000013          	nop
    900004a0:	00000013          	nop
    900004a4:	00000013          	nop
    900004a8:	00000013          	nop
    900004ac:	00000013          	nop
    900004b0:	00000013          	nop
    900004b4:	00000013          	nop
    900004b8:	00000013          	nop
    900004bc:	00000013          	nop
    900004c0:	00000013          	nop
    900004c4:	00000013          	nop
    900004c8:	00000013          	nop
    900004cc:	00000013          	nop
    900004d0:	00000013          	nop
    900004d4:	00000013          	nop
    900004d8:	00000013          	nop
    900004dc:	00000013          	nop
    900004e0:	00000013          	nop
    900004e4:	00000013          	nop
    900004e8:	00000013          	nop
    900004ec:	00000013          	nop
    900004f0:	00000013          	nop
    900004f4:	00000013          	nop
    900004f8:	00000013          	nop
    900004fc:	00000013          	nop
    90000500:	00000013          	nop
    90000504:	00000013          	nop
    90000508:	00000013          	nop
    9000050c:	00000013          	nop
    90000510:	00000013          	nop
    90000514:	00000013          	nop
    90000518:	00000013          	nop
    9000051c:	00000013          	nop
    90000520:	00000013          	nop
    90000524:	00000013          	nop
    90000528:	00000013          	nop
    9000052c:	00000013          	nop
    90000530:	00000013          	nop
    90000534:	00000013          	nop
    90000538:	00000013          	nop
    9000053c:	00000013          	nop
    90000540:	00000013          	nop
    90000544:	00000013          	nop
    90000548:	00000013          	nop
    9000054c:	00000013          	nop
    90000550:	00000013          	nop
    90000554:	00000013          	nop
    90000558:	00000013          	nop
    9000055c:	00000013          	nop
    90000560:	00000013          	nop
    90000564:	00000013          	nop
    90000568:	00000013          	nop
    9000056c:	00000013          	nop
    90000570:	00000013          	nop
    90000574:	00000013          	nop
    90000578:	00000013          	nop
    9000057c:	00000013          	nop
    90000580:	00000013          	nop
    90000584:	00000013          	nop
    90000588:	00000013          	nop
    9000058c:	00000013          	nop
    90000590:	00000013          	nop
    90000594:	00000013          	nop
    90000598:	00000013          	nop
    9000059c:	00000013          	nop
    900005a0:	00000013          	nop
    900005a4:	00000013          	nop
    900005a8:	00000013          	nop
    900005ac:	00000013          	nop
    900005b0:	00000013          	nop
    900005b4:	00000013          	nop
    900005b8:	00000013          	nop
    900005bc:	00000013          	nop
    900005c0:	00000013          	nop
    900005c4:	00000013          	nop
    900005c8:	00000013          	nop
    900005cc:	00000013          	nop
    900005d0:	00000013          	nop
    900005d4:	00000013          	nop
    900005d8:	00000013          	nop
    900005dc:	00000013          	nop
    900005e0:	00000013          	nop
    900005e4:	00000013          	nop
    900005e8:	00000013          	nop
    900005ec:	00000013          	nop
    900005f0:	00000013          	nop
    900005f4:	00000013          	nop
    900005f8:	00000013          	nop
    900005fc:	00000013          	nop
    90000600:	00000013          	nop
    90000604:	00000013          	nop
    90000608:	00000013          	nop
    9000060c:	00000013          	nop
    90000610:	00000013          	nop
    90000614:	00000013          	nop
    90000618:	00000013          	nop
    9000061c:	00000013          	nop
    90000620:	00000013          	nop
    90000624:	00000013          	nop
    90000628:	00000013          	nop
    9000062c:	00000013          	nop
    90000630:	00000013          	nop
    90000634:	00000013          	nop
    90000638:	00000013          	nop
    9000063c:	00000013          	nop
    90000640:	00000013          	nop
    90000644:	00000013          	nop
    90000648:	00000013          	nop
    9000064c:	00000013          	nop
    90000650:	00000013          	nop
    90000654:	00000013          	nop
    90000658:	00000013          	nop
    9000065c:	00000013          	nop
    90000660:	00000013          	nop
    90000664:	00000013          	nop
    90000668:	00000013          	nop
    9000066c:	00000013          	nop
    90000670:	00000013          	nop
    90000674:	00000013          	nop
    90000678:	00000013          	nop
    9000067c:	00000013          	nop
    90000680:	00000013          	nop
    90000684:	00000013          	nop
    90000688:	00000013          	nop
    9000068c:	00000013          	nop
    90000690:	00000013          	nop
    90000694:	00000013          	nop
    90000698:	00000013          	nop
    9000069c:	00000013          	nop
    900006a0:	00000013          	nop
    900006a4:	00000013          	nop
    900006a8:	00000013          	nop
    900006ac:	00000013          	nop
    900006b0:	00000013          	nop
    900006b4:	00000013          	nop
    900006b8:	00000013          	nop
    900006bc:	00000013          	nop
    900006c0:	00000013          	nop
    900006c4:	00000013          	nop
    900006c8:	00000013          	nop
    900006cc:	00000013          	nop
    900006d0:	00000013          	nop
    900006d4:	00000013          	nop
    900006d8:	00000013          	nop
    900006dc:	00000013          	nop
    900006e0:	00000013          	nop
    900006e4:	00000013          	nop
    900006e8:	00000013          	nop
    900006ec:	00000013          	nop
    900006f0:	00000013          	nop
    900006f4:	00000013          	nop
    900006f8:	00000013          	nop
    900006fc:	00000013          	nop
    90000700:	00000013          	nop
    90000704:	00000013          	nop
    90000708:	00000013          	nop
    9000070c:	00000013          	nop
    90000710:	00000013          	nop
    90000714:	00000013          	nop
    90000718:	00000013          	nop
    9000071c:	00000013          	nop
    90000720:	00000013          	nop
    90000724:	00000013          	nop
    90000728:	00000013          	nop
    9000072c:	00000013          	nop
    90000730:	00000013          	nop
    90000734:	00000013          	nop
    90000738:	00000013          	nop
    9000073c:	00000013          	nop
    90000740:	00000013          	nop
    90000744:	00000013          	nop
    90000748:	00000013          	nop
    9000074c:	00000013          	nop
    90000750:	00000013          	nop
    90000754:	00000013          	nop
    90000758:	00000013          	nop
    9000075c:	00000013          	nop
    90000760:	00000013          	nop
    90000764:	00000013          	nop
    90000768:	00000013          	nop
    9000076c:	00000013          	nop
    90000770:	00000013          	nop
    90000774:	00000013          	nop
    90000778:	00000013          	nop
    9000077c:	00000013          	nop
    90000780:	00000013          	nop
    90000784:	00000013          	nop
    90000788:	00000013          	nop
    9000078c:	00000013          	nop
    90000790:	00000013          	nop
    90000794:	00000013          	nop
    90000798:	00000013          	nop
    9000079c:	00000013          	nop
    900007a0:	00000013          	nop
    900007a4:	00000013          	nop
    900007a8:	00000013          	nop
    900007ac:	00000013          	nop
    900007b0:	00000013          	nop
    900007b4:	00000013          	nop
    900007b8:	00000013          	nop
    900007bc:	00000013          	nop
    900007c0:	00000013          	nop
    900007c4:	00000013          	nop
    900007c8:	00000013          	nop
    900007cc:	00000013          	nop
    900007d0:	00000013          	nop
    900007d4:	00000013          	nop
    900007d8:	00000013          	nop
    900007dc:	00000013          	nop
    900007e0:	00000013          	nop
    900007e4:	00000013          	nop
    900007e8:	00000013          	nop
    900007ec:	00000013          	nop
    900007f0:	00000013          	nop
    900007f4:	00000013          	nop
    900007f8:	00000013          	nop
    900007fc:	00000013          	nop
    90000800:	00000013          	nop
    90000804:	00000013          	nop
    90000808:	00000013          	nop
    9000080c:	00000013          	nop
    90000810:	00000013          	nop
    90000814:	00000013          	nop
    90000818:	00000013          	nop
    9000081c:	00000013          	nop
    90000820:	00000013          	nop
    90000824:	00000013          	nop
    90000828:	00000013          	nop
    9000082c:	00000013          	nop
    90000830:	00000013          	nop
    90000834:	00000013          	nop
    90000838:	00000013          	nop
    9000083c:	00000013          	nop
    90000840:	00000013          	nop
    90000844:	00000013          	nop
    90000848:	00000013          	nop
    9000084c:	00000013          	nop
    90000850:	00000013          	nop
    90000854:	00000013          	nop
    90000858:	00000013          	nop
    9000085c:	00000013          	nop
    90000860:	00000013          	nop
    90000864:	00000013          	nop
    90000868:	00000013          	nop
    9000086c:	00000013          	nop
    90000870:	00000013          	nop
    90000874:	00000013          	nop
    90000878:	00000013          	nop
    9000087c:	00000013          	nop
    90000880:	00000013          	nop
    90000884:	00000013          	nop
    90000888:	00000013          	nop
    9000088c:	00000013          	nop
    90000890:	00000013          	nop
    90000894:	00000013          	nop
    90000898:	00000013          	nop
    9000089c:	00000013          	nop
    900008a0:	00000013          	nop
    900008a4:	00000013          	nop
    900008a8:	00000013          	nop
    900008ac:	00000013          	nop
    900008b0:	00000013          	nop
    900008b4:	00000013          	nop
    900008b8:	00000013          	nop
    900008bc:	00000013          	nop
    900008c0:	00000013          	nop
    900008c4:	00000013          	nop
    900008c8:	00000013          	nop
    900008cc:	00000013          	nop
    900008d0:	00000013          	nop
    900008d4:	00000013          	nop
    900008d8:	00000013          	nop
    900008dc:	00000013          	nop
    900008e0:	00000013          	nop
    900008e4:	00000013          	nop
    900008e8:	00000013          	nop
    900008ec:	00000013          	nop
    900008f0:	00000013          	nop
    900008f4:	00000013          	nop
    900008f8:	00000013          	nop
    900008fc:	00000013          	nop
    90000900:	00000013          	nop
    90000904:	00000013          	nop
    90000908:	00000013          	nop
    9000090c:	00000013          	nop
    90000910:	00000013          	nop
    90000914:	00000013          	nop
    90000918:	00000013          	nop
    9000091c:	00000013          	nop
    90000920:	00000013          	nop
    90000924:	00000013          	nop
    90000928:	00000013          	nop
    9000092c:	00000013          	nop
    90000930:	00000013          	nop
    90000934:	00000013          	nop
    90000938:	00000013          	nop
    9000093c:	00000013          	nop
    90000940:	00000013          	nop
    90000944:	00000013          	nop
    90000948:	00000013          	nop
    9000094c:	00000013          	nop
    90000950:	00000013          	nop
    90000954:	00000013          	nop
    90000958:	00000013          	nop
    9000095c:	00000013          	nop
    90000960:	00000013          	nop
    90000964:	00000013          	nop
    90000968:	00000013          	nop
    9000096c:	00000013          	nop
    90000970:	00000013          	nop
    90000974:	00000013          	nop
    90000978:	00000013          	nop
    9000097c:	00000013          	nop
    90000980:	00000013          	nop
    90000984:	00000013          	nop
    90000988:	00000013          	nop
    9000098c:	00000013          	nop
    90000990:	00000013          	nop
    90000994:	00000013          	nop
    90000998:	00000013          	nop
    9000099c:	00000013          	nop
    900009a0:	00000013          	nop
    900009a4:	00000013          	nop
    900009a8:	00000013          	nop
    900009ac:	00000013          	nop
    900009b0:	00000013          	nop
    900009b4:	00000013          	nop
    900009b8:	00000013          	nop
    900009bc:	00000013          	nop
    900009c0:	00000013          	nop
    900009c4:	00000013          	nop
    900009c8:	00000013          	nop
    900009cc:	00000013          	nop
    900009d0:	00000013          	nop
    900009d4:	00000013          	nop
    900009d8:	00000013          	nop
    900009dc:	00000013          	nop
    900009e0:	00000013          	nop
    900009e4:	00000013          	nop
    900009e8:	00000013          	nop
    900009ec:	00000013          	nop
    900009f0:	00000013          	nop
    900009f4:	00000013          	nop
    900009f8:	00000013          	nop
    900009fc:	00000013          	nop
    90000a00:	00000013          	nop
    90000a04:	00000013          	nop
    90000a08:	00000013          	nop
    90000a0c:	00000013          	nop
    90000a10:	00000013          	nop
    90000a14:	00000013          	nop
    90000a18:	00000013          	nop
    90000a1c:	00000013          	nop
    90000a20:	00000013          	nop
    90000a24:	00000013          	nop
    90000a28:	00000013          	nop
    90000a2c:	00000013          	nop
    90000a30:	00000013          	nop
    90000a34:	00000013          	nop
    90000a38:	00000013          	nop
    90000a3c:	00000013          	nop
    90000a40:	00000013          	nop
    90000a44:	00000013          	nop
    90000a48:	00000013          	nop
    90000a4c:	00000013          	nop
    90000a50:	00000013          	nop
    90000a54:	00000013          	nop
    90000a58:	00000013          	nop
    90000a5c:	00000013          	nop
    90000a60:	00000013          	nop
    90000a64:	00000013          	nop
    90000a68:	00000013          	nop
    90000a6c:	00000013          	nop
    90000a70:	00000013          	nop
    90000a74:	00000013          	nop
    90000a78:	00000013          	nop
    90000a7c:	00000013          	nop
    90000a80:	00000013          	nop
    90000a84:	00000013          	nop
    90000a88:	00000013          	nop
    90000a8c:	00000013          	nop
    90000a90:	00000013          	nop
    90000a94:	00000013          	nop
    90000a98:	00000013          	nop
    90000a9c:	00000013          	nop
    90000aa0:	00000013          	nop
    90000aa4:	00000013          	nop
    90000aa8:	00000013          	nop
    90000aac:	00000013          	nop
    90000ab0:	00000013          	nop
    90000ab4:	00000013          	nop
    90000ab8:	00000013          	nop
    90000abc:	00000013          	nop
    90000ac0:	00000013          	nop
    90000ac4:	00000013          	nop
    90000ac8:	00000013          	nop
    90000acc:	00000013          	nop
    90000ad0:	00000013          	nop
    90000ad4:	00000013          	nop
    90000ad8:	00000013          	nop
    90000adc:	00000013          	nop
    90000ae0:	00000013          	nop
    90000ae4:	00000013          	nop
    90000ae8:	00000013          	nop
    90000aec:	00000013          	nop
    90000af0:	00000013          	nop
    90000af4:	00000013          	nop
    90000af8:	00000013          	nop
    90000afc:	00000013          	nop
    90000b00:	00000013          	nop
    90000b04:	00000013          	nop
    90000b08:	00000013          	nop
    90000b0c:	00000013          	nop
    90000b10:	00000013          	nop
    90000b14:	00000013          	nop
    90000b18:	00000013          	nop
    90000b1c:	00000013          	nop
    90000b20:	00000013          	nop
    90000b24:	00000013          	nop
    90000b28:	00000013          	nop
    90000b2c:	00000013          	nop
    90000b30:	00000013          	nop
    90000b34:	00000013          	nop
    90000b38:	00000013          	nop
    90000b3c:	00000013          	nop
    90000b40:	00000013          	nop
    90000b44:	00000013          	nop
    90000b48:	00000013          	nop
    90000b4c:	00000013          	nop
    90000b50:	00000013          	nop
    90000b54:	00000013          	nop
    90000b58:	00000013          	nop
    90000b5c:	00000013          	nop
    90000b60:	00000013          	nop
    90000b64:	00000013          	nop
    90000b68:	00000013          	nop
    90000b6c:	00000013          	nop
    90000b70:	00000013          	nop
    90000b74:	00000013          	nop
    90000b78:	00000013          	nop
    90000b7c:	00000013          	nop
    90000b80:	00000013          	nop
    90000b84:	00000013          	nop
    90000b88:	00000013          	nop
    90000b8c:	00000013          	nop
    90000b90:	00000013          	nop
    90000b94:	00000013          	nop
    90000b98:	00000013          	nop
    90000b9c:	00000013          	nop
    90000ba0:	00000013          	nop
    90000ba4:	00000013          	nop
    90000ba8:	00000013          	nop
    90000bac:	00000013          	nop
    90000bb0:	00000013          	nop
    90000bb4:	00000013          	nop
    90000bb8:	00000013          	nop
    90000bbc:	00000013          	nop
    90000bc0:	00000013          	nop
    90000bc4:	00000013          	nop
    90000bc8:	00000013          	nop
    90000bcc:	00000013          	nop
    90000bd0:	00000013          	nop
    90000bd4:	00000013          	nop
    90000bd8:	00000013          	nop
    90000bdc:	00000013          	nop
    90000be0:	00000013          	nop
    90000be4:	00000013          	nop
    90000be8:	00000013          	nop
    90000bec:	00000013          	nop
    90000bf0:	00000013          	nop
    90000bf4:	00000013          	nop
    90000bf8:	00000013          	nop
    90000bfc:	00000013          	nop
    90000c00:	00000013          	nop
    90000c04:	00000013          	nop
    90000c08:	00000013          	nop
    90000c0c:	00000013          	nop
    90000c10:	00000013          	nop
    90000c14:	00000013          	nop
    90000c18:	00000013          	nop
    90000c1c:	00000013          	nop
    90000c20:	00000013          	nop
    90000c24:	00000013          	nop
    90000c28:	00000013          	nop
    90000c2c:	00000013          	nop
    90000c30:	00000013          	nop
    90000c34:	00000013          	nop
    90000c38:	00000013          	nop
    90000c3c:	00000013          	nop
    90000c40:	00000013          	nop
    90000c44:	00000013          	nop
    90000c48:	00000013          	nop
    90000c4c:	00000013          	nop
    90000c50:	00000013          	nop
    90000c54:	00000013          	nop
    90000c58:	00000013          	nop
    90000c5c:	00000013          	nop
    90000c60:	00000013          	nop
    90000c64:	00000013          	nop
    90000c68:	00000013          	nop
    90000c6c:	00000013          	nop
    90000c70:	00000013          	nop
    90000c74:	00000013          	nop
    90000c78:	00000013          	nop
    90000c7c:	00000013          	nop
    90000c80:	00000013          	nop
    90000c84:	00000013          	nop
    90000c88:	00000013          	nop
    90000c8c:	00000013          	nop
    90000c90:	00000013          	nop
    90000c94:	00000013          	nop
    90000c98:	00000013          	nop
    90000c9c:	00000013          	nop
    90000ca0:	00000013          	nop
    90000ca4:	00000013          	nop
    90000ca8:	00000013          	nop
    90000cac:	00000013          	nop
    90000cb0:	00000013          	nop
    90000cb4:	00000013          	nop
    90000cb8:	00000013          	nop
    90000cbc:	00000013          	nop
    90000cc0:	00000013          	nop
    90000cc4:	00000013          	nop
    90000cc8:	00000013          	nop
    90000ccc:	00000013          	nop
    90000cd0:	00000013          	nop
    90000cd4:	00000013          	nop
    90000cd8:	00000013          	nop
    90000cdc:	00000013          	nop
    90000ce0:	00000013          	nop
    90000ce4:	00000013          	nop
    90000ce8:	00000013          	nop
    90000cec:	00000013          	nop
    90000cf0:	00000013          	nop
    90000cf4:	00000013          	nop
    90000cf8:	00000013          	nop
    90000cfc:	00000013          	nop
    90000d00:	00000013          	nop
    90000d04:	00000013          	nop
    90000d08:	00000013          	nop
    90000d0c:	00000013          	nop
    90000d10:	00000013          	nop
    90000d14:	00000013          	nop
    90000d18:	00000013          	nop
    90000d1c:	00000013          	nop
    90000d20:	00000013          	nop
    90000d24:	00000013          	nop
    90000d28:	00000013          	nop
    90000d2c:	00000013          	nop
    90000d30:	00000013          	nop
    90000d34:	00000013          	nop
    90000d38:	00000013          	nop
    90000d3c:	00000013          	nop
    90000d40:	00000013          	nop
    90000d44:	00000013          	nop
    90000d48:	00000013          	nop
    90000d4c:	00000013          	nop
    90000d50:	00000013          	nop
    90000d54:	00000013          	nop
    90000d58:	00000013          	nop
    90000d5c:	00000013          	nop
    90000d60:	00000013          	nop
    90000d64:	00000013          	nop
    90000d68:	00000013          	nop
    90000d6c:	00000013          	nop
    90000d70:	00000013          	nop
    90000d74:	00000013          	nop
    90000d78:	00000013          	nop
    90000d7c:	00000013          	nop
    90000d80:	00000013          	nop
    90000d84:	00000013          	nop
    90000d88:	00000013          	nop
    90000d8c:	00000013          	nop
    90000d90:	00000013          	nop
    90000d94:	00000013          	nop
    90000d98:	00000013          	nop
    90000d9c:	00000013          	nop
    90000da0:	00000013          	nop
    90000da4:	00000013          	nop
    90000da8:	00000013          	nop
    90000dac:	00000013          	nop
    90000db0:	00000013          	nop
    90000db4:	00000013          	nop
    90000db8:	00000013          	nop
    90000dbc:	00000013          	nop
    90000dc0:	00000013          	nop
    90000dc4:	00000013          	nop
    90000dc8:	00000013          	nop
    90000dcc:	00000013          	nop
    90000dd0:	00000013          	nop
    90000dd4:	00000013          	nop
    90000dd8:	00000013          	nop
    90000ddc:	00000013          	nop
    90000de0:	00000013          	nop
    90000de4:	00000013          	nop
    90000de8:	00000013          	nop
    90000dec:	00000013          	nop
    90000df0:	00000013          	nop
    90000df4:	00000013          	nop
    90000df8:	00000013          	nop
    90000dfc:	00000013          	nop
    90000e00:	00000013          	nop
    90000e04:	00000013          	nop
    90000e08:	00000013          	nop
    90000e0c:	00000013          	nop
    90000e10:	00000013          	nop
    90000e14:	00000013          	nop
    90000e18:	00000013          	nop
    90000e1c:	00000013          	nop
    90000e20:	00000013          	nop
    90000e24:	00000013          	nop
    90000e28:	00000013          	nop
    90000e2c:	00000013          	nop
    90000e30:	00000013          	nop
    90000e34:	00000013          	nop
    90000e38:	00000013          	nop
    90000e3c:	00000013          	nop
    90000e40:	00000013          	nop
    90000e44:	00000013          	nop
    90000e48:	00000013          	nop
    90000e4c:	00000013          	nop
    90000e50:	00000013          	nop
    90000e54:	00000013          	nop
    90000e58:	00000013          	nop
    90000e5c:	00000013          	nop
    90000e60:	00000013          	nop
    90000e64:	00000013          	nop
    90000e68:	00000013          	nop
    90000e6c:	00000013          	nop
    90000e70:	00000013          	nop
    90000e74:	00000013          	nop
    90000e78:	00000013          	nop
    90000e7c:	00000013          	nop
    90000e80:	00000013          	nop
    90000e84:	00000013          	nop
    90000e88:	00000013          	nop
    90000e8c:	00000013          	nop
    90000e90:	00000013          	nop
    90000e94:	00000013          	nop
    90000e98:	00000013          	nop
    90000e9c:	00000013          	nop
    90000ea0:	00000013          	nop
    90000ea4:	00000013          	nop
    90000ea8:	00000013          	nop
    90000eac:	00000013          	nop
    90000eb0:	00000013          	nop
    90000eb4:	00000013          	nop
    90000eb8:	00000013          	nop
    90000ebc:	00000013          	nop
    90000ec0:	00000013          	nop
    90000ec4:	00000013          	nop
    90000ec8:	00000013          	nop
    90000ecc:	00000013          	nop
    90000ed0:	00000013          	nop
    90000ed4:	00000013          	nop
    90000ed8:	00000013          	nop
    90000edc:	00000013          	nop
    90000ee0:	00000013          	nop
    90000ee4:	00000013          	nop
    90000ee8:	00000013          	nop
    90000eec:	00000013          	nop
    90000ef0:	00000013          	nop
    90000ef4:	00000013          	nop
    90000ef8:	00000013          	nop
    90000efc:	00000013          	nop
    90000f00:	00000013          	nop
    90000f04:	00000013          	nop
    90000f08:	00000013          	nop
    90000f0c:	00000013          	nop
    90000f10:	00000013          	nop
    90000f14:	00000013          	nop
    90000f18:	00000013          	nop
    90000f1c:	00000013          	nop
    90000f20:	00000013          	nop
    90000f24:	00000013          	nop
    90000f28:	00000013          	nop
    90000f2c:	00000013          	nop
    90000f30:	00000013          	nop
    90000f34:	00000013          	nop
    90000f38:	00000013          	nop
    90000f3c:	00000013          	nop
    90000f40:	00000013          	nop
    90000f44:	00000013          	nop
    90000f48:	00000013          	nop
    90000f4c:	00000013          	nop
    90000f50:	00000013          	nop
    90000f54:	00000013          	nop
    90000f58:	00000013          	nop
    90000f5c:	00000013          	nop
    90000f60:	00000013          	nop
    90000f64:	00000013          	nop
    90000f68:	00000013          	nop
    90000f6c:	00000013          	nop
    90000f70:	00000013          	nop
    90000f74:	00000013          	nop
    90000f78:	00000013          	nop
    90000f7c:	00000013          	nop
    90000f80:	00000013          	nop
    90000f84:	00000013          	nop
    90000f88:	00000013          	nop
    90000f8c:	00000013          	nop
    90000f90:	00000013          	nop
    90000f94:	00000013          	nop
    90000f98:	00000013          	nop
    90000f9c:	00000013          	nop
    90000fa0:	00000013          	nop
    90000fa4:	00000013          	nop
    90000fa8:	00000013          	nop
    90000fac:	00000013          	nop
    90000fb0:	00000013          	nop
    90000fb4:	00000013          	nop
    90000fb8:	00000013          	nop
    90000fbc:	00000013          	nop
    90000fc0:	00000013          	nop
    90000fc4:	00000013          	nop
    90000fc8:	00000013          	nop
    90000fcc:	00000013          	nop
    90000fd0:	00000013          	nop
    90000fd4:	00000013          	nop
    90000fd8:	00000013          	nop
    90000fdc:	00000013          	nop
    90000fe0:	00000013          	nop
    90000fe4:	00000013          	nop
    90000fe8:	00000013          	nop
    90000fec:	00000013          	nop
    90000ff0:	00000013          	nop
    90000ff4:	00000013          	nop
    90000ff8:	00000013          	nop
    90000ffc:	00000013          	nop
    90001000:	0000                	unimp
    90001002:	0000                	unimp
    90001004:	0000                	unimp
    90001006:	0000                	unimp
    90001008:	0000                	unimp
    9000100a:	0000                	unimp
    9000100c:	0000                	unimp
    9000100e:	0000                	unimp
    90001010:	0000                	unimp
    90001012:	0000                	unimp
    90001014:	0000                	unimp
    90001016:	0000                	unimp
    90001018:	0000                	unimp
    9000101a:	0000                	unimp
    9000101c:	0000                	unimp
    9000101e:	0000                	unimp
    90001020:	0000                	unimp
    90001022:	0000                	unimp
    90001024:	0000                	unimp
    90001026:	0000                	unimp
    90001028:	0000                	unimp
    9000102a:	0000                	unimp
    9000102c:	0000                	unimp
    9000102e:	0000                	unimp
    90001030:	0000                	unimp
    90001032:	0000                	unimp
    90001034:	0000                	unimp
    90001036:	0000                	unimp
    90001038:	0000                	unimp
    9000103a:	0000                	unimp
    9000103c:	0000                	unimp
    9000103e:	0000                	unimp
    90001040:	0000                	unimp
    90001042:	0000                	unimp
    90001044:	0000                	unimp
    90001046:	0000                	unimp
    90001048:	0000                	unimp
    9000104a:	0000                	unimp
    9000104c:	0000                	unimp
    9000104e:	0000                	unimp
    90001050:	0000                	unimp
    90001052:	0000                	unimp
    90001054:	0000                	unimp
    90001056:	0000                	unimp
    90001058:	0000                	unimp
    9000105a:	0000                	unimp
    9000105c:	0000                	unimp
    9000105e:	0000                	unimp
    90001060:	0000                	unimp
    90001062:	0000                	unimp
    90001064:	0000                	unimp
    90001066:	0000                	unimp
    90001068:	0000                	unimp
    9000106a:	0000                	unimp
    9000106c:	0000                	unimp
    9000106e:	0000                	unimp
    90001070:	0000                	unimp
    90001072:	0000                	unimp
    90001074:	0000                	unimp
    90001076:	0000                	unimp
    90001078:	0000                	unimp
    9000107a:	0000                	unimp
    9000107c:	0000                	unimp
    9000107e:	0000                	unimp
    90001080:	0000                	unimp
    90001082:	0000                	unimp
    90001084:	0000                	unimp
    90001086:	0000                	unimp
    90001088:	0000                	unimp
    9000108a:	0000                	unimp
    9000108c:	0000                	unimp
    9000108e:	0000                	unimp
    90001090:	0000                	unimp
    90001092:	0000                	unimp
    90001094:	0000                	unimp
    90001096:	0000                	unimp
    90001098:	0000                	unimp
    9000109a:	0000                	unimp
    9000109c:	0000                	unimp
    9000109e:	0000                	unimp
    900010a0:	0000                	unimp
    900010a2:	0000                	unimp
    900010a4:	0000                	unimp
    900010a6:	0000                	unimp
    900010a8:	0000                	unimp
    900010aa:	0000                	unimp
    900010ac:	0000                	unimp
    900010ae:	0000                	unimp
    900010b0:	0000                	unimp
    900010b2:	0000                	unimp
    900010b4:	0000                	unimp
    900010b6:	0000                	unimp
    900010b8:	0000                	unimp
    900010ba:	0000                	unimp
    900010bc:	0000                	unimp
    900010be:	0000                	unimp
    900010c0:	0000                	unimp
    900010c2:	0000                	unimp
    900010c4:	0000                	unimp
    900010c6:	0000                	unimp
    900010c8:	0000                	unimp
    900010ca:	0000                	unimp
    900010cc:	0000                	unimp
    900010ce:	0000                	unimp
    900010d0:	0000                	unimp
    900010d2:	0000                	unimp
    900010d4:	0000                	unimp
    900010d6:	0000                	unimp
    900010d8:	0000                	unimp
    900010da:	0000                	unimp
    900010dc:	0000                	unimp
    900010de:	0000                	unimp
    900010e0:	0000                	unimp
    900010e2:	0000                	unimp
    900010e4:	0000                	unimp
    900010e6:	0000                	unimp
    900010e8:	0000                	unimp
    900010ea:	0000                	unimp
    900010ec:	0000                	unimp
    900010ee:	0000                	unimp
    900010f0:	0000                	unimp
    900010f2:	0000                	unimp
    900010f4:	0000                	unimp
    900010f6:	0000                	unimp
    900010f8:	0000                	unimp
    900010fa:	0000                	unimp
    900010fc:	0000                	unimp
    900010fe:	0000                	unimp
    90001100:	0000                	unimp
    90001102:	0000                	unimp
    90001104:	0000                	unimp
    90001106:	0000                	unimp
    90001108:	0000                	unimp
    9000110a:	0000                	unimp
    9000110c:	0000                	unimp
    9000110e:	0000                	unimp
    90001110:	0000                	unimp
    90001112:	0000                	unimp
    90001114:	0000                	unimp
    90001116:	0000                	unimp
    90001118:	0000                	unimp
    9000111a:	0000                	unimp
    9000111c:	0000                	unimp
    9000111e:	0000                	unimp
    90001120:	0000                	unimp
    90001122:	0000                	unimp
    90001124:	0000                	unimp
    90001126:	0000                	unimp
    90001128:	0000                	unimp
    9000112a:	0000                	unimp
    9000112c:	0000                	unimp
    9000112e:	0000                	unimp
    90001130:	0000                	unimp
    90001132:	0000                	unimp
    90001134:	0000                	unimp
    90001136:	0000                	unimp
    90001138:	0000                	unimp
    9000113a:	0000                	unimp
    9000113c:	0000                	unimp
    9000113e:	0000                	unimp
    90001140:	0000                	unimp
    90001142:	0000                	unimp
    90001144:	0000                	unimp
    90001146:	0000                	unimp
    90001148:	0000                	unimp
    9000114a:	0000                	unimp
    9000114c:	0000                	unimp
    9000114e:	0000                	unimp
    90001150:	0000                	unimp
    90001152:	0000                	unimp
    90001154:	0000                	unimp
    90001156:	0000                	unimp
    90001158:	0000                	unimp
    9000115a:	0000                	unimp
    9000115c:	0000                	unimp
    9000115e:	0000                	unimp
    90001160:	0000                	unimp
    90001162:	0000                	unimp
    90001164:	0000                	unimp
    90001166:	0000                	unimp
    90001168:	0000                	unimp
    9000116a:	0000                	unimp
    9000116c:	0000                	unimp
    9000116e:	0000                	unimp
    90001170:	0000                	unimp
    90001172:	0000                	unimp
    90001174:	0000                	unimp
    90001176:	0000                	unimp
    90001178:	0000                	unimp
    9000117a:	0000                	unimp
    9000117c:	0000                	unimp
    9000117e:	0000                	unimp
    90001180:	0000                	unimp
    90001182:	0000                	unimp
    90001184:	0000                	unimp
    90001186:	0000                	unimp
    90001188:	0000                	unimp
    9000118a:	0000                	unimp
    9000118c:	0000                	unimp
    9000118e:	0000                	unimp
    90001190:	0000                	unimp
    90001192:	0000                	unimp
    90001194:	0000                	unimp
    90001196:	0000                	unimp
    90001198:	0000                	unimp
    9000119a:	0000                	unimp
    9000119c:	0000                	unimp
    9000119e:	0000                	unimp
    900011a0:	0000                	unimp
    900011a2:	0000                	unimp
    900011a4:	0000                	unimp
    900011a6:	0000                	unimp
    900011a8:	0000                	unimp
    900011aa:	0000                	unimp
    900011ac:	0000                	unimp
    900011ae:	0000                	unimp
    900011b0:	0000                	unimp
    900011b2:	0000                	unimp
    900011b4:	0000                	unimp
    900011b6:	0000                	unimp
    900011b8:	0000                	unimp
    900011ba:	0000                	unimp
    900011bc:	0000                	unimp
    900011be:	0000                	unimp
    900011c0:	0000                	unimp
    900011c2:	0000                	unimp
    900011c4:	0000                	unimp
    900011c6:	0000                	unimp
    900011c8:	0000                	unimp
    900011ca:	0000                	unimp
    900011cc:	0000                	unimp
    900011ce:	0000                	unimp
    900011d0:	0000                	unimp
    900011d2:	0000                	unimp
    900011d4:	0000                	unimp
    900011d6:	0000                	unimp
    900011d8:	0000                	unimp
    900011da:	0000                	unimp
    900011dc:	0000                	unimp
    900011de:	0000                	unimp
    900011e0:	0000                	unimp
    900011e2:	0000                	unimp
    900011e4:	0000                	unimp
    900011e6:	0000                	unimp
    900011e8:	0000                	unimp
    900011ea:	0000                	unimp
    900011ec:	0000                	unimp
    900011ee:	0000                	unimp
    900011f0:	0000                	unimp
    900011f2:	0000                	unimp
    900011f4:	0000                	unimp
    900011f6:	0000                	unimp
    900011f8:	0000                	unimp
    900011fa:	0000                	unimp
    900011fc:	0000                	unimp
    900011fe:	0000                	unimp
    90001200:	0000                	unimp
    90001202:	0000                	unimp
    90001204:	0000                	unimp
    90001206:	0000                	unimp
    90001208:	0000                	unimp
    9000120a:	0000                	unimp
    9000120c:	0000                	unimp
    9000120e:	0000                	unimp
    90001210:	0000                	unimp
    90001212:	0000                	unimp
    90001214:	0000                	unimp
    90001216:	0000                	unimp
    90001218:	0000                	unimp
    9000121a:	0000                	unimp
    9000121c:	0000                	unimp
    9000121e:	0000                	unimp
    90001220:	0000                	unimp
    90001222:	0000                	unimp
    90001224:	0000                	unimp
    90001226:	0000                	unimp
    90001228:	0000                	unimp
    9000122a:	0000                	unimp
    9000122c:	0000                	unimp
    9000122e:	0000                	unimp
    90001230:	0000                	unimp
    90001232:	0000                	unimp
    90001234:	0000                	unimp
    90001236:	0000                	unimp
    90001238:	0000                	unimp
    9000123a:	0000                	unimp
    9000123c:	0000                	unimp
    9000123e:	0000                	unimp
    90001240:	0000                	unimp
    90001242:	0000                	unimp
    90001244:	0000                	unimp
    90001246:	0000                	unimp
    90001248:	0000                	unimp
    9000124a:	0000                	unimp
    9000124c:	0000                	unimp
    9000124e:	0000                	unimp
    90001250:	0000                	unimp
    90001252:	0000                	unimp
    90001254:	0000                	unimp
    90001256:	0000                	unimp
    90001258:	0000                	unimp
    9000125a:	0000                	unimp
    9000125c:	0000                	unimp
    9000125e:	0000                	unimp
    90001260:	0000                	unimp
    90001262:	0000                	unimp
    90001264:	0000                	unimp
    90001266:	0000                	unimp
    90001268:	0000                	unimp
    9000126a:	0000                	unimp
    9000126c:	0000                	unimp
    9000126e:	0000                	unimp
    90001270:	0000                	unimp
    90001272:	0000                	unimp
    90001274:	0000                	unimp
    90001276:	0000                	unimp
    90001278:	0000                	unimp
    9000127a:	0000                	unimp
    9000127c:	0000                	unimp
    9000127e:	0000                	unimp
    90001280:	0000                	unimp
    90001282:	0000                	unimp
    90001284:	0000                	unimp
    90001286:	0000                	unimp
    90001288:	0000                	unimp
    9000128a:	0000                	unimp
    9000128c:	0000                	unimp
    9000128e:	0000                	unimp
    90001290:	0000                	unimp
    90001292:	0000                	unimp
    90001294:	0000                	unimp
    90001296:	0000                	unimp
    90001298:	0000                	unimp
    9000129a:	0000                	unimp
    9000129c:	0000                	unimp
    9000129e:	0000                	unimp
    900012a0:	0000                	unimp
    900012a2:	0000                	unimp
    900012a4:	0000                	unimp
    900012a6:	0000                	unimp
    900012a8:	0000                	unimp
    900012aa:	0000                	unimp
    900012ac:	0000                	unimp
    900012ae:	0000                	unimp
    900012b0:	0000                	unimp
    900012b2:	0000                	unimp
    900012b4:	0000                	unimp
    900012b6:	0000                	unimp
    900012b8:	0000                	unimp
    900012ba:	0000                	unimp
    900012bc:	0000                	unimp
    900012be:	0000                	unimp
    900012c0:	0000                	unimp
    900012c2:	0000                	unimp
    900012c4:	0000                	unimp
    900012c6:	0000                	unimp
    900012c8:	0000                	unimp
    900012ca:	0000                	unimp
    900012cc:	0000                	unimp
    900012ce:	0000                	unimp
    900012d0:	0000                	unimp
    900012d2:	0000                	unimp
    900012d4:	0000                	unimp
    900012d6:	0000                	unimp
    900012d8:	0000                	unimp
    900012da:	0000                	unimp
    900012dc:	0000                	unimp
    900012de:	0000                	unimp
    900012e0:	0000                	unimp
    900012e2:	0000                	unimp
    900012e4:	0000                	unimp
    900012e6:	0000                	unimp
    900012e8:	0000                	unimp
    900012ea:	0000                	unimp
    900012ec:	0000                	unimp
    900012ee:	0000                	unimp
    900012f0:	0000                	unimp
    900012f2:	0000                	unimp
    900012f4:	0000                	unimp
    900012f6:	0000                	unimp
    900012f8:	0000                	unimp
    900012fa:	0000                	unimp
    900012fc:	0000                	unimp
    900012fe:	0000                	unimp
    90001300:	0000                	unimp
    90001302:	0000                	unimp
    90001304:	0000                	unimp
    90001306:	0000                	unimp
    90001308:	0000                	unimp
    9000130a:	0000                	unimp
    9000130c:	0000                	unimp
    9000130e:	0000                	unimp
    90001310:	0000                	unimp
    90001312:	0000                	unimp
    90001314:	0000                	unimp
    90001316:	0000                	unimp
    90001318:	0000                	unimp
    9000131a:	0000                	unimp
    9000131c:	0000                	unimp
    9000131e:	0000                	unimp
    90001320:	0000                	unimp
    90001322:	0000                	unimp
    90001324:	0000                	unimp
    90001326:	0000                	unimp
    90001328:	0000                	unimp
    9000132a:	0000                	unimp
    9000132c:	0000                	unimp
    9000132e:	0000                	unimp
    90001330:	0000                	unimp
    90001332:	0000                	unimp
    90001334:	0000                	unimp
    90001336:	0000                	unimp
    90001338:	0000                	unimp
    9000133a:	0000                	unimp
    9000133c:	0000                	unimp
    9000133e:	0000                	unimp
    90001340:	0000                	unimp
    90001342:	0000                	unimp
    90001344:	0000                	unimp
    90001346:	0000                	unimp
    90001348:	0000                	unimp
    9000134a:	0000                	unimp
    9000134c:	0000                	unimp
    9000134e:	0000                	unimp
    90001350:	0000                	unimp
    90001352:	0000                	unimp
    90001354:	0000                	unimp
    90001356:	0000                	unimp
    90001358:	0000                	unimp
    9000135a:	0000                	unimp
    9000135c:	0000                	unimp
    9000135e:	0000                	unimp
    90001360:	0000                	unimp
    90001362:	0000                	unimp
    90001364:	0000                	unimp
    90001366:	0000                	unimp
    90001368:	0000                	unimp
    9000136a:	0000                	unimp
    9000136c:	0000                	unimp
    9000136e:	0000                	unimp
    90001370:	0000                	unimp
    90001372:	0000                	unimp
    90001374:	0000                	unimp
    90001376:	0000                	unimp
    90001378:	0000                	unimp
    9000137a:	0000                	unimp
    9000137c:	0000                	unimp
    9000137e:	0000                	unimp
    90001380:	0000                	unimp
    90001382:	0000                	unimp
    90001384:	0000                	unimp
    90001386:	0000                	unimp
    90001388:	0000                	unimp
    9000138a:	0000                	unimp
    9000138c:	0000                	unimp
    9000138e:	0000                	unimp
    90001390:	0000                	unimp
    90001392:	0000                	unimp
    90001394:	0000                	unimp
    90001396:	0000                	unimp
    90001398:	0000                	unimp
    9000139a:	0000                	unimp
    9000139c:	0000                	unimp
    9000139e:	0000                	unimp
    900013a0:	0000                	unimp
    900013a2:	0000                	unimp
    900013a4:	0000                	unimp
    900013a6:	0000                	unimp
    900013a8:	0000                	unimp
    900013aa:	0000                	unimp
    900013ac:	0000                	unimp
    900013ae:	0000                	unimp
    900013b0:	0000                	unimp
    900013b2:	0000                	unimp
    900013b4:	0000                	unimp
    900013b6:	0000                	unimp
    900013b8:	0000                	unimp
    900013ba:	0000                	unimp
    900013bc:	0000                	unimp
    900013be:	0000                	unimp
    900013c0:	0000                	unimp
    900013c2:	0000                	unimp
    900013c4:	0000                	unimp
    900013c6:	0000                	unimp
    900013c8:	0000                	unimp
    900013ca:	0000                	unimp
    900013cc:	0000                	unimp
    900013ce:	0000                	unimp
    900013d0:	0000                	unimp
    900013d2:	0000                	unimp
    900013d4:	0000                	unimp
    900013d6:	0000                	unimp
    900013d8:	0000                	unimp
    900013da:	0000                	unimp
    900013dc:	0000                	unimp
    900013de:	0000                	unimp
    900013e0:	0000                	unimp
    900013e2:	0000                	unimp
    900013e4:	0000                	unimp
    900013e6:	0000                	unimp
    900013e8:	0000                	unimp
    900013ea:	0000                	unimp
    900013ec:	0000                	unimp
    900013ee:	0000                	unimp
    900013f0:	0000                	unimp
    900013f2:	0000                	unimp
    900013f4:	0000                	unimp
    900013f6:	0000                	unimp
    900013f8:	0000                	unimp
    900013fa:	0000                	unimp
    900013fc:	0000                	unimp
    900013fe:	0000                	unimp
    90001400:	0000                	unimp
    90001402:	0000                	unimp
    90001404:	0000                	unimp
    90001406:	0000                	unimp
    90001408:	0000                	unimp
    9000140a:	0000                	unimp
    9000140c:	0000                	unimp
    9000140e:	0000                	unimp
    90001410:	0000                	unimp
    90001412:	0000                	unimp
    90001414:	0000                	unimp
    90001416:	0000                	unimp
    90001418:	0000                	unimp
    9000141a:	0000                	unimp
    9000141c:	0000                	unimp
    9000141e:	0000                	unimp
    90001420:	0000                	unimp
    90001422:	0000                	unimp
    90001424:	0000                	unimp
    90001426:	0000                	unimp
    90001428:	0000                	unimp
    9000142a:	0000                	unimp
    9000142c:	0000                	unimp
    9000142e:	0000                	unimp
    90001430:	0000                	unimp
    90001432:	0000                	unimp
    90001434:	0000                	unimp
    90001436:	0000                	unimp
    90001438:	0000                	unimp
    9000143a:	0000                	unimp
    9000143c:	0000                	unimp
    9000143e:	0000                	unimp
    90001440:	0000                	unimp
    90001442:	0000                	unimp
    90001444:	0000                	unimp
    90001446:	0000                	unimp
    90001448:	0000                	unimp
    9000144a:	0000                	unimp
    9000144c:	0000                	unimp
    9000144e:	0000                	unimp
    90001450:	0000                	unimp
    90001452:	0000                	unimp
    90001454:	0000                	unimp
    90001456:	0000                	unimp
    90001458:	0000                	unimp
    9000145a:	0000                	unimp
    9000145c:	0000                	unimp
    9000145e:	0000                	unimp
    90001460:	0000                	unimp
    90001462:	0000                	unimp
    90001464:	0000                	unimp
    90001466:	0000                	unimp
    90001468:	0000                	unimp
    9000146a:	0000                	unimp
    9000146c:	0000                	unimp
    9000146e:	0000                	unimp
    90001470:	0000                	unimp
    90001472:	0000                	unimp
    90001474:	0000                	unimp
    90001476:	0000                	unimp
    90001478:	0000                	unimp
    9000147a:	0000                	unimp
    9000147c:	0000                	unimp
    9000147e:	0000                	unimp
    90001480:	0000                	unimp
    90001482:	0000                	unimp
    90001484:	0000                	unimp
    90001486:	0000                	unimp
    90001488:	0000                	unimp
    9000148a:	0000                	unimp
    9000148c:	0000                	unimp
    9000148e:	0000                	unimp
    90001490:	0000                	unimp
    90001492:	0000                	unimp
    90001494:	0000                	unimp
    90001496:	0000                	unimp
    90001498:	0000                	unimp
    9000149a:	0000                	unimp
    9000149c:	0000                	unimp
    9000149e:	0000                	unimp
    900014a0:	0000                	unimp
    900014a2:	0000                	unimp
    900014a4:	0000                	unimp
    900014a6:	0000                	unimp
    900014a8:	0000                	unimp
    900014aa:	0000                	unimp
    900014ac:	0000                	unimp
    900014ae:	0000                	unimp
    900014b0:	0000                	unimp
    900014b2:	0000                	unimp
    900014b4:	0000                	unimp
    900014b6:	0000                	unimp
    900014b8:	0000                	unimp
    900014ba:	0000                	unimp
    900014bc:	0000                	unimp
    900014be:	0000                	unimp
    900014c0:	0000                	unimp
    900014c2:	0000                	unimp
    900014c4:	0000                	unimp
    900014c6:	0000                	unimp
    900014c8:	0000                	unimp
    900014ca:	0000                	unimp
    900014cc:	0000                	unimp
    900014ce:	0000                	unimp
    900014d0:	0000                	unimp
    900014d2:	0000                	unimp
    900014d4:	0000                	unimp
    900014d6:	0000                	unimp
    900014d8:	0000                	unimp
    900014da:	0000                	unimp
    900014dc:	0000                	unimp
    900014de:	0000                	unimp
    900014e0:	0000                	unimp
    900014e2:	0000                	unimp
    900014e4:	0000                	unimp
    900014e6:	0000                	unimp
    900014e8:	0000                	unimp
    900014ea:	0000                	unimp
    900014ec:	0000                	unimp
    900014ee:	0000                	unimp
    900014f0:	0000                	unimp
    900014f2:	0000                	unimp
    900014f4:	0000                	unimp
    900014f6:	0000                	unimp
    900014f8:	0000                	unimp
    900014fa:	0000                	unimp
    900014fc:	0000                	unimp
    900014fe:	0000                	unimp
    90001500:	0000                	unimp
    90001502:	0000                	unimp
    90001504:	0000                	unimp
    90001506:	0000                	unimp
    90001508:	0000                	unimp
    9000150a:	0000                	unimp
    9000150c:	0000                	unimp
    9000150e:	0000                	unimp
    90001510:	0000                	unimp
    90001512:	0000                	unimp
    90001514:	0000                	unimp
    90001516:	0000                	unimp
    90001518:	0000                	unimp
    9000151a:	0000                	unimp
    9000151c:	0000                	unimp
    9000151e:	0000                	unimp
    90001520:	0000                	unimp
    90001522:	0000                	unimp
    90001524:	0000                	unimp
    90001526:	0000                	unimp
    90001528:	0000                	unimp
    9000152a:	0000                	unimp
    9000152c:	0000                	unimp
    9000152e:	0000                	unimp
    90001530:	0000                	unimp
    90001532:	0000                	unimp
    90001534:	0000                	unimp
    90001536:	0000                	unimp
    90001538:	0000                	unimp
    9000153a:	0000                	unimp
    9000153c:	0000                	unimp
    9000153e:	0000                	unimp
    90001540:	0000                	unimp
    90001542:	0000                	unimp
    90001544:	0000                	unimp
    90001546:	0000                	unimp
    90001548:	0000                	unimp
    9000154a:	0000                	unimp
    9000154c:	0000                	unimp
    9000154e:	0000                	unimp
    90001550:	0000                	unimp
    90001552:	0000                	unimp
    90001554:	0000                	unimp
    90001556:	0000                	unimp
    90001558:	0000                	unimp
    9000155a:	0000                	unimp
    9000155c:	0000                	unimp
    9000155e:	0000                	unimp
    90001560:	0000                	unimp
    90001562:	0000                	unimp
    90001564:	0000                	unimp
    90001566:	0000                	unimp
    90001568:	0000                	unimp
    9000156a:	0000                	unimp
    9000156c:	0000                	unimp
    9000156e:	0000                	unimp
    90001570:	0000                	unimp
    90001572:	0000                	unimp
    90001574:	0000                	unimp
    90001576:	0000                	unimp
    90001578:	0000                	unimp
    9000157a:	0000                	unimp
    9000157c:	0000                	unimp
    9000157e:	0000                	unimp
    90001580:	0000                	unimp
    90001582:	0000                	unimp
    90001584:	0000                	unimp
    90001586:	0000                	unimp
    90001588:	0000                	unimp
    9000158a:	0000                	unimp
    9000158c:	0000                	unimp
    9000158e:	0000                	unimp
    90001590:	0000                	unimp
    90001592:	0000                	unimp
    90001594:	0000                	unimp
    90001596:	0000                	unimp
    90001598:	0000                	unimp
    9000159a:	0000                	unimp
    9000159c:	0000                	unimp
    9000159e:	0000                	unimp
    900015a0:	0000                	unimp
    900015a2:	0000                	unimp
    900015a4:	0000                	unimp
    900015a6:	0000                	unimp
    900015a8:	0000                	unimp
    900015aa:	0000                	unimp
    900015ac:	0000                	unimp
    900015ae:	0000                	unimp
    900015b0:	0000                	unimp
    900015b2:	0000                	unimp
    900015b4:	0000                	unimp
    900015b6:	0000                	unimp
    900015b8:	0000                	unimp
    900015ba:	0000                	unimp
    900015bc:	0000                	unimp
    900015be:	0000                	unimp
    900015c0:	0000                	unimp
    900015c2:	0000                	unimp
    900015c4:	0000                	unimp
    900015c6:	0000                	unimp
    900015c8:	0000                	unimp
    900015ca:	0000                	unimp
    900015cc:	0000                	unimp
    900015ce:	0000                	unimp
    900015d0:	0000                	unimp
    900015d2:	0000                	unimp
    900015d4:	0000                	unimp
    900015d6:	0000                	unimp
    900015d8:	0000                	unimp
    900015da:	0000                	unimp
    900015dc:	0000                	unimp
    900015de:	0000                	unimp
    900015e0:	0000                	unimp
    900015e2:	0000                	unimp
    900015e4:	0000                	unimp
    900015e6:	0000                	unimp
    900015e8:	0000                	unimp
    900015ea:	0000                	unimp
    900015ec:	0000                	unimp
    900015ee:	0000                	unimp
    900015f0:	0000                	unimp
    900015f2:	0000                	unimp
    900015f4:	0000                	unimp
    900015f6:	0000                	unimp
    900015f8:	0000                	unimp
    900015fa:	0000                	unimp
    900015fc:	0000                	unimp
    900015fe:	0000                	unimp
    90001600:	0000                	unimp
    90001602:	0000                	unimp
    90001604:	0000                	unimp
    90001606:	0000                	unimp
    90001608:	0000                	unimp
    9000160a:	0000                	unimp
    9000160c:	0000                	unimp
    9000160e:	0000                	unimp
    90001610:	0000                	unimp
    90001612:	0000                	unimp
    90001614:	0000                	unimp
    90001616:	0000                	unimp
    90001618:	0000                	unimp
    9000161a:	0000                	unimp
    9000161c:	0000                	unimp
    9000161e:	0000                	unimp
    90001620:	0000                	unimp
    90001622:	0000                	unimp
    90001624:	0000                	unimp
    90001626:	0000                	unimp
    90001628:	0000                	unimp
    9000162a:	0000                	unimp
    9000162c:	0000                	unimp
    9000162e:	0000                	unimp
    90001630:	0000                	unimp
    90001632:	0000                	unimp
    90001634:	0000                	unimp
    90001636:	0000                	unimp
    90001638:	0000                	unimp
    9000163a:	0000                	unimp
    9000163c:	0000                	unimp
    9000163e:	0000                	unimp
    90001640:	0000                	unimp
    90001642:	0000                	unimp
    90001644:	0000                	unimp
    90001646:	0000                	unimp
    90001648:	0000                	unimp
    9000164a:	0000                	unimp
    9000164c:	0000                	unimp
    9000164e:	0000                	unimp
    90001650:	0000                	unimp
    90001652:	0000                	unimp
    90001654:	0000                	unimp
    90001656:	0000                	unimp
    90001658:	0000                	unimp
    9000165a:	0000                	unimp
    9000165c:	0000                	unimp
    9000165e:	0000                	unimp
    90001660:	0000                	unimp
    90001662:	0000                	unimp
    90001664:	0000                	unimp
    90001666:	0000                	unimp
    90001668:	0000                	unimp
    9000166a:	0000                	unimp
    9000166c:	0000                	unimp
    9000166e:	0000                	unimp
    90001670:	0000                	unimp
    90001672:	0000                	unimp
    90001674:	0000                	unimp
    90001676:	0000                	unimp
    90001678:	0000                	unimp
    9000167a:	0000                	unimp
    9000167c:	0000                	unimp
    9000167e:	0000                	unimp
    90001680:	0000                	unimp
    90001682:	0000                	unimp
    90001684:	0000                	unimp
    90001686:	0000                	unimp
    90001688:	0000                	unimp
    9000168a:	0000                	unimp
    9000168c:	0000                	unimp
    9000168e:	0000                	unimp
    90001690:	0000                	unimp
    90001692:	0000                	unimp
    90001694:	0000                	unimp
    90001696:	0000                	unimp
    90001698:	0000                	unimp
    9000169a:	0000                	unimp
    9000169c:	0000                	unimp
    9000169e:	0000                	unimp
    900016a0:	0000                	unimp
    900016a2:	0000                	unimp
    900016a4:	0000                	unimp
    900016a6:	0000                	unimp
    900016a8:	0000                	unimp
    900016aa:	0000                	unimp
    900016ac:	0000                	unimp
    900016ae:	0000                	unimp
    900016b0:	0000                	unimp
    900016b2:	0000                	unimp
    900016b4:	0000                	unimp
    900016b6:	0000                	unimp
    900016b8:	0000                	unimp
    900016ba:	0000                	unimp
    900016bc:	0000                	unimp
    900016be:	0000                	unimp
    900016c0:	0000                	unimp
    900016c2:	0000                	unimp
    900016c4:	0000                	unimp
    900016c6:	0000                	unimp
    900016c8:	0000                	unimp
    900016ca:	0000                	unimp
    900016cc:	0000                	unimp
    900016ce:	0000                	unimp
    900016d0:	0000                	unimp
    900016d2:	0000                	unimp
    900016d4:	0000                	unimp
    900016d6:	0000                	unimp
    900016d8:	0000                	unimp
    900016da:	0000                	unimp
    900016dc:	0000                	unimp
    900016de:	0000                	unimp
    900016e0:	0000                	unimp
    900016e2:	0000                	unimp
    900016e4:	0000                	unimp
    900016e6:	0000                	unimp
    900016e8:	0000                	unimp
    900016ea:	0000                	unimp
    900016ec:	0000                	unimp
    900016ee:	0000                	unimp
    900016f0:	0000                	unimp
    900016f2:	0000                	unimp
    900016f4:	0000                	unimp
    900016f6:	0000                	unimp
    900016f8:	0000                	unimp
    900016fa:	0000                	unimp
    900016fc:	0000                	unimp
    900016fe:	0000                	unimp
    90001700:	0000                	unimp
    90001702:	0000                	unimp
    90001704:	0000                	unimp
    90001706:	0000                	unimp
    90001708:	0000                	unimp
    9000170a:	0000                	unimp
    9000170c:	0000                	unimp
    9000170e:	0000                	unimp
    90001710:	0000                	unimp
    90001712:	0000                	unimp
    90001714:	0000                	unimp
    90001716:	0000                	unimp
    90001718:	0000                	unimp
    9000171a:	0000                	unimp
    9000171c:	0000                	unimp
    9000171e:	0000                	unimp
    90001720:	0000                	unimp
    90001722:	0000                	unimp
    90001724:	0000                	unimp
    90001726:	0000                	unimp
    90001728:	0000                	unimp
    9000172a:	0000                	unimp
    9000172c:	0000                	unimp
    9000172e:	0000                	unimp
    90001730:	0000                	unimp
    90001732:	0000                	unimp
    90001734:	0000                	unimp
    90001736:	0000                	unimp
    90001738:	0000                	unimp
    9000173a:	0000                	unimp
    9000173c:	0000                	unimp
    9000173e:	0000                	unimp
    90001740:	0000                	unimp
    90001742:	0000                	unimp
    90001744:	0000                	unimp
    90001746:	0000                	unimp
    90001748:	0000                	unimp
    9000174a:	0000                	unimp
    9000174c:	0000                	unimp
    9000174e:	0000                	unimp
    90001750:	0000                	unimp
    90001752:	0000                	unimp
    90001754:	0000                	unimp
    90001756:	0000                	unimp
    90001758:	0000                	unimp
    9000175a:	0000                	unimp
    9000175c:	0000                	unimp
    9000175e:	0000                	unimp
    90001760:	0000                	unimp
    90001762:	0000                	unimp
    90001764:	0000                	unimp
    90001766:	0000                	unimp
    90001768:	0000                	unimp
    9000176a:	0000                	unimp
    9000176c:	0000                	unimp
    9000176e:	0000                	unimp
    90001770:	0000                	unimp
    90001772:	0000                	unimp
    90001774:	0000                	unimp
    90001776:	0000                	unimp
    90001778:	0000                	unimp
    9000177a:	0000                	unimp
    9000177c:	0000                	unimp
    9000177e:	0000                	unimp
    90001780:	0000                	unimp
    90001782:	0000                	unimp
    90001784:	0000                	unimp
    90001786:	0000                	unimp
    90001788:	0000                	unimp
    9000178a:	0000                	unimp
    9000178c:	0000                	unimp
    9000178e:	0000                	unimp
    90001790:	0000                	unimp
    90001792:	0000                	unimp
    90001794:	0000                	unimp
    90001796:	0000                	unimp
    90001798:	0000                	unimp
    9000179a:	0000                	unimp
    9000179c:	0000                	unimp
    9000179e:	0000                	unimp
    900017a0:	0000                	unimp
    900017a2:	0000                	unimp
    900017a4:	0000                	unimp
    900017a6:	0000                	unimp
    900017a8:	0000                	unimp
    900017aa:	0000                	unimp
    900017ac:	0000                	unimp
    900017ae:	0000                	unimp
    900017b0:	0000                	unimp
    900017b2:	0000                	unimp
    900017b4:	0000                	unimp
    900017b6:	0000                	unimp
    900017b8:	0000                	unimp
    900017ba:	0000                	unimp
    900017bc:	0000                	unimp
    900017be:	0000                	unimp
    900017c0:	0000                	unimp
    900017c2:	0000                	unimp
    900017c4:	0000                	unimp
    900017c6:	0000                	unimp
    900017c8:	0000                	unimp
    900017ca:	0000                	unimp
    900017cc:	0000                	unimp
    900017ce:	0000                	unimp
    900017d0:	0000                	unimp
    900017d2:	0000                	unimp
    900017d4:	0000                	unimp
    900017d6:	0000                	unimp
    900017d8:	0000                	unimp
    900017da:	0000                	unimp
    900017dc:	0000                	unimp
    900017de:	0000                	unimp
    900017e0:	0000                	unimp
    900017e2:	0000                	unimp
    900017e4:	0000                	unimp
    900017e6:	0000                	unimp
    900017e8:	0000                	unimp
    900017ea:	0000                	unimp
    900017ec:	0000                	unimp
    900017ee:	0000                	unimp
    900017f0:	0000                	unimp
    900017f2:	0000                	unimp
    900017f4:	0000                	unimp
    900017f6:	0000                	unimp
    900017f8:	0000                	unimp
    900017fa:	0000                	unimp
    900017fc:	0000                	unimp
    900017fe:	0000                	unimp
    90001800:	0000                	unimp
    90001802:	0000                	unimp
    90001804:	0000                	unimp
    90001806:	0000                	unimp
    90001808:	0000                	unimp
    9000180a:	0000                	unimp
    9000180c:	0000                	unimp
    9000180e:	0000                	unimp
    90001810:	0000                	unimp
    90001812:	0000                	unimp
    90001814:	0000                	unimp
    90001816:	0000                	unimp
    90001818:	0000                	unimp
    9000181a:	0000                	unimp
    9000181c:	0000                	unimp
    9000181e:	0000                	unimp
    90001820:	0000                	unimp
    90001822:	0000                	unimp
    90001824:	0000                	unimp
    90001826:	0000                	unimp
    90001828:	0000                	unimp
    9000182a:	0000                	unimp
    9000182c:	0000                	unimp
    9000182e:	0000                	unimp
    90001830:	0000                	unimp
    90001832:	0000                	unimp
    90001834:	0000                	unimp
    90001836:	0000                	unimp
    90001838:	0000                	unimp
    9000183a:	0000                	unimp
    9000183c:	0000                	unimp
    9000183e:	0000                	unimp
    90001840:	0000                	unimp
    90001842:	0000                	unimp
    90001844:	0000                	unimp
    90001846:	0000                	unimp
    90001848:	0000                	unimp
    9000184a:	0000                	unimp
    9000184c:	0000                	unimp
    9000184e:	0000                	unimp
    90001850:	0000                	unimp
    90001852:	0000                	unimp
    90001854:	0000                	unimp
    90001856:	0000                	unimp
    90001858:	0000                	unimp
    9000185a:	0000                	unimp
    9000185c:	0000                	unimp
    9000185e:	0000                	unimp
    90001860:	0000                	unimp
    90001862:	0000                	unimp
    90001864:	0000                	unimp
    90001866:	0000                	unimp
    90001868:	0000                	unimp
    9000186a:	0000                	unimp
    9000186c:	0000                	unimp
    9000186e:	0000                	unimp
    90001870:	0000                	unimp
    90001872:	0000                	unimp
    90001874:	0000                	unimp
    90001876:	0000                	unimp
    90001878:	0000                	unimp
    9000187a:	0000                	unimp
    9000187c:	0000                	unimp
    9000187e:	0000                	unimp
    90001880:	0000                	unimp
    90001882:	0000                	unimp
    90001884:	0000                	unimp
    90001886:	0000                	unimp
    90001888:	0000                	unimp
    9000188a:	0000                	unimp
    9000188c:	0000                	unimp
    9000188e:	0000                	unimp
    90001890:	0000                	unimp
    90001892:	0000                	unimp
    90001894:	0000                	unimp
    90001896:	0000                	unimp
    90001898:	0000                	unimp
    9000189a:	0000                	unimp
    9000189c:	0000                	unimp
    9000189e:	0000                	unimp
    900018a0:	0000                	unimp
    900018a2:	0000                	unimp
    900018a4:	0000                	unimp
    900018a6:	0000                	unimp
    900018a8:	0000                	unimp
    900018aa:	0000                	unimp
    900018ac:	0000                	unimp
    900018ae:	0000                	unimp
    900018b0:	0000                	unimp
    900018b2:	0000                	unimp
    900018b4:	0000                	unimp
    900018b6:	0000                	unimp
    900018b8:	0000                	unimp
    900018ba:	0000                	unimp
    900018bc:	0000                	unimp
    900018be:	0000                	unimp
    900018c0:	0000                	unimp
    900018c2:	0000                	unimp
    900018c4:	0000                	unimp
    900018c6:	0000                	unimp
    900018c8:	0000                	unimp
    900018ca:	0000                	unimp
    900018cc:	0000                	unimp
    900018ce:	0000                	unimp
    900018d0:	0000                	unimp
    900018d2:	0000                	unimp
    900018d4:	0000                	unimp
    900018d6:	0000                	unimp
    900018d8:	0000                	unimp
    900018da:	0000                	unimp
    900018dc:	0000                	unimp
    900018de:	0000                	unimp
    900018e0:	0000                	unimp
    900018e2:	0000                	unimp
    900018e4:	0000                	unimp
    900018e6:	0000                	unimp
    900018e8:	0000                	unimp
    900018ea:	0000                	unimp
    900018ec:	0000                	unimp
    900018ee:	0000                	unimp
    900018f0:	0000                	unimp
    900018f2:	0000                	unimp
    900018f4:	0000                	unimp
    900018f6:	0000                	unimp
    900018f8:	0000                	unimp
    900018fa:	0000                	unimp
    900018fc:	0000                	unimp
    900018fe:	0000                	unimp
    90001900:	0000                	unimp
    90001902:	0000                	unimp
    90001904:	0000                	unimp
    90001906:	0000                	unimp
    90001908:	0000                	unimp
    9000190a:	0000                	unimp
    9000190c:	0000                	unimp
    9000190e:	0000                	unimp
    90001910:	0000                	unimp
    90001912:	0000                	unimp
    90001914:	0000                	unimp
    90001916:	0000                	unimp
    90001918:	0000                	unimp
    9000191a:	0000                	unimp
    9000191c:	0000                	unimp
    9000191e:	0000                	unimp
    90001920:	0000                	unimp
    90001922:	0000                	unimp
    90001924:	0000                	unimp
    90001926:	0000                	unimp
    90001928:	0000                	unimp
    9000192a:	0000                	unimp
    9000192c:	0000                	unimp
    9000192e:	0000                	unimp
    90001930:	0000                	unimp
    90001932:	0000                	unimp
    90001934:	0000                	unimp
    90001936:	0000                	unimp
    90001938:	0000                	unimp
    9000193a:	0000                	unimp
    9000193c:	0000                	unimp
    9000193e:	0000                	unimp
    90001940:	0000                	unimp
    90001942:	0000                	unimp
    90001944:	0000                	unimp
    90001946:	0000                	unimp
    90001948:	0000                	unimp
    9000194a:	0000                	unimp
    9000194c:	0000                	unimp
    9000194e:	0000                	unimp
    90001950:	0000                	unimp
    90001952:	0000                	unimp
    90001954:	0000                	unimp
    90001956:	0000                	unimp
    90001958:	0000                	unimp
    9000195a:	0000                	unimp
    9000195c:	0000                	unimp
    9000195e:	0000                	unimp
    90001960:	0000                	unimp
    90001962:	0000                	unimp
    90001964:	0000                	unimp
    90001966:	0000                	unimp
    90001968:	0000                	unimp
    9000196a:	0000                	unimp
    9000196c:	0000                	unimp
    9000196e:	0000                	unimp
    90001970:	0000                	unimp
    90001972:	0000                	unimp
    90001974:	0000                	unimp
    90001976:	0000                	unimp
    90001978:	0000                	unimp
    9000197a:	0000                	unimp
    9000197c:	0000                	unimp
    9000197e:	0000                	unimp
    90001980:	0000                	unimp
    90001982:	0000                	unimp
    90001984:	0000                	unimp
    90001986:	0000                	unimp
    90001988:	0000                	unimp
    9000198a:	0000                	unimp
    9000198c:	0000                	unimp
    9000198e:	0000                	unimp
    90001990:	0000                	unimp
    90001992:	0000                	unimp
    90001994:	0000                	unimp
    90001996:	0000                	unimp
    90001998:	0000                	unimp
    9000199a:	0000                	unimp
    9000199c:	0000                	unimp
    9000199e:	0000                	unimp
    900019a0:	0000                	unimp
    900019a2:	0000                	unimp
    900019a4:	0000                	unimp
    900019a6:	0000                	unimp
    900019a8:	0000                	unimp
    900019aa:	0000                	unimp
    900019ac:	0000                	unimp
    900019ae:	0000                	unimp
    900019b0:	0000                	unimp
    900019b2:	0000                	unimp
    900019b4:	0000                	unimp
    900019b6:	0000                	unimp
    900019b8:	0000                	unimp
    900019ba:	0000                	unimp
    900019bc:	0000                	unimp
    900019be:	0000                	unimp
    900019c0:	0000                	unimp
    900019c2:	0000                	unimp
    900019c4:	0000                	unimp
    900019c6:	0000                	unimp
    900019c8:	0000                	unimp
    900019ca:	0000                	unimp
    900019cc:	0000                	unimp
    900019ce:	0000                	unimp
    900019d0:	0000                	unimp
    900019d2:	0000                	unimp
    900019d4:	0000                	unimp
    900019d6:	0000                	unimp
    900019d8:	0000                	unimp
    900019da:	0000                	unimp
    900019dc:	0000                	unimp
    900019de:	0000                	unimp
    900019e0:	0000                	unimp
    900019e2:	0000                	unimp
    900019e4:	0000                	unimp
    900019e6:	0000                	unimp
    900019e8:	0000                	unimp
    900019ea:	0000                	unimp
    900019ec:	0000                	unimp
    900019ee:	0000                	unimp
    900019f0:	0000                	unimp
    900019f2:	0000                	unimp
    900019f4:	0000                	unimp
    900019f6:	0000                	unimp
    900019f8:	0000                	unimp
    900019fa:	0000                	unimp
    900019fc:	0000                	unimp
    900019fe:	0000                	unimp
    90001a00:	0000                	unimp
    90001a02:	0000                	unimp
    90001a04:	0000                	unimp
    90001a06:	0000                	unimp
    90001a08:	0000                	unimp
    90001a0a:	0000                	unimp
    90001a0c:	0000                	unimp
    90001a0e:	0000                	unimp
    90001a10:	0000                	unimp
    90001a12:	0000                	unimp
    90001a14:	0000                	unimp
    90001a16:	0000                	unimp
    90001a18:	0000                	unimp
    90001a1a:	0000                	unimp
    90001a1c:	0000                	unimp
    90001a1e:	0000                	unimp
    90001a20:	0000                	unimp
    90001a22:	0000                	unimp
    90001a24:	0000                	unimp
    90001a26:	0000                	unimp
    90001a28:	0000                	unimp
    90001a2a:	0000                	unimp
    90001a2c:	0000                	unimp
    90001a2e:	0000                	unimp
    90001a30:	0000                	unimp
    90001a32:	0000                	unimp
    90001a34:	0000                	unimp
    90001a36:	0000                	unimp
    90001a38:	0000                	unimp
    90001a3a:	0000                	unimp
    90001a3c:	0000                	unimp
    90001a3e:	0000                	unimp
    90001a40:	0000                	unimp
    90001a42:	0000                	unimp
    90001a44:	0000                	unimp
    90001a46:	0000                	unimp
    90001a48:	0000                	unimp
    90001a4a:	0000                	unimp
    90001a4c:	0000                	unimp
    90001a4e:	0000                	unimp
    90001a50:	0000                	unimp
    90001a52:	0000                	unimp
    90001a54:	0000                	unimp
    90001a56:	0000                	unimp
    90001a58:	0000                	unimp
    90001a5a:	0000                	unimp
    90001a5c:	0000                	unimp
    90001a5e:	0000                	unimp
    90001a60:	0000                	unimp
    90001a62:	0000                	unimp
    90001a64:	0000                	unimp
    90001a66:	0000                	unimp
    90001a68:	0000                	unimp
    90001a6a:	0000                	unimp
    90001a6c:	0000                	unimp
    90001a6e:	0000                	unimp
    90001a70:	0000                	unimp
    90001a72:	0000                	unimp
    90001a74:	0000                	unimp
    90001a76:	0000                	unimp
    90001a78:	0000                	unimp
    90001a7a:	0000                	unimp
    90001a7c:	0000                	unimp
    90001a7e:	0000                	unimp
    90001a80:	0000                	unimp
    90001a82:	0000                	unimp
    90001a84:	0000                	unimp
    90001a86:	0000                	unimp
    90001a88:	0000                	unimp
    90001a8a:	0000                	unimp
    90001a8c:	0000                	unimp
    90001a8e:	0000                	unimp
    90001a90:	0000                	unimp
    90001a92:	0000                	unimp
    90001a94:	0000                	unimp
    90001a96:	0000                	unimp
    90001a98:	0000                	unimp
    90001a9a:	0000                	unimp
    90001a9c:	0000                	unimp
    90001a9e:	0000                	unimp
    90001aa0:	0000                	unimp
    90001aa2:	0000                	unimp
    90001aa4:	0000                	unimp
    90001aa6:	0000                	unimp
    90001aa8:	0000                	unimp
    90001aaa:	0000                	unimp
    90001aac:	0000                	unimp
    90001aae:	0000                	unimp
    90001ab0:	0000                	unimp
    90001ab2:	0000                	unimp
    90001ab4:	0000                	unimp
    90001ab6:	0000                	unimp
    90001ab8:	0000                	unimp
    90001aba:	0000                	unimp
    90001abc:	0000                	unimp
    90001abe:	0000                	unimp
    90001ac0:	0000                	unimp
    90001ac2:	0000                	unimp
    90001ac4:	0000                	unimp
    90001ac6:	0000                	unimp
    90001ac8:	0000                	unimp
    90001aca:	0000                	unimp
    90001acc:	0000                	unimp
    90001ace:	0000                	unimp
    90001ad0:	0000                	unimp
    90001ad2:	0000                	unimp
    90001ad4:	0000                	unimp
    90001ad6:	0000                	unimp
    90001ad8:	0000                	unimp
    90001ada:	0000                	unimp
    90001adc:	0000                	unimp
    90001ade:	0000                	unimp
    90001ae0:	0000                	unimp
    90001ae2:	0000                	unimp
    90001ae4:	0000                	unimp
    90001ae6:	0000                	unimp
    90001ae8:	0000                	unimp
    90001aea:	0000                	unimp
    90001aec:	0000                	unimp
    90001aee:	0000                	unimp
    90001af0:	0000                	unimp
    90001af2:	0000                	unimp
    90001af4:	0000                	unimp
    90001af6:	0000                	unimp
    90001af8:	0000                	unimp
    90001afa:	0000                	unimp
    90001afc:	0000                	unimp
    90001afe:	0000                	unimp
    90001b00:	0000                	unimp
    90001b02:	0000                	unimp
    90001b04:	0000                	unimp
    90001b06:	0000                	unimp
    90001b08:	0000                	unimp
    90001b0a:	0000                	unimp
    90001b0c:	0000                	unimp
    90001b0e:	0000                	unimp
    90001b10:	0000                	unimp
    90001b12:	0000                	unimp
    90001b14:	0000                	unimp
    90001b16:	0000                	unimp
    90001b18:	0000                	unimp
    90001b1a:	0000                	unimp
    90001b1c:	0000                	unimp
    90001b1e:	0000                	unimp
    90001b20:	0000                	unimp
    90001b22:	0000                	unimp
    90001b24:	0000                	unimp
    90001b26:	0000                	unimp
    90001b28:	0000                	unimp
    90001b2a:	0000                	unimp
    90001b2c:	0000                	unimp
    90001b2e:	0000                	unimp
    90001b30:	0000                	unimp
    90001b32:	0000                	unimp
    90001b34:	0000                	unimp
    90001b36:	0000                	unimp
    90001b38:	0000                	unimp
    90001b3a:	0000                	unimp
    90001b3c:	0000                	unimp
    90001b3e:	0000                	unimp
    90001b40:	0000                	unimp
    90001b42:	0000                	unimp
    90001b44:	0000                	unimp
    90001b46:	0000                	unimp
    90001b48:	0000                	unimp
    90001b4a:	0000                	unimp
    90001b4c:	0000                	unimp
    90001b4e:	0000                	unimp
    90001b50:	0000                	unimp
    90001b52:	0000                	unimp
    90001b54:	0000                	unimp
    90001b56:	0000                	unimp
    90001b58:	0000                	unimp
    90001b5a:	0000                	unimp
    90001b5c:	0000                	unimp
    90001b5e:	0000                	unimp
    90001b60:	0000                	unimp
    90001b62:	0000                	unimp
    90001b64:	0000                	unimp
    90001b66:	0000                	unimp
    90001b68:	0000                	unimp
    90001b6a:	0000                	unimp
    90001b6c:	0000                	unimp
    90001b6e:	0000                	unimp
    90001b70:	0000                	unimp
    90001b72:	0000                	unimp
    90001b74:	0000                	unimp
    90001b76:	0000                	unimp
    90001b78:	0000                	unimp
    90001b7a:	0000                	unimp
    90001b7c:	0000                	unimp
    90001b7e:	0000                	unimp
    90001b80:	0000                	unimp
    90001b82:	0000                	unimp
    90001b84:	0000                	unimp
    90001b86:	0000                	unimp
    90001b88:	0000                	unimp
    90001b8a:	0000                	unimp
    90001b8c:	0000                	unimp
    90001b8e:	0000                	unimp
    90001b90:	0000                	unimp
    90001b92:	0000                	unimp
    90001b94:	0000                	unimp
    90001b96:	0000                	unimp
    90001b98:	0000                	unimp
    90001b9a:	0000                	unimp
    90001b9c:	0000                	unimp
    90001b9e:	0000                	unimp
    90001ba0:	0000                	unimp
    90001ba2:	0000                	unimp
    90001ba4:	0000                	unimp
    90001ba6:	0000                	unimp
    90001ba8:	0000                	unimp
    90001baa:	0000                	unimp
    90001bac:	0000                	unimp
    90001bae:	0000                	unimp
    90001bb0:	0000                	unimp
    90001bb2:	0000                	unimp
    90001bb4:	0000                	unimp
    90001bb6:	0000                	unimp
    90001bb8:	0000                	unimp
    90001bba:	0000                	unimp
    90001bbc:	0000                	unimp
    90001bbe:	0000                	unimp
    90001bc0:	0000                	unimp
    90001bc2:	0000                	unimp
    90001bc4:	0000                	unimp
    90001bc6:	0000                	unimp
    90001bc8:	0000                	unimp
    90001bca:	0000                	unimp
    90001bcc:	0000                	unimp
    90001bce:	0000                	unimp
    90001bd0:	0000                	unimp
    90001bd2:	0000                	unimp
    90001bd4:	0000                	unimp
    90001bd6:	0000                	unimp
    90001bd8:	0000                	unimp
    90001bda:	0000                	unimp
    90001bdc:	0000                	unimp
    90001bde:	0000                	unimp
    90001be0:	0000                	unimp
    90001be2:	0000                	unimp
    90001be4:	0000                	unimp
    90001be6:	0000                	unimp
    90001be8:	0000                	unimp
    90001bea:	0000                	unimp
    90001bec:	0000                	unimp
    90001bee:	0000                	unimp
    90001bf0:	0000                	unimp
    90001bf2:	0000                	unimp
    90001bf4:	0000                	unimp
    90001bf6:	0000                	unimp
    90001bf8:	0000                	unimp
    90001bfa:	0000                	unimp
    90001bfc:	0000                	unimp
    90001bfe:	0000                	unimp
    90001c00:	0000                	unimp
    90001c02:	0000                	unimp
    90001c04:	0000                	unimp
    90001c06:	0000                	unimp
    90001c08:	0000                	unimp
    90001c0a:	0000                	unimp
    90001c0c:	0000                	unimp
    90001c0e:	0000                	unimp
    90001c10:	0000                	unimp
    90001c12:	0000                	unimp
    90001c14:	0000                	unimp
    90001c16:	0000                	unimp
    90001c18:	0000                	unimp
    90001c1a:	0000                	unimp
    90001c1c:	0000                	unimp
    90001c1e:	0000                	unimp
    90001c20:	0000                	unimp
    90001c22:	0000                	unimp
    90001c24:	0000                	unimp
    90001c26:	0000                	unimp
    90001c28:	0000                	unimp
    90001c2a:	0000                	unimp
    90001c2c:	0000                	unimp
    90001c2e:	0000                	unimp
    90001c30:	0000                	unimp
    90001c32:	0000                	unimp
    90001c34:	0000                	unimp
    90001c36:	0000                	unimp
    90001c38:	0000                	unimp
    90001c3a:	0000                	unimp
    90001c3c:	0000                	unimp
    90001c3e:	0000                	unimp
    90001c40:	0000                	unimp
    90001c42:	0000                	unimp
    90001c44:	0000                	unimp
    90001c46:	0000                	unimp
    90001c48:	0000                	unimp
    90001c4a:	0000                	unimp
    90001c4c:	0000                	unimp
    90001c4e:	0000                	unimp
    90001c50:	0000                	unimp
    90001c52:	0000                	unimp
    90001c54:	0000                	unimp
    90001c56:	0000                	unimp
    90001c58:	0000                	unimp
    90001c5a:	0000                	unimp
    90001c5c:	0000                	unimp
    90001c5e:	0000                	unimp
    90001c60:	0000                	unimp
    90001c62:	0000                	unimp
    90001c64:	0000                	unimp
    90001c66:	0000                	unimp
    90001c68:	0000                	unimp
    90001c6a:	0000                	unimp
    90001c6c:	0000                	unimp
    90001c6e:	0000                	unimp
    90001c70:	0000                	unimp
    90001c72:	0000                	unimp
    90001c74:	0000                	unimp
    90001c76:	0000                	unimp
    90001c78:	0000                	unimp
    90001c7a:	0000                	unimp
    90001c7c:	0000                	unimp
    90001c7e:	0000                	unimp
    90001c80:	0000                	unimp
    90001c82:	0000                	unimp
    90001c84:	0000                	unimp
    90001c86:	0000                	unimp
    90001c88:	0000                	unimp
    90001c8a:	0000                	unimp
    90001c8c:	0000                	unimp
    90001c8e:	0000                	unimp
    90001c90:	0000                	unimp
    90001c92:	0000                	unimp
    90001c94:	0000                	unimp
    90001c96:	0000                	unimp
    90001c98:	0000                	unimp
    90001c9a:	0000                	unimp
    90001c9c:	0000                	unimp
    90001c9e:	0000                	unimp
    90001ca0:	0000                	unimp
    90001ca2:	0000                	unimp
    90001ca4:	0000                	unimp
    90001ca6:	0000                	unimp
    90001ca8:	0000                	unimp
    90001caa:	0000                	unimp
    90001cac:	0000                	unimp
    90001cae:	0000                	unimp
    90001cb0:	0000                	unimp
    90001cb2:	0000                	unimp
    90001cb4:	0000                	unimp
    90001cb6:	0000                	unimp
    90001cb8:	0000                	unimp
    90001cba:	0000                	unimp
    90001cbc:	0000                	unimp
    90001cbe:	0000                	unimp
    90001cc0:	0000                	unimp
    90001cc2:	0000                	unimp
    90001cc4:	0000                	unimp
    90001cc6:	0000                	unimp
    90001cc8:	0000                	unimp
    90001cca:	0000                	unimp
    90001ccc:	0000                	unimp
    90001cce:	0000                	unimp
    90001cd0:	0000                	unimp
    90001cd2:	0000                	unimp
    90001cd4:	0000                	unimp
    90001cd6:	0000                	unimp
    90001cd8:	0000                	unimp
    90001cda:	0000                	unimp
    90001cdc:	0000                	unimp
    90001cde:	0000                	unimp
    90001ce0:	0000                	unimp
    90001ce2:	0000                	unimp
    90001ce4:	0000                	unimp
    90001ce6:	0000                	unimp
    90001ce8:	0000                	unimp
    90001cea:	0000                	unimp
    90001cec:	0000                	unimp
    90001cee:	0000                	unimp
    90001cf0:	0000                	unimp
    90001cf2:	0000                	unimp
    90001cf4:	0000                	unimp
    90001cf6:	0000                	unimp
    90001cf8:	0000                	unimp
    90001cfa:	0000                	unimp
    90001cfc:	0000                	unimp
    90001cfe:	0000                	unimp
    90001d00:	0000                	unimp
    90001d02:	0000                	unimp
    90001d04:	0000                	unimp
    90001d06:	0000                	unimp
    90001d08:	0000                	unimp
    90001d0a:	0000                	unimp
    90001d0c:	0000                	unimp
    90001d0e:	0000                	unimp
    90001d10:	0000                	unimp
    90001d12:	0000                	unimp
    90001d14:	0000                	unimp
    90001d16:	0000                	unimp
    90001d18:	0000                	unimp
    90001d1a:	0000                	unimp
    90001d1c:	0000                	unimp
    90001d1e:	0000                	unimp
    90001d20:	0000                	unimp
    90001d22:	0000                	unimp
    90001d24:	0000                	unimp
    90001d26:	0000                	unimp
    90001d28:	0000                	unimp
    90001d2a:	0000                	unimp
    90001d2c:	0000                	unimp
    90001d2e:	0000                	unimp
    90001d30:	0000                	unimp
    90001d32:	0000                	unimp
    90001d34:	0000                	unimp
    90001d36:	0000                	unimp
    90001d38:	0000                	unimp
    90001d3a:	0000                	unimp
    90001d3c:	0000                	unimp
    90001d3e:	0000                	unimp
    90001d40:	0000                	unimp
    90001d42:	0000                	unimp
    90001d44:	0000                	unimp
    90001d46:	0000                	unimp
    90001d48:	0000                	unimp
    90001d4a:	0000                	unimp
    90001d4c:	0000                	unimp
    90001d4e:	0000                	unimp
    90001d50:	0000                	unimp
    90001d52:	0000                	unimp
    90001d54:	0000                	unimp
    90001d56:	0000                	unimp
    90001d58:	0000                	unimp
    90001d5a:	0000                	unimp
    90001d5c:	0000                	unimp
    90001d5e:	0000                	unimp
    90001d60:	0000                	unimp
    90001d62:	0000                	unimp
    90001d64:	0000                	unimp
    90001d66:	0000                	unimp
    90001d68:	0000                	unimp
    90001d6a:	0000                	unimp
    90001d6c:	0000                	unimp
    90001d6e:	0000                	unimp
    90001d70:	0000                	unimp
    90001d72:	0000                	unimp
    90001d74:	0000                	unimp
    90001d76:	0000                	unimp
    90001d78:	0000                	unimp
    90001d7a:	0000                	unimp
    90001d7c:	0000                	unimp
    90001d7e:	0000                	unimp
    90001d80:	0000                	unimp
    90001d82:	0000                	unimp
    90001d84:	0000                	unimp
    90001d86:	0000                	unimp
    90001d88:	0000                	unimp
    90001d8a:	0000                	unimp
    90001d8c:	0000                	unimp
    90001d8e:	0000                	unimp
    90001d90:	0000                	unimp
    90001d92:	0000                	unimp
    90001d94:	0000                	unimp
    90001d96:	0000                	unimp
    90001d98:	0000                	unimp
    90001d9a:	0000                	unimp
    90001d9c:	0000                	unimp
    90001d9e:	0000                	unimp
    90001da0:	0000                	unimp
    90001da2:	0000                	unimp
    90001da4:	0000                	unimp
    90001da6:	0000                	unimp
    90001da8:	0000                	unimp
    90001daa:	0000                	unimp
    90001dac:	0000                	unimp
    90001dae:	0000                	unimp
    90001db0:	0000                	unimp
    90001db2:	0000                	unimp
    90001db4:	0000                	unimp
    90001db6:	0000                	unimp
    90001db8:	0000                	unimp
    90001dba:	0000                	unimp
    90001dbc:	0000                	unimp
    90001dbe:	0000                	unimp
    90001dc0:	0000                	unimp
    90001dc2:	0000                	unimp
    90001dc4:	0000                	unimp
    90001dc6:	0000                	unimp
    90001dc8:	0000                	unimp
    90001dca:	0000                	unimp
    90001dcc:	0000                	unimp
    90001dce:	0000                	unimp
    90001dd0:	0000                	unimp
    90001dd2:	0000                	unimp
    90001dd4:	0000                	unimp
    90001dd6:	0000                	unimp
    90001dd8:	0000                	unimp
    90001dda:	0000                	unimp
    90001ddc:	0000                	unimp
    90001dde:	0000                	unimp
    90001de0:	0000                	unimp
    90001de2:	0000                	unimp
    90001de4:	0000                	unimp
    90001de6:	0000                	unimp
    90001de8:	0000                	unimp
    90001dea:	0000                	unimp
    90001dec:	0000                	unimp
    90001dee:	0000                	unimp
    90001df0:	0000                	unimp
    90001df2:	0000                	unimp
    90001df4:	0000                	unimp
    90001df6:	0000                	unimp
    90001df8:	0000                	unimp
    90001dfa:	0000                	unimp
    90001dfc:	0000                	unimp
    90001dfe:	0000                	unimp
    90001e00:	0000                	unimp
    90001e02:	0000                	unimp
    90001e04:	0000                	unimp
    90001e06:	0000                	unimp
    90001e08:	0000                	unimp
    90001e0a:	0000                	unimp
    90001e0c:	0000                	unimp
    90001e0e:	0000                	unimp
    90001e10:	0000                	unimp
    90001e12:	0000                	unimp
    90001e14:	0000                	unimp
    90001e16:	0000                	unimp
    90001e18:	0000                	unimp
    90001e1a:	0000                	unimp
    90001e1c:	0000                	unimp
    90001e1e:	0000                	unimp
    90001e20:	0000                	unimp
    90001e22:	0000                	unimp
    90001e24:	0000                	unimp
    90001e26:	0000                	unimp
    90001e28:	0000                	unimp
    90001e2a:	0000                	unimp
    90001e2c:	0000                	unimp
    90001e2e:	0000                	unimp
    90001e30:	0000                	unimp
    90001e32:	0000                	unimp
    90001e34:	0000                	unimp
    90001e36:	0000                	unimp
    90001e38:	0000                	unimp
    90001e3a:	0000                	unimp
    90001e3c:	0000                	unimp
    90001e3e:	0000                	unimp
    90001e40:	0000                	unimp
    90001e42:	0000                	unimp
    90001e44:	0000                	unimp
    90001e46:	0000                	unimp
    90001e48:	0000                	unimp
    90001e4a:	0000                	unimp
    90001e4c:	0000                	unimp
    90001e4e:	0000                	unimp
    90001e50:	0000                	unimp
    90001e52:	0000                	unimp
    90001e54:	0000                	unimp
    90001e56:	0000                	unimp
    90001e58:	0000                	unimp
    90001e5a:	0000                	unimp
    90001e5c:	0000                	unimp
    90001e5e:	0000                	unimp
    90001e60:	0000                	unimp
    90001e62:	0000                	unimp
    90001e64:	0000                	unimp
    90001e66:	0000                	unimp
    90001e68:	0000                	unimp
    90001e6a:	0000                	unimp
    90001e6c:	0000                	unimp
    90001e6e:	0000                	unimp
    90001e70:	0000                	unimp
    90001e72:	0000                	unimp
    90001e74:	0000                	unimp
    90001e76:	0000                	unimp
    90001e78:	0000                	unimp
    90001e7a:	0000                	unimp
    90001e7c:	0000                	unimp
    90001e7e:	0000                	unimp
    90001e80:	0000                	unimp
    90001e82:	0000                	unimp
    90001e84:	0000                	unimp
    90001e86:	0000                	unimp
    90001e88:	0000                	unimp
    90001e8a:	0000                	unimp
    90001e8c:	0000                	unimp
    90001e8e:	0000                	unimp
    90001e90:	0000                	unimp
    90001e92:	0000                	unimp
    90001e94:	0000                	unimp
    90001e96:	0000                	unimp
    90001e98:	0000                	unimp
    90001e9a:	0000                	unimp
    90001e9c:	0000                	unimp
    90001e9e:	0000                	unimp
    90001ea0:	0000                	unimp
    90001ea2:	0000                	unimp
    90001ea4:	0000                	unimp
    90001ea6:	0000                	unimp
    90001ea8:	0000                	unimp
    90001eaa:	0000                	unimp
    90001eac:	0000                	unimp
    90001eae:	0000                	unimp
    90001eb0:	0000                	unimp
    90001eb2:	0000                	unimp
    90001eb4:	0000                	unimp
    90001eb6:	0000                	unimp
    90001eb8:	0000                	unimp
    90001eba:	0000                	unimp
    90001ebc:	0000                	unimp
    90001ebe:	0000                	unimp
    90001ec0:	0000                	unimp
    90001ec2:	0000                	unimp
    90001ec4:	0000                	unimp
    90001ec6:	0000                	unimp
    90001ec8:	0000                	unimp
    90001eca:	0000                	unimp
    90001ecc:	0000                	unimp
    90001ece:	0000                	unimp
    90001ed0:	0000                	unimp
    90001ed2:	0000                	unimp
    90001ed4:	0000                	unimp
    90001ed6:	0000                	unimp
    90001ed8:	0000                	unimp
    90001eda:	0000                	unimp
    90001edc:	0000                	unimp
    90001ede:	0000                	unimp
    90001ee0:	0000                	unimp
    90001ee2:	0000                	unimp
    90001ee4:	0000                	unimp
    90001ee6:	0000                	unimp
    90001ee8:	0000                	unimp
    90001eea:	0000                	unimp
    90001eec:	0000                	unimp
    90001eee:	0000                	unimp
    90001ef0:	0000                	unimp
    90001ef2:	0000                	unimp
    90001ef4:	0000                	unimp
    90001ef6:	0000                	unimp
    90001ef8:	0000                	unimp
    90001efa:	0000                	unimp
    90001efc:	0000                	unimp
    90001efe:	0000                	unimp
    90001f00:	0000                	unimp
    90001f02:	0000                	unimp
    90001f04:	0000                	unimp
    90001f06:	0000                	unimp
    90001f08:	0000                	unimp
    90001f0a:	0000                	unimp
    90001f0c:	0000                	unimp
    90001f0e:	0000                	unimp
    90001f10:	0000                	unimp
    90001f12:	0000                	unimp
    90001f14:	0000                	unimp
    90001f16:	0000                	unimp
    90001f18:	0000                	unimp
    90001f1a:	0000                	unimp
    90001f1c:	0000                	unimp
    90001f1e:	0000                	unimp
    90001f20:	0000                	unimp
    90001f22:	0000                	unimp
    90001f24:	0000                	unimp
    90001f26:	0000                	unimp
    90001f28:	0000                	unimp
    90001f2a:	0000                	unimp
    90001f2c:	0000                	unimp
    90001f2e:	0000                	unimp
    90001f30:	0000                	unimp
    90001f32:	0000                	unimp
    90001f34:	0000                	unimp
    90001f36:	0000                	unimp
    90001f38:	0000                	unimp
    90001f3a:	0000                	unimp
    90001f3c:	0000                	unimp
    90001f3e:	0000                	unimp
    90001f40:	0000                	unimp
    90001f42:	0000                	unimp
    90001f44:	0000                	unimp
    90001f46:	0000                	unimp
    90001f48:	0000                	unimp
    90001f4a:	0000                	unimp
    90001f4c:	0000                	unimp
    90001f4e:	0000                	unimp
    90001f50:	0000                	unimp
    90001f52:	0000                	unimp
    90001f54:	0000                	unimp
    90001f56:	0000                	unimp
    90001f58:	0000                	unimp
    90001f5a:	0000                	unimp
    90001f5c:	0000                	unimp
    90001f5e:	0000                	unimp
    90001f60:	0000                	unimp
    90001f62:	0000                	unimp
    90001f64:	0000                	unimp
    90001f66:	0000                	unimp
    90001f68:	0000                	unimp
    90001f6a:	0000                	unimp
    90001f6c:	0000                	unimp
    90001f6e:	0000                	unimp
    90001f70:	0000                	unimp
    90001f72:	0000                	unimp
    90001f74:	0000                	unimp
    90001f76:	0000                	unimp
    90001f78:	0000                	unimp
    90001f7a:	0000                	unimp
    90001f7c:	0000                	unimp
    90001f7e:	0000                	unimp
    90001f80:	0000                	unimp
    90001f82:	0000                	unimp
    90001f84:	0000                	unimp
    90001f86:	0000                	unimp
    90001f88:	0000                	unimp
    90001f8a:	0000                	unimp
    90001f8c:	0000                	unimp
    90001f8e:	0000                	unimp
    90001f90:	0000                	unimp
    90001f92:	0000                	unimp
    90001f94:	0000                	unimp
    90001f96:	0000                	unimp
    90001f98:	0000                	unimp
    90001f9a:	0000                	unimp
    90001f9c:	0000                	unimp
    90001f9e:	0000                	unimp
    90001fa0:	0000                	unimp
    90001fa2:	0000                	unimp
    90001fa4:	0000                	unimp
    90001fa6:	0000                	unimp
    90001fa8:	0000                	unimp
    90001faa:	0000                	unimp
    90001fac:	0000                	unimp
    90001fae:	0000                	unimp
    90001fb0:	0000                	unimp
    90001fb2:	0000                	unimp
    90001fb4:	0000                	unimp
    90001fb6:	0000                	unimp
    90001fb8:	0000                	unimp
    90001fba:	0000                	unimp
    90001fbc:	0000                	unimp
    90001fbe:	0000                	unimp
    90001fc0:	0000                	unimp
    90001fc2:	0000                	unimp
    90001fc4:	0000                	unimp
    90001fc6:	0000                	unimp
    90001fc8:	0000                	unimp
    90001fca:	0000                	unimp
    90001fcc:	0000                	unimp
    90001fce:	0000                	unimp
    90001fd0:	0000                	unimp
    90001fd2:	0000                	unimp
    90001fd4:	0000                	unimp
    90001fd6:	0000                	unimp
    90001fd8:	0000                	unimp
    90001fda:	0000                	unimp
    90001fdc:	0000                	unimp
    90001fde:	0000                	unimp
    90001fe0:	0000                	unimp
    90001fe2:	0000                	unimp
    90001fe4:	0000                	unimp
    90001fe6:	0000                	unimp
    90001fe8:	0000                	unimp
    90001fea:	0000                	unimp
    90001fec:	0000                	unimp
    90001fee:	0000                	unimp
    90001ff0:	0000                	unimp
    90001ff2:	0000                	unimp
    90001ff4:	0000                	unimp
    90001ff6:	0000                	unimp
    90001ff8:	0000                	unimp
    90001ffa:	0000                	unimp
    90001ffc:	0000                	unimp
    90001ffe:	00158593          	addi	a1,a1,1
    90002002:	29b00393          	li	t2,667
    90002006:	00200193          	li	gp,2
    9000200a:	2a759f63          	bne	a1,t2,900022c8 <fail>
    9000200e:	00001137          	lui	sp,0x1
    90002012:	2341011b          	addiw	sp,sp,564

0000000090002016 <test_3>:
    90002016:	1fe8                	addi	a0,sp,1020
    90002018:	000013b7          	lui	t2,0x1
    9000201c:	6303839b          	addiw	t2,t2,1584
    90002020:	00300193          	li	gp,3
    90002024:	2a751263          	bne	a0,t2,900022c8 <fail>

0000000090002028 <test_4>:
    90002028:	617d                	addi	sp,sp,496
    9000202a:	0001                	nop
    9000202c:	000013b7          	lui	t2,0x1
    90002030:	4243839b          	addiw	t2,t2,1060
    90002034:	00400193          	li	gp,4
    90002038:	28711863          	bne	sp,t2,900022c8 <fail>

000000009000203c <test_5>:
    9000203c:	7101                	addi	sp,sp,-512
    9000203e:	0001                	nop
    90002040:	000013b7          	lui	t2,0x1
    90002044:	2243839b          	addiw	t2,t2,548
    90002048:	00500193          	li	gp,5
    9000204c:	26711e63          	bne	sp,t2,900022c8 <fail>
    90002050:	ffffe597          	auipc	a1,0xffffe
    90002054:	13858593          	addi	a1,a1,312 # 90000188 <data>

0000000090002058 <test_6>:
    90002058:	41c8                	lw	a0,4(a1)
    9000205a:	0505                	addi	a0,a0,1
    9000205c:	c1c8                	sw	a0,4(a1)
    9000205e:	41d0                	lw	a2,4(a1)
    90002060:	fedcc3b7          	lui	t2,0xfedcc
    90002064:	a993839b          	addiw	t2,t2,-1383
    90002068:	00600193          	li	gp,6
    9000206c:	24761e63          	bne	a2,t2,900022c8 <fail>

0000000090002070 <test_7>:
    90002070:	6188                	ld	a0,0(a1)
    90002072:	0505                	addi	a0,a0,1
    90002074:	e188                	sd	a0,0(a1)
    90002076:	6190                	ld	a2,0(a1)
    90002078:	fff6e3b7          	lui	t2,0xfff6e
    9000207c:	5d53839b          	addiw	t2,t2,1493
    90002080:	00c39393          	slli	t2,t2,0xc
    90002084:	cbb38393          	addi	t2,t2,-837 # fffffffffff6dcbb <_end+0xffffffff6ff69cbb>
    90002088:	00d39393          	slli	t2,t2,0xd
    9000208c:	54338393          	addi	t2,t2,1347
    90002090:	00c39393          	slli	t2,t2,0xc
    90002094:	21138393          	addi	t2,t2,529
    90002098:	00700193          	li	gp,7
    9000209c:	22761663          	bne	a2,t2,900022c8 <fail>

00000000900020a0 <test_8>:
    900020a0:	00106513          	ori	a0,zero,1
    900020a4:	1541                	addi	a0,a0,-16
    900020a6:	0001                	nop
    900020a8:	ff100393          	li	t2,-15
    900020ac:	00800193          	li	gp,8
    900020b0:	20751c63          	bne	a0,t2,900022c8 <fail>

00000000900020b4 <test_9>:
    900020b4:	00106793          	ori	a5,zero,1
    900020b8:	57c1                	li	a5,-16
    900020ba:	0001                	nop
    900020bc:	ff000393          	li	t2,-16
    900020c0:	00900193          	li	gp,9
    900020c4:	20779263          	bne	a5,t2,900022c8 <fail>

00000000900020c8 <test_10>:
    900020c8:	6188                	ld	a0,0(a1)
    900020ca:	357d                	addiw	a0,a0,-1
    900020cc:	765433b7          	lui	t2,0x76543
    900020d0:	2103839b          	addiw	t2,t2,528
    900020d4:	00a00193          	li	gp,10
    900020d8:	1e751863          	bne	a0,t2,900022c8 <fail>

00000000900020dc <test_11>:
    900020dc:	7405                	lui	s0,0xfffe1
    900020de:	8431                	srai	s0,s0,0xc
    900020e0:	fe100393          	li	t2,-31
    900020e4:	00b00193          	li	gp,11
    900020e8:	1e741063          	bne	s0,t2,900022c8 <fail>

00000000900020ec <test_12>:
    900020ec:	7405                	lui	s0,0xfffe1
    900020ee:	8031                	srli	s0,s0,0xc
    900020f0:	0010039b          	addiw	t2,zero,1
    900020f4:	03439393          	slli	t2,t2,0x34
    900020f8:	fe138393          	addi	t2,t2,-31 # 76542fe1 <_start-0x19abd01f>
    900020fc:	00c00193          	li	gp,12
    90002100:	1c741463          	bne	s0,t2,900022c8 <fail>

0000000090002104 <test_14>:
    90002104:	5479                	li	s0,-2
    90002106:	983d                	andi	s0,s0,-17
    90002108:	fee00393          	li	t2,-18
    9000210c:	00e00193          	li	gp,14
    90002110:	1a741c63          	bne	s0,t2,900022c8 <fail>

0000000090002114 <test_15>:
    90002114:	44d1                	li	s1,20
    90002116:	4519                	li	a0,6
    90002118:	8c89                	sub	s1,s1,a0
    9000211a:	0001                	nop
    9000211c:	00e00393          	li	t2,14
    90002120:	00f00193          	li	gp,15
    90002124:	1a749263          	bne	s1,t2,900022c8 <fail>

0000000090002128 <test_16>:
    90002128:	44d1                	li	s1,20
    9000212a:	4519                	li	a0,6
    9000212c:	8ca9                	xor	s1,s1,a0
    9000212e:	0001                	nop
    90002130:	01200393          	li	t2,18
    90002134:	01000193          	li	gp,16
    90002138:	18749863          	bne	s1,t2,900022c8 <fail>

000000009000213c <test_17>:
    9000213c:	44d1                	li	s1,20
    9000213e:	4519                	li	a0,6
    90002140:	8cc9                	or	s1,s1,a0
    90002142:	0001                	nop
    90002144:	01600393          	li	t2,22
    90002148:	01100193          	li	gp,17
    9000214c:	16749e63          	bne	s1,t2,900022c8 <fail>

0000000090002150 <test_18>:
    90002150:	44d1                	li	s1,20
    90002152:	4519                	li	a0,6
    90002154:	8ce9                	and	s1,s1,a0
    90002156:	0001                	nop
    90002158:	00400393          	li	t2,4
    9000215c:	01200193          	li	gp,18
    90002160:	16749463          	bne	s1,t2,900022c8 <fail>

0000000090002164 <test_19>:
    90002164:	800004b7          	lui	s1,0x80000
    90002168:	34fd                	addiw	s1,s1,-1
    9000216a:	557d                	li	a0,-1
    9000216c:	9c89                	subw	s1,s1,a0
    9000216e:	0001                	nop
    90002170:	800003b7          	lui	t2,0x80000
    90002174:	01300193          	li	gp,19
    90002178:	14749863          	bne	s1,t2,900022c8 <fail>

000000009000217c <test_20>:
    9000217c:	800004b7          	lui	s1,0x80000
    90002180:	34fd                	addiw	s1,s1,-1
    90002182:	4505                	li	a0,1
    90002184:	9ca9                	addw	s1,s1,a0
    90002186:	0001                	nop
    90002188:	800003b7          	lui	t2,0x80000
    9000218c:	01400193          	li	gp,20
    90002190:	12749c63          	bne	s1,t2,900022c8 <fail>

0000000090002194 <test_21>:
    90002194:	6405                	lui	s0,0x1
    90002196:	2344041b          	addiw	s0,s0,564
    9000219a:	0412                	slli	s0,s0,0x4
    9000219c:	000123b7          	lui	t2,0x12
    900021a0:	3403839b          	addiw	t2,t2,832
    900021a4:	01500193          	li	gp,21
    900021a8:	12741063          	bne	s0,t2,900022c8 <fail>

00000000900021ac <test_30>:
    900021ac:	4081                	li	ra,0
    900021ae:	a011                	j	900021b2 <test_30+0x6>
    900021b0:	a011                	j	900021b4 <test_30+0x8>
    900021b2:	a011                	j	900021b6 <test_30+0xa>
    900021b4:	aa11                	j	900022c8 <fail>
    900021b6:	0001                	nop
    900021b8:	00000393          	li	t2,0
    900021bc:	01e00193          	li	gp,30
    900021c0:	10709463          	bne	ra,t2,900022c8 <fail>

00000000900021c4 <test_31>:
    900021c4:	4501                	li	a0,0
    900021c6:	c111                	beqz	a0,900021ca <test_31+0x6>
    900021c8:	a011                	j	900021cc <test_31+0x8>
    900021ca:	a011                	j	900021ce <test_31+0xa>
    900021cc:	a8f5                	j	900022c8 <fail>
    900021ce:	0001                	nop
    900021d0:	00000393          	li	t2,0
    900021d4:	01f00193          	li	gp,31
    900021d8:	0e701863          	bne	zero,t2,900022c8 <fail>

00000000900021dc <test_32>:
    900021dc:	4505                	li	a0,1
    900021de:	e111                	bnez	a0,900021e2 <test_32+0x6>
    900021e0:	a011                	j	900021e4 <test_32+0x8>
    900021e2:	a011                	j	900021e6 <test_32+0xa>
    900021e4:	a0d5                	j	900022c8 <fail>
    900021e6:	0001                	nop
    900021e8:	00000393          	li	t2,0
    900021ec:	02000193          	li	gp,32
    900021f0:	0c701c63          	bne	zero,t2,900022c8 <fail>

00000000900021f4 <test_33>:
    900021f4:	4505                	li	a0,1
    900021f6:	c111                	beqz	a0,900021fa <test_33+0x6>
    900021f8:	a011                	j	900021fc <test_33+0x8>
    900021fa:	a0f9                	j	900022c8 <fail>
    900021fc:	00000393          	li	t2,0
    90002200:	02100193          	li	gp,33
    90002204:	0c701263          	bne	zero,t2,900022c8 <fail>

0000000090002208 <test_34>:
    90002208:	4501                	li	a0,0
    9000220a:	e111                	bnez	a0,9000220e <test_34+0x6>
    9000220c:	a011                	j	90002210 <test_34+0x8>
    9000220e:	a86d                	j	900022c8 <fail>
    90002210:	00000393          	li	t2,0
    90002214:	02200193          	li	gp,34
    90002218:	0a701863          	bne	zero,t2,900022c8 <fail>

000000009000221c <test_35>:
    9000221c:	00000297          	auipc	t0,0x0
    90002220:	00e28293          	addi	t0,t0,14 # 9000222a <test_35+0xe>
    90002224:	4081                	li	ra,0
    90002226:	8282                	jr	t0
    90002228:	a011                	j	9000222c <test_35+0x10>
    9000222a:	a011                	j	9000222e <test_35+0x12>
    9000222c:	a871                	j	900022c8 <fail>
    9000222e:	0001                	nop
    90002230:	00000393          	li	t2,0
    90002234:	02300193          	li	gp,35
    90002238:	08709863          	bne	ra,t2,900022c8 <fail>

000000009000223c <test_36>:
    9000223c:	00000297          	auipc	t0,0x0
    90002240:	00e28293          	addi	t0,t0,14 # 9000224a <test_36+0xe>
    90002244:	4081                	li	ra,0
    90002246:	9282                	jalr	t0
    90002248:	a011                	j	9000224c <test_36+0x10>
    9000224a:	a011                	j	9000224e <test_36+0x12>
    9000224c:	a8b5                	j	900022c8 <fail>
    9000224e:	405080b3          	sub	ra,ra,t0
    90002252:	0001                	nop
    90002254:	ffe00393          	li	t2,-2
    90002258:	02400193          	li	gp,36
    9000225c:	06709663          	bne	ra,t2,900022c8 <fail>
    90002260:	ffffe117          	auipc	sp,0xffffe
    90002264:	f2810113          	addi	sp,sp,-216 # 90000188 <data>

0000000090002268 <test_40>:
    90002268:	4532                	lw	a0,12(sp)
    9000226a:	0505                	addi	a0,a0,1
    9000226c:	c62a                	sw	a0,12(sp)
    9000226e:	4632                	lw	a2,12(sp)
    90002270:	fedcc3b7          	lui	t2,0xfedcc
    90002274:	a993839b          	addiw	t2,t2,-1383
    90002278:	02800193          	li	gp,40
    9000227c:	04761663          	bne	a2,t2,900022c8 <fail>

0000000090002280 <test_41>:
    90002280:	6522                	ld	a0,8(sp)
    90002282:	0505                	addi	a0,a0,1
    90002284:	e42a                	sd	a0,8(sp)
    90002286:	6622                	ld	a2,8(sp)
    90002288:	fff6e3b7          	lui	t2,0xfff6e
    9000228c:	5d53839b          	addiw	t2,t2,1493
    90002290:	00c39393          	slli	t2,t2,0xc
    90002294:	cbb38393          	addi	t2,t2,-837 # fffffffffff6dcbb <_end+0xffffffff6ff69cbb>
    90002298:	00d39393          	slli	t2,t2,0xd
    9000229c:	54338393          	addi	t2,t2,1347
    900022a0:	00c39393          	slli	t2,t2,0xc
    900022a4:	21138393          	addi	t2,t2,529
    900022a8:	02900193          	li	gp,41
    900022ac:	00761e63          	bne	a2,t2,900022c8 <fail>

00000000900022b0 <test_42>:
    900022b0:	12300513          	li	a0,291
    900022b4:	82aa                	mv	t0,a0
    900022b6:	92aa                	add	t0,t0,a0
    900022b8:	24600393          	li	t2,582
    900022bc:	02a00193          	li	gp,42
    900022c0:	00729463          	bne	t0,t2,900022c8 <fail>
    900022c4:	02301063          	bne	zero,gp,900022e4 <pass>

00000000900022c8 <fail>:
    900022c8:	0ff0000f          	fence
    900022cc:	00018063          	beqz	gp,900022cc <fail+0x4>
    900022d0:	00119193          	slli	gp,gp,0x1
    900022d4:	0011e193          	ori	gp,gp,1
    900022d8:	05d00893          	li	a7,93
    900022dc:	00018513          	mv	a0,gp
    900022e0:	00000073          	ecall

00000000900022e4 <pass>:
    900022e4:	0ff0000f          	fence
    900022e8:	00100193          	li	gp,1
    900022ec:	05d00893          	li	a7,93
    900022f0:	00000513          	li	a0,0
    900022f4:	00000073          	ecall
    900022f8:	c0001073          	unimp
    900022fc:	0000                	unimp
    900022fe:	0000                	unimp
    90002300:	0000                	unimp
    90002302:	0000                	unimp
    90002304:	0000                	unimp
    90002306:	0000                	unimp
    90002308:	0000                	unimp
    9000230a:	0000                	unimp
    9000230c:	0000                	unimp
    9000230e:	0000                	unimp
    90002310:	0000                	unimp
    90002312:	0000                	unimp
    90002314:	0000                	unimp
    90002316:	0000                	unimp
    90002318:	0000                	unimp
    9000231a:	0000                	unimp
    9000231c:	0000                	unimp
    9000231e:	0000                	unimp
    90002320:	0000                	unimp
    90002322:	0000                	unimp
    90002324:	0000                	unimp
    90002326:	0000                	unimp
    90002328:	0000                	unimp
    9000232a:	0000                	unimp
    9000232c:	0000                	unimp
    9000232e:	0000                	unimp
    90002330:	0000                	unimp
    90002332:	0000                	unimp
    90002334:	0000                	unimp
    90002336:	0000                	unimp
    90002338:	0000                	unimp
    9000233a:	0000                	unimp
    9000233c:	0000                	unimp
    9000233e:	0000                	unimp
    90002340:	0000                	unimp
    90002342:	0000                	unimp
    90002344:	0000                	unimp
    90002346:	0000                	unimp
    90002348:	0000                	unimp
    9000234a:	0000                	unimp
    9000234c:	0000                	unimp
    9000234e:	0000                	unimp
    90002350:	0000                	unimp
    90002352:	0000                	unimp
    90002354:	0000                	unimp
    90002356:	0000                	unimp
    90002358:	0000                	unimp
    9000235a:	0000                	unimp
    9000235c:	0000                	unimp
    9000235e:	0000                	unimp
    90002360:	0000                	unimp
    90002362:	0000                	unimp
    90002364:	0000                	unimp
    90002366:	0000                	unimp
    90002368:	0000                	unimp
    9000236a:	0000                	unimp
    9000236c:	0000                	unimp
    9000236e:	0000                	unimp
    90002370:	0000                	unimp
    90002372:	0000                	unimp
    90002374:	0000                	unimp
    90002376:	0000                	unimp
    90002378:	0000                	unimp
    9000237a:	0000                	unimp
    9000237c:	0000                	unimp
    9000237e:	0000                	unimp
    90002380:	0000                	unimp
    90002382:	0000                	unimp
    90002384:	0000                	unimp
    90002386:	0000                	unimp
    90002388:	0000                	unimp
    9000238a:	0000                	unimp
    9000238c:	0000                	unimp
    9000238e:	0000                	unimp
    90002390:	0000                	unimp
    90002392:	0000                	unimp
    90002394:	0000                	unimp
    90002396:	0000                	unimp
    90002398:	0000                	unimp
    9000239a:	0000                	unimp
    9000239c:	0000                	unimp
    9000239e:	0000                	unimp
    900023a0:	0000                	unimp
    900023a2:	0000                	unimp
    900023a4:	0000                	unimp
    900023a6:	0000                	unimp
    900023a8:	0000                	unimp
    900023aa:	0000                	unimp
    900023ac:	0000                	unimp
    900023ae:	0000                	unimp
    900023b0:	0000                	unimp
    900023b2:	0000                	unimp
    900023b4:	0000                	unimp
    900023b6:	0000                	unimp
    900023b8:	0000                	unimp
    900023ba:	0000                	unimp
    900023bc:	0000                	unimp
    900023be:	0000                	unimp
    900023c0:	0000                	unimp
    900023c2:	0000                	unimp
    900023c4:	0000                	unimp
    900023c6:	0000                	unimp
    900023c8:	0000                	unimp
    900023ca:	0000                	unimp
    900023cc:	0000                	unimp
    900023ce:	0000                	unimp
    900023d0:	0000                	unimp
    900023d2:	0000                	unimp
    900023d4:	0000                	unimp
    900023d6:	0000                	unimp
    900023d8:	0000                	unimp
    900023da:	0000                	unimp
    900023dc:	0000                	unimp
    900023de:	0000                	unimp
    900023e0:	0000                	unimp
    900023e2:	0000                	unimp
    900023e4:	0000                	unimp
    900023e6:	0000                	unimp
    900023e8:	0000                	unimp
    900023ea:	0000                	unimp
    900023ec:	0000                	unimp
    900023ee:	0000                	unimp
    900023f0:	0000                	unimp
    900023f2:	0000                	unimp
    900023f4:	0000                	unimp
    900023f6:	0000                	unimp
    900023f8:	0000                	unimp
    900023fa:	0000                	unimp
    900023fc:	0000                	unimp
    900023fe:	0000                	unimp
    90002400:	0000                	unimp
    90002402:	0000                	unimp
    90002404:	0000                	unimp
    90002406:	0000                	unimp
    90002408:	0000                	unimp
    9000240a:	0000                	unimp
    9000240c:	0000                	unimp
    9000240e:	0000                	unimp
    90002410:	0000                	unimp
    90002412:	0000                	unimp
    90002414:	0000                	unimp
    90002416:	0000                	unimp
    90002418:	0000                	unimp
    9000241a:	0000                	unimp
    9000241c:	0000                	unimp
    9000241e:	0000                	unimp
    90002420:	0000                	unimp
    90002422:	0000                	unimp
    90002424:	0000                	unimp
    90002426:	0000                	unimp
    90002428:	0000                	unimp
    9000242a:	0000                	unimp
    9000242c:	0000                	unimp
    9000242e:	0000                	unimp
    90002430:	0000                	unimp
    90002432:	0000                	unimp
    90002434:	0000                	unimp
    90002436:	0000                	unimp
    90002438:	0000                	unimp
    9000243a:	0000                	unimp
    9000243c:	0000                	unimp
    9000243e:	0000                	unimp
    90002440:	0000                	unimp
    90002442:	0000                	unimp
    90002444:	0000                	unimp
    90002446:	0000                	unimp
    90002448:	0000                	unimp
    9000244a:	0000                	unimp
    9000244c:	0000                	unimp
    9000244e:	0000                	unimp
    90002450:	0000                	unimp
    90002452:	0000                	unimp
    90002454:	0000                	unimp
    90002456:	0000                	unimp
    90002458:	0000                	unimp
    9000245a:	0000                	unimp
    9000245c:	0000                	unimp
    9000245e:	0000                	unimp
    90002460:	0000                	unimp
    90002462:	0000                	unimp
    90002464:	0000                	unimp
    90002466:	0000                	unimp
    90002468:	0000                	unimp
    9000246a:	0000                	unimp
    9000246c:	0000                	unimp
    9000246e:	0000                	unimp
    90002470:	0000                	unimp
    90002472:	0000                	unimp
    90002474:	0000                	unimp
    90002476:	0000                	unimp
    90002478:	0000                	unimp
    9000247a:	0000                	unimp
    9000247c:	0000                	unimp
    9000247e:	0000                	unimp
    90002480:	0000                	unimp
    90002482:	0000                	unimp
    90002484:	0000                	unimp
    90002486:	0000                	unimp
    90002488:	0000                	unimp
    9000248a:	0000                	unimp
    9000248c:	0000                	unimp
    9000248e:	0000                	unimp
    90002490:	0000                	unimp
    90002492:	0000                	unimp
    90002494:	0000                	unimp
    90002496:	0000                	unimp
    90002498:	0000                	unimp
    9000249a:	0000                	unimp
    9000249c:	0000                	unimp
    9000249e:	0000                	unimp
    900024a0:	0000                	unimp
    900024a2:	0000                	unimp
    900024a4:	0000                	unimp
    900024a6:	0000                	unimp
    900024a8:	0000                	unimp
    900024aa:	0000                	unimp
    900024ac:	0000                	unimp
    900024ae:	0000                	unimp
    900024b0:	0000                	unimp
    900024b2:	0000                	unimp
    900024b4:	0000                	unimp
    900024b6:	0000                	unimp
    900024b8:	0000                	unimp
    900024ba:	0000                	unimp
    900024bc:	0000                	unimp
    900024be:	0000                	unimp
    900024c0:	0000                	unimp
    900024c2:	0000                	unimp
    900024c4:	0000                	unimp
    900024c6:	0000                	unimp
    900024c8:	0000                	unimp
    900024ca:	0000                	unimp
    900024cc:	0000                	unimp
    900024ce:	0000                	unimp
    900024d0:	0000                	unimp
    900024d2:	0000                	unimp
    900024d4:	0000                	unimp
    900024d6:	0000                	unimp
    900024d8:	0000                	unimp
    900024da:	0000                	unimp
    900024dc:	0000                	unimp
    900024de:	0000                	unimp
    900024e0:	0000                	unimp
    900024e2:	0000                	unimp
    900024e4:	0000                	unimp
    900024e6:	0000                	unimp
    900024e8:	0000                	unimp
    900024ea:	0000                	unimp
    900024ec:	0000                	unimp
    900024ee:	0000                	unimp
    900024f0:	0000                	unimp
    900024f2:	0000                	unimp
    900024f4:	0000                	unimp
    900024f6:	0000                	unimp
    900024f8:	0000                	unimp
    900024fa:	0000                	unimp
    900024fc:	0000                	unimp
    900024fe:	0000                	unimp
    90002500:	0000                	unimp
    90002502:	0000                	unimp
    90002504:	0000                	unimp
    90002506:	0000                	unimp
    90002508:	0000                	unimp
    9000250a:	0000                	unimp
    9000250c:	0000                	unimp
    9000250e:	0000                	unimp
    90002510:	0000                	unimp
    90002512:	0000                	unimp
    90002514:	0000                	unimp
    90002516:	0000                	unimp
    90002518:	0000                	unimp
    9000251a:	0000                	unimp
    9000251c:	0000                	unimp
    9000251e:	0000                	unimp
    90002520:	0000                	unimp
    90002522:	0000                	unimp
    90002524:	0000                	unimp
    90002526:	0000                	unimp
    90002528:	0000                	unimp
    9000252a:	0000                	unimp
    9000252c:	0000                	unimp
    9000252e:	0000                	unimp
    90002530:	0000                	unimp
    90002532:	0000                	unimp
    90002534:	0000                	unimp
    90002536:	0000                	unimp
    90002538:	0000                	unimp
    9000253a:	0000                	unimp
    9000253c:	0000                	unimp
    9000253e:	0000                	unimp
    90002540:	0000                	unimp
    90002542:	0000                	unimp
    90002544:	0000                	unimp
    90002546:	0000                	unimp
    90002548:	0000                	unimp
    9000254a:	0000                	unimp
    9000254c:	0000                	unimp
    9000254e:	0000                	unimp
    90002550:	0000                	unimp
    90002552:	0000                	unimp
    90002554:	0000                	unimp
    90002556:	0000                	unimp
    90002558:	0000                	unimp
    9000255a:	0000                	unimp
    9000255c:	0000                	unimp
    9000255e:	0000                	unimp
    90002560:	0000                	unimp
    90002562:	0000                	unimp
    90002564:	0000                	unimp
    90002566:	0000                	unimp
    90002568:	0000                	unimp
    9000256a:	0000                	unimp
    9000256c:	0000                	unimp
    9000256e:	0000                	unimp
    90002570:	0000                	unimp
    90002572:	0000                	unimp
    90002574:	0000                	unimp
    90002576:	0000                	unimp
    90002578:	0000                	unimp
    9000257a:	0000                	unimp
    9000257c:	0000                	unimp
    9000257e:	0000                	unimp
    90002580:	0000                	unimp
    90002582:	0000                	unimp
    90002584:	0000                	unimp
    90002586:	0000                	unimp
    90002588:	0000                	unimp
    9000258a:	0000                	unimp
    9000258c:	0000                	unimp
    9000258e:	0000                	unimp
    90002590:	0000                	unimp
    90002592:	0000                	unimp
    90002594:	0000                	unimp
    90002596:	0000                	unimp
    90002598:	0000                	unimp
    9000259a:	0000                	unimp
    9000259c:	0000                	unimp
    9000259e:	0000                	unimp
    900025a0:	0000                	unimp
    900025a2:	0000                	unimp
    900025a4:	0000                	unimp
    900025a6:	0000                	unimp
    900025a8:	0000                	unimp
    900025aa:	0000                	unimp
    900025ac:	0000                	unimp
    900025ae:	0000                	unimp
    900025b0:	0000                	unimp
    900025b2:	0000                	unimp
    900025b4:	0000                	unimp
    900025b6:	0000                	unimp
    900025b8:	0000                	unimp
    900025ba:	0000                	unimp
    900025bc:	0000                	unimp
    900025be:	0000                	unimp
    900025c0:	0000                	unimp
    900025c2:	0000                	unimp
    900025c4:	0000                	unimp
    900025c6:	0000                	unimp
    900025c8:	0000                	unimp
    900025ca:	0000                	unimp
    900025cc:	0000                	unimp
    900025ce:	0000                	unimp
    900025d0:	0000                	unimp
    900025d2:	0000                	unimp
    900025d4:	0000                	unimp
    900025d6:	0000                	unimp
    900025d8:	0000                	unimp
    900025da:	0000                	unimp
    900025dc:	0000                	unimp
    900025de:	0000                	unimp
    900025e0:	0000                	unimp
    900025e2:	0000                	unimp
    900025e4:	0000                	unimp
    900025e6:	0000                	unimp
    900025e8:	0000                	unimp
    900025ea:	0000                	unimp
    900025ec:	0000                	unimp
    900025ee:	0000                	unimp
    900025f0:	0000                	unimp
    900025f2:	0000                	unimp
    900025f4:	0000                	unimp
    900025f6:	0000                	unimp
    900025f8:	0000                	unimp
    900025fa:	0000                	unimp
    900025fc:	0000                	unimp
    900025fe:	0000                	unimp
    90002600:	0000                	unimp
    90002602:	0000                	unimp
    90002604:	0000                	unimp
    90002606:	0000                	unimp
    90002608:	0000                	unimp
    9000260a:	0000                	unimp
    9000260c:	0000                	unimp
    9000260e:	0000                	unimp
    90002610:	0000                	unimp
    90002612:	0000                	unimp
    90002614:	0000                	unimp
    90002616:	0000                	unimp
    90002618:	0000                	unimp
    9000261a:	0000                	unimp
    9000261c:	0000                	unimp
    9000261e:	0000                	unimp
    90002620:	0000                	unimp
    90002622:	0000                	unimp
    90002624:	0000                	unimp
    90002626:	0000                	unimp
    90002628:	0000                	unimp
    9000262a:	0000                	unimp
    9000262c:	0000                	unimp
    9000262e:	0000                	unimp
    90002630:	0000                	unimp
    90002632:	0000                	unimp
    90002634:	0000                	unimp
    90002636:	0000                	unimp
    90002638:	0000                	unimp
    9000263a:	0000                	unimp
    9000263c:	0000                	unimp
    9000263e:	0000                	unimp
    90002640:	0000                	unimp
    90002642:	0000                	unimp
    90002644:	0000                	unimp
    90002646:	0000                	unimp
    90002648:	0000                	unimp
    9000264a:	0000                	unimp
    9000264c:	0000                	unimp
    9000264e:	0000                	unimp
    90002650:	0000                	unimp
    90002652:	0000                	unimp
    90002654:	0000                	unimp
    90002656:	0000                	unimp
    90002658:	0000                	unimp
    9000265a:	0000                	unimp
    9000265c:	0000                	unimp
    9000265e:	0000                	unimp
    90002660:	0000                	unimp
    90002662:	0000                	unimp
    90002664:	0000                	unimp
    90002666:	0000                	unimp
    90002668:	0000                	unimp
    9000266a:	0000                	unimp
    9000266c:	0000                	unimp
    9000266e:	0000                	unimp
    90002670:	0000                	unimp
    90002672:	0000                	unimp
    90002674:	0000                	unimp
    90002676:	0000                	unimp
    90002678:	0000                	unimp
    9000267a:	0000                	unimp
    9000267c:	0000                	unimp
    9000267e:	0000                	unimp
    90002680:	0000                	unimp
    90002682:	0000                	unimp
    90002684:	0000                	unimp
    90002686:	0000                	unimp
    90002688:	0000                	unimp
    9000268a:	0000                	unimp
    9000268c:	0000                	unimp
    9000268e:	0000                	unimp
    90002690:	0000                	unimp
    90002692:	0000                	unimp
    90002694:	0000                	unimp
    90002696:	0000                	unimp
    90002698:	0000                	unimp
    9000269a:	0000                	unimp
    9000269c:	0000                	unimp
    9000269e:	0000                	unimp
    900026a0:	0000                	unimp
    900026a2:	0000                	unimp
    900026a4:	0000                	unimp
    900026a6:	0000                	unimp
    900026a8:	0000                	unimp
    900026aa:	0000                	unimp
    900026ac:	0000                	unimp
    900026ae:	0000                	unimp
    900026b0:	0000                	unimp
    900026b2:	0000                	unimp
    900026b4:	0000                	unimp
    900026b6:	0000                	unimp
    900026b8:	0000                	unimp
    900026ba:	0000                	unimp
    900026bc:	0000                	unimp
    900026be:	0000                	unimp
    900026c0:	0000                	unimp
    900026c2:	0000                	unimp
    900026c4:	0000                	unimp
    900026c6:	0000                	unimp
    900026c8:	0000                	unimp
    900026ca:	0000                	unimp
    900026cc:	0000                	unimp
    900026ce:	0000                	unimp
    900026d0:	0000                	unimp
    900026d2:	0000                	unimp
    900026d4:	0000                	unimp
    900026d6:	0000                	unimp
    900026d8:	0000                	unimp
    900026da:	0000                	unimp
    900026dc:	0000                	unimp
    900026de:	0000                	unimp
    900026e0:	0000                	unimp
    900026e2:	0000                	unimp
    900026e4:	0000                	unimp
    900026e6:	0000                	unimp
    900026e8:	0000                	unimp
    900026ea:	0000                	unimp
    900026ec:	0000                	unimp
    900026ee:	0000                	unimp
    900026f0:	0000                	unimp
    900026f2:	0000                	unimp
    900026f4:	0000                	unimp
    900026f6:	0000                	unimp
    900026f8:	0000                	unimp
    900026fa:	0000                	unimp
    900026fc:	0000                	unimp
    900026fe:	0000                	unimp
    90002700:	0000                	unimp
    90002702:	0000                	unimp
    90002704:	0000                	unimp
    90002706:	0000                	unimp
    90002708:	0000                	unimp
    9000270a:	0000                	unimp
    9000270c:	0000                	unimp
    9000270e:	0000                	unimp
    90002710:	0000                	unimp
    90002712:	0000                	unimp
    90002714:	0000                	unimp
    90002716:	0000                	unimp
    90002718:	0000                	unimp
    9000271a:	0000                	unimp
    9000271c:	0000                	unimp
    9000271e:	0000                	unimp
    90002720:	0000                	unimp
    90002722:	0000                	unimp
    90002724:	0000                	unimp
    90002726:	0000                	unimp
    90002728:	0000                	unimp
    9000272a:	0000                	unimp
    9000272c:	0000                	unimp
    9000272e:	0000                	unimp
    90002730:	0000                	unimp
    90002732:	0000                	unimp
    90002734:	0000                	unimp
    90002736:	0000                	unimp
    90002738:	0000                	unimp
    9000273a:	0000                	unimp
    9000273c:	0000                	unimp
    9000273e:	0000                	unimp
    90002740:	0000                	unimp
    90002742:	0000                	unimp
    90002744:	0000                	unimp
    90002746:	0000                	unimp
    90002748:	0000                	unimp
    9000274a:	0000                	unimp
    9000274c:	0000                	unimp
    9000274e:	0000                	unimp
    90002750:	0000                	unimp
    90002752:	0000                	unimp
    90002754:	0000                	unimp
    90002756:	0000                	unimp
    90002758:	0000                	unimp
    9000275a:	0000                	unimp
    9000275c:	0000                	unimp
    9000275e:	0000                	unimp
    90002760:	0000                	unimp
    90002762:	0000                	unimp
    90002764:	0000                	unimp
    90002766:	0000                	unimp
    90002768:	0000                	unimp
    9000276a:	0000                	unimp
    9000276c:	0000                	unimp
    9000276e:	0000                	unimp
    90002770:	0000                	unimp
    90002772:	0000                	unimp
    90002774:	0000                	unimp
    90002776:	0000                	unimp
    90002778:	0000                	unimp
    9000277a:	0000                	unimp
    9000277c:	0000                	unimp
    9000277e:	0000                	unimp
    90002780:	0000                	unimp
    90002782:	0000                	unimp
    90002784:	0000                	unimp
    90002786:	0000                	unimp
    90002788:	0000                	unimp
    9000278a:	0000                	unimp
    9000278c:	0000                	unimp
    9000278e:	0000                	unimp
    90002790:	0000                	unimp
    90002792:	0000                	unimp
    90002794:	0000                	unimp
    90002796:	0000                	unimp
    90002798:	0000                	unimp
    9000279a:	0000                	unimp
    9000279c:	0000                	unimp
    9000279e:	0000                	unimp
    900027a0:	0000                	unimp
    900027a2:	0000                	unimp
    900027a4:	0000                	unimp
    900027a6:	0000                	unimp
    900027a8:	0000                	unimp
    900027aa:	0000                	unimp
    900027ac:	0000                	unimp
    900027ae:	0000                	unimp
    900027b0:	0000                	unimp
    900027b2:	0000                	unimp
    900027b4:	0000                	unimp
    900027b6:	0000                	unimp
    900027b8:	0000                	unimp
    900027ba:	0000                	unimp
    900027bc:	0000                	unimp
    900027be:	0000                	unimp
    900027c0:	0000                	unimp
    900027c2:	0000                	unimp
    900027c4:	0000                	unimp
    900027c6:	0000                	unimp
    900027c8:	0000                	unimp
    900027ca:	0000                	unimp
    900027cc:	0000                	unimp
    900027ce:	0000                	unimp
    900027d0:	0000                	unimp
    900027d2:	0000                	unimp
    900027d4:	0000                	unimp
    900027d6:	0000                	unimp
    900027d8:	0000                	unimp
    900027da:	0000                	unimp
    900027dc:	0000                	unimp
    900027de:	0000                	unimp
    900027e0:	0000                	unimp
    900027e2:	0000                	unimp
    900027e4:	0000                	unimp
    900027e6:	0000                	unimp
    900027e8:	0000                	unimp
    900027ea:	0000                	unimp
    900027ec:	0000                	unimp
    900027ee:	0000                	unimp
    900027f0:	0000                	unimp
    900027f2:	0000                	unimp
    900027f4:	0000                	unimp
    900027f6:	0000                	unimp
    900027f8:	0000                	unimp
    900027fa:	0000                	unimp
    900027fc:	0000                	unimp
    900027fe:	0000                	unimp
    90002800:	0000                	unimp
    90002802:	0000                	unimp
    90002804:	0000                	unimp
    90002806:	0000                	unimp
    90002808:	0000                	unimp
    9000280a:	0000                	unimp
    9000280c:	0000                	unimp
    9000280e:	0000                	unimp
    90002810:	0000                	unimp
    90002812:	0000                	unimp
    90002814:	0000                	unimp
    90002816:	0000                	unimp
    90002818:	0000                	unimp
    9000281a:	0000                	unimp
    9000281c:	0000                	unimp
    9000281e:	0000                	unimp
    90002820:	0000                	unimp
    90002822:	0000                	unimp
    90002824:	0000                	unimp
    90002826:	0000                	unimp
    90002828:	0000                	unimp
    9000282a:	0000                	unimp
    9000282c:	0000                	unimp
    9000282e:	0000                	unimp
    90002830:	0000                	unimp
    90002832:	0000                	unimp
    90002834:	0000                	unimp
    90002836:	0000                	unimp
    90002838:	0000                	unimp
    9000283a:	0000                	unimp
    9000283c:	0000                	unimp
    9000283e:	0000                	unimp
    90002840:	0000                	unimp
    90002842:	0000                	unimp
    90002844:	0000                	unimp
    90002846:	0000                	unimp
    90002848:	0000                	unimp
    9000284a:	0000                	unimp
    9000284c:	0000                	unimp
    9000284e:	0000                	unimp
    90002850:	0000                	unimp
    90002852:	0000                	unimp
    90002854:	0000                	unimp
    90002856:	0000                	unimp
    90002858:	0000                	unimp
    9000285a:	0000                	unimp
    9000285c:	0000                	unimp
    9000285e:	0000                	unimp
    90002860:	0000                	unimp
    90002862:	0000                	unimp
    90002864:	0000                	unimp
    90002866:	0000                	unimp
    90002868:	0000                	unimp
    9000286a:	0000                	unimp
    9000286c:	0000                	unimp
    9000286e:	0000                	unimp
    90002870:	0000                	unimp
    90002872:	0000                	unimp
    90002874:	0000                	unimp
    90002876:	0000                	unimp
    90002878:	0000                	unimp
    9000287a:	0000                	unimp
    9000287c:	0000                	unimp
    9000287e:	0000                	unimp
    90002880:	0000                	unimp
    90002882:	0000                	unimp
    90002884:	0000                	unimp
    90002886:	0000                	unimp
    90002888:	0000                	unimp
    9000288a:	0000                	unimp
    9000288c:	0000                	unimp
    9000288e:	0000                	unimp
    90002890:	0000                	unimp
    90002892:	0000                	unimp
    90002894:	0000                	unimp
    90002896:	0000                	unimp
    90002898:	0000                	unimp
    9000289a:	0000                	unimp
    9000289c:	0000                	unimp
    9000289e:	0000                	unimp
    900028a0:	0000                	unimp
    900028a2:	0000                	unimp
    900028a4:	0000                	unimp
    900028a6:	0000                	unimp
    900028a8:	0000                	unimp
    900028aa:	0000                	unimp
    900028ac:	0000                	unimp
    900028ae:	0000                	unimp
    900028b0:	0000                	unimp
    900028b2:	0000                	unimp
    900028b4:	0000                	unimp
    900028b6:	0000                	unimp
    900028b8:	0000                	unimp
    900028ba:	0000                	unimp
    900028bc:	0000                	unimp
    900028be:	0000                	unimp
    900028c0:	0000                	unimp
    900028c2:	0000                	unimp
    900028c4:	0000                	unimp
    900028c6:	0000                	unimp
    900028c8:	0000                	unimp
    900028ca:	0000                	unimp
    900028cc:	0000                	unimp
    900028ce:	0000                	unimp
    900028d0:	0000                	unimp
    900028d2:	0000                	unimp
    900028d4:	0000                	unimp
    900028d6:	0000                	unimp
    900028d8:	0000                	unimp
    900028da:	0000                	unimp
    900028dc:	0000                	unimp
    900028de:	0000                	unimp
    900028e0:	0000                	unimp
    900028e2:	0000                	unimp
    900028e4:	0000                	unimp
    900028e6:	0000                	unimp
    900028e8:	0000                	unimp
    900028ea:	0000                	unimp
    900028ec:	0000                	unimp
    900028ee:	0000                	unimp
    900028f0:	0000                	unimp
    900028f2:	0000                	unimp
    900028f4:	0000                	unimp
    900028f6:	0000                	unimp
    900028f8:	0000                	unimp
    900028fa:	0000                	unimp
    900028fc:	0000                	unimp
    900028fe:	0000                	unimp
    90002900:	0000                	unimp
    90002902:	0000                	unimp
    90002904:	0000                	unimp
    90002906:	0000                	unimp
    90002908:	0000                	unimp
    9000290a:	0000                	unimp
    9000290c:	0000                	unimp
    9000290e:	0000                	unimp
    90002910:	0000                	unimp
    90002912:	0000                	unimp
    90002914:	0000                	unimp
    90002916:	0000                	unimp
    90002918:	0000                	unimp
    9000291a:	0000                	unimp
    9000291c:	0000                	unimp
    9000291e:	0000                	unimp
    90002920:	0000                	unimp
    90002922:	0000                	unimp
    90002924:	0000                	unimp
    90002926:	0000                	unimp
    90002928:	0000                	unimp
    9000292a:	0000                	unimp
    9000292c:	0000                	unimp
    9000292e:	0000                	unimp
    90002930:	0000                	unimp
    90002932:	0000                	unimp
    90002934:	0000                	unimp
    90002936:	0000                	unimp
    90002938:	0000                	unimp
    9000293a:	0000                	unimp
    9000293c:	0000                	unimp
    9000293e:	0000                	unimp
    90002940:	0000                	unimp
    90002942:	0000                	unimp
    90002944:	0000                	unimp
    90002946:	0000                	unimp
    90002948:	0000                	unimp
    9000294a:	0000                	unimp
    9000294c:	0000                	unimp
    9000294e:	0000                	unimp
    90002950:	0000                	unimp
    90002952:	0000                	unimp
    90002954:	0000                	unimp
    90002956:	0000                	unimp
    90002958:	0000                	unimp
    9000295a:	0000                	unimp
    9000295c:	0000                	unimp
    9000295e:	0000                	unimp
    90002960:	0000                	unimp
    90002962:	0000                	unimp
    90002964:	0000                	unimp
    90002966:	0000                	unimp
    90002968:	0000                	unimp
    9000296a:	0000                	unimp
    9000296c:	0000                	unimp
    9000296e:	0000                	unimp
    90002970:	0000                	unimp
    90002972:	0000                	unimp
    90002974:	0000                	unimp
    90002976:	0000                	unimp
    90002978:	0000                	unimp
    9000297a:	0000                	unimp
    9000297c:	0000                	unimp
    9000297e:	0000                	unimp
    90002980:	0000                	unimp
    90002982:	0000                	unimp
    90002984:	0000                	unimp
    90002986:	0000                	unimp
    90002988:	0000                	unimp
    9000298a:	0000                	unimp
    9000298c:	0000                	unimp
    9000298e:	0000                	unimp
    90002990:	0000                	unimp
    90002992:	0000                	unimp
    90002994:	0000                	unimp
    90002996:	0000                	unimp
    90002998:	0000                	unimp
    9000299a:	0000                	unimp
    9000299c:	0000                	unimp
    9000299e:	0000                	unimp
    900029a0:	0000                	unimp
    900029a2:	0000                	unimp
    900029a4:	0000                	unimp
    900029a6:	0000                	unimp
    900029a8:	0000                	unimp
    900029aa:	0000                	unimp
    900029ac:	0000                	unimp
    900029ae:	0000                	unimp
    900029b0:	0000                	unimp
    900029b2:	0000                	unimp
    900029b4:	0000                	unimp
    900029b6:	0000                	unimp
    900029b8:	0000                	unimp
    900029ba:	0000                	unimp
    900029bc:	0000                	unimp
    900029be:	0000                	unimp
    900029c0:	0000                	unimp
    900029c2:	0000                	unimp
    900029c4:	0000                	unimp
    900029c6:	0000                	unimp
    900029c8:	0000                	unimp
    900029ca:	0000                	unimp
    900029cc:	0000                	unimp
    900029ce:	0000                	unimp
    900029d0:	0000                	unimp
    900029d2:	0000                	unimp
    900029d4:	0000                	unimp
    900029d6:	0000                	unimp
    900029d8:	0000                	unimp
    900029da:	0000                	unimp
    900029dc:	0000                	unimp
    900029de:	0000                	unimp
    900029e0:	0000                	unimp
    900029e2:	0000                	unimp
    900029e4:	0000                	unimp
    900029e6:	0000                	unimp
    900029e8:	0000                	unimp
    900029ea:	0000                	unimp
    900029ec:	0000                	unimp
    900029ee:	0000                	unimp
    900029f0:	0000                	unimp
    900029f2:	0000                	unimp
    900029f4:	0000                	unimp
    900029f6:	0000                	unimp
    900029f8:	0000                	unimp
    900029fa:	0000                	unimp
    900029fc:	0000                	unimp
    900029fe:	0000                	unimp
    90002a00:	0000                	unimp
    90002a02:	0000                	unimp
    90002a04:	0000                	unimp
    90002a06:	0000                	unimp
    90002a08:	0000                	unimp
    90002a0a:	0000                	unimp
    90002a0c:	0000                	unimp
    90002a0e:	0000                	unimp
    90002a10:	0000                	unimp
    90002a12:	0000                	unimp
    90002a14:	0000                	unimp
    90002a16:	0000                	unimp
    90002a18:	0000                	unimp
    90002a1a:	0000                	unimp
    90002a1c:	0000                	unimp
    90002a1e:	0000                	unimp
    90002a20:	0000                	unimp
    90002a22:	0000                	unimp
    90002a24:	0000                	unimp
    90002a26:	0000                	unimp
    90002a28:	0000                	unimp
    90002a2a:	0000                	unimp
    90002a2c:	0000                	unimp
    90002a2e:	0000                	unimp
    90002a30:	0000                	unimp
    90002a32:	0000                	unimp
    90002a34:	0000                	unimp
    90002a36:	0000                	unimp
    90002a38:	0000                	unimp
    90002a3a:	0000                	unimp
    90002a3c:	0000                	unimp
    90002a3e:	0000                	unimp
    90002a40:	0000                	unimp
    90002a42:	0000                	unimp
    90002a44:	0000                	unimp
    90002a46:	0000                	unimp
    90002a48:	0000                	unimp
    90002a4a:	0000                	unimp
    90002a4c:	0000                	unimp
    90002a4e:	0000                	unimp
    90002a50:	0000                	unimp
    90002a52:	0000                	unimp
    90002a54:	0000                	unimp
    90002a56:	0000                	unimp
    90002a58:	0000                	unimp
    90002a5a:	0000                	unimp
    90002a5c:	0000                	unimp
    90002a5e:	0000                	unimp
    90002a60:	0000                	unimp
    90002a62:	0000                	unimp
    90002a64:	0000                	unimp
    90002a66:	0000                	unimp
    90002a68:	0000                	unimp
    90002a6a:	0000                	unimp
    90002a6c:	0000                	unimp
    90002a6e:	0000                	unimp
    90002a70:	0000                	unimp
    90002a72:	0000                	unimp
    90002a74:	0000                	unimp
    90002a76:	0000                	unimp
    90002a78:	0000                	unimp
    90002a7a:	0000                	unimp
    90002a7c:	0000                	unimp
    90002a7e:	0000                	unimp
    90002a80:	0000                	unimp
    90002a82:	0000                	unimp
    90002a84:	0000                	unimp
    90002a86:	0000                	unimp
    90002a88:	0000                	unimp
    90002a8a:	0000                	unimp
    90002a8c:	0000                	unimp
    90002a8e:	0000                	unimp
    90002a90:	0000                	unimp
    90002a92:	0000                	unimp
    90002a94:	0000                	unimp
    90002a96:	0000                	unimp
    90002a98:	0000                	unimp
    90002a9a:	0000                	unimp
    90002a9c:	0000                	unimp
    90002a9e:	0000                	unimp
    90002aa0:	0000                	unimp
    90002aa2:	0000                	unimp
    90002aa4:	0000                	unimp
    90002aa6:	0000                	unimp
    90002aa8:	0000                	unimp
    90002aaa:	0000                	unimp
    90002aac:	0000                	unimp
    90002aae:	0000                	unimp
    90002ab0:	0000                	unimp
    90002ab2:	0000                	unimp
    90002ab4:	0000                	unimp
    90002ab6:	0000                	unimp
    90002ab8:	0000                	unimp
    90002aba:	0000                	unimp
    90002abc:	0000                	unimp
    90002abe:	0000                	unimp
    90002ac0:	0000                	unimp
    90002ac2:	0000                	unimp
    90002ac4:	0000                	unimp
    90002ac6:	0000                	unimp
    90002ac8:	0000                	unimp
    90002aca:	0000                	unimp
    90002acc:	0000                	unimp
    90002ace:	0000                	unimp
    90002ad0:	0000                	unimp
    90002ad2:	0000                	unimp
    90002ad4:	0000                	unimp
    90002ad6:	0000                	unimp
    90002ad8:	0000                	unimp
    90002ada:	0000                	unimp
    90002adc:	0000                	unimp
    90002ade:	0000                	unimp
    90002ae0:	0000                	unimp
    90002ae2:	0000                	unimp
    90002ae4:	0000                	unimp
    90002ae6:	0000                	unimp
    90002ae8:	0000                	unimp
    90002aea:	0000                	unimp
    90002aec:	0000                	unimp
    90002aee:	0000                	unimp
    90002af0:	0000                	unimp
    90002af2:	0000                	unimp
    90002af4:	0000                	unimp
    90002af6:	0000                	unimp
    90002af8:	0000                	unimp
    90002afa:	0000                	unimp
    90002afc:	0000                	unimp
    90002afe:	0000                	unimp
    90002b00:	0000                	unimp
    90002b02:	0000                	unimp
    90002b04:	0000                	unimp
    90002b06:	0000                	unimp
    90002b08:	0000                	unimp
    90002b0a:	0000                	unimp
    90002b0c:	0000                	unimp
    90002b0e:	0000                	unimp
    90002b10:	0000                	unimp
    90002b12:	0000                	unimp
    90002b14:	0000                	unimp
    90002b16:	0000                	unimp
    90002b18:	0000                	unimp
    90002b1a:	0000                	unimp
    90002b1c:	0000                	unimp
    90002b1e:	0000                	unimp
    90002b20:	0000                	unimp
    90002b22:	0000                	unimp
    90002b24:	0000                	unimp
    90002b26:	0000                	unimp
    90002b28:	0000                	unimp
    90002b2a:	0000                	unimp
    90002b2c:	0000                	unimp
    90002b2e:	0000                	unimp
    90002b30:	0000                	unimp
    90002b32:	0000                	unimp
    90002b34:	0000                	unimp
    90002b36:	0000                	unimp
    90002b38:	0000                	unimp
    90002b3a:	0000                	unimp
    90002b3c:	0000                	unimp
    90002b3e:	0000                	unimp
    90002b40:	0000                	unimp
    90002b42:	0000                	unimp
    90002b44:	0000                	unimp
    90002b46:	0000                	unimp
    90002b48:	0000                	unimp
    90002b4a:	0000                	unimp
    90002b4c:	0000                	unimp
    90002b4e:	0000                	unimp
    90002b50:	0000                	unimp
    90002b52:	0000                	unimp
    90002b54:	0000                	unimp
    90002b56:	0000                	unimp
    90002b58:	0000                	unimp
    90002b5a:	0000                	unimp
    90002b5c:	0000                	unimp
    90002b5e:	0000                	unimp
    90002b60:	0000                	unimp
    90002b62:	0000                	unimp
    90002b64:	0000                	unimp
    90002b66:	0000                	unimp
    90002b68:	0000                	unimp
    90002b6a:	0000                	unimp
    90002b6c:	0000                	unimp
    90002b6e:	0000                	unimp
    90002b70:	0000                	unimp
    90002b72:	0000                	unimp
    90002b74:	0000                	unimp
    90002b76:	0000                	unimp
    90002b78:	0000                	unimp
    90002b7a:	0000                	unimp
    90002b7c:	0000                	unimp
    90002b7e:	0000                	unimp
    90002b80:	0000                	unimp
    90002b82:	0000                	unimp
    90002b84:	0000                	unimp
    90002b86:	0000                	unimp
    90002b88:	0000                	unimp
    90002b8a:	0000                	unimp
    90002b8c:	0000                	unimp
    90002b8e:	0000                	unimp
    90002b90:	0000                	unimp
    90002b92:	0000                	unimp
    90002b94:	0000                	unimp
    90002b96:	0000                	unimp
    90002b98:	0000                	unimp
    90002b9a:	0000                	unimp
    90002b9c:	0000                	unimp
    90002b9e:	0000                	unimp
    90002ba0:	0000                	unimp
    90002ba2:	0000                	unimp
    90002ba4:	0000                	unimp
    90002ba6:	0000                	unimp
    90002ba8:	0000                	unimp
    90002baa:	0000                	unimp
    90002bac:	0000                	unimp
    90002bae:	0000                	unimp
    90002bb0:	0000                	unimp
    90002bb2:	0000                	unimp
    90002bb4:	0000                	unimp
    90002bb6:	0000                	unimp
    90002bb8:	0000                	unimp
    90002bba:	0000                	unimp
    90002bbc:	0000                	unimp
    90002bbe:	0000                	unimp
    90002bc0:	0000                	unimp
    90002bc2:	0000                	unimp
    90002bc4:	0000                	unimp
    90002bc6:	0000                	unimp
    90002bc8:	0000                	unimp
    90002bca:	0000                	unimp
    90002bcc:	0000                	unimp
    90002bce:	0000                	unimp
    90002bd0:	0000                	unimp
    90002bd2:	0000                	unimp
    90002bd4:	0000                	unimp
    90002bd6:	0000                	unimp
    90002bd8:	0000                	unimp
    90002bda:	0000                	unimp
    90002bdc:	0000                	unimp
    90002bde:	0000                	unimp
    90002be0:	0000                	unimp
    90002be2:	0000                	unimp
    90002be4:	0000                	unimp
    90002be6:	0000                	unimp
    90002be8:	0000                	unimp
    90002bea:	0000                	unimp
    90002bec:	0000                	unimp
    90002bee:	0000                	unimp
    90002bf0:	0000                	unimp
    90002bf2:	0000                	unimp
    90002bf4:	0000                	unimp
    90002bf6:	0000                	unimp
    90002bf8:	0000                	unimp
    90002bfa:	0000                	unimp
    90002bfc:	0000                	unimp
    90002bfe:	0000                	unimp
    90002c00:	0000                	unimp
    90002c02:	0000                	unimp
    90002c04:	0000                	unimp
    90002c06:	0000                	unimp
    90002c08:	0000                	unimp
    90002c0a:	0000                	unimp
    90002c0c:	0000                	unimp
    90002c0e:	0000                	unimp
    90002c10:	0000                	unimp
    90002c12:	0000                	unimp
    90002c14:	0000                	unimp
    90002c16:	0000                	unimp
    90002c18:	0000                	unimp
    90002c1a:	0000                	unimp
    90002c1c:	0000                	unimp
    90002c1e:	0000                	unimp
    90002c20:	0000                	unimp
    90002c22:	0000                	unimp
    90002c24:	0000                	unimp
    90002c26:	0000                	unimp
    90002c28:	0000                	unimp
    90002c2a:	0000                	unimp
    90002c2c:	0000                	unimp
    90002c2e:	0000                	unimp
    90002c30:	0000                	unimp
    90002c32:	0000                	unimp
    90002c34:	0000                	unimp
    90002c36:	0000                	unimp
    90002c38:	0000                	unimp
    90002c3a:	0000                	unimp
    90002c3c:	0000                	unimp
    90002c3e:	0000                	unimp
    90002c40:	0000                	unimp
    90002c42:	0000                	unimp
    90002c44:	0000                	unimp
    90002c46:	0000                	unimp
    90002c48:	0000                	unimp
    90002c4a:	0000                	unimp
    90002c4c:	0000                	unimp
    90002c4e:	0000                	unimp
    90002c50:	0000                	unimp
    90002c52:	0000                	unimp
    90002c54:	0000                	unimp
    90002c56:	0000                	unimp
    90002c58:	0000                	unimp
    90002c5a:	0000                	unimp
    90002c5c:	0000                	unimp
    90002c5e:	0000                	unimp
    90002c60:	0000                	unimp
    90002c62:	0000                	unimp
    90002c64:	0000                	unimp
    90002c66:	0000                	unimp
    90002c68:	0000                	unimp
    90002c6a:	0000                	unimp
    90002c6c:	0000                	unimp
    90002c6e:	0000                	unimp
    90002c70:	0000                	unimp
    90002c72:	0000                	unimp
    90002c74:	0000                	unimp
    90002c76:	0000                	unimp
    90002c78:	0000                	unimp
    90002c7a:	0000                	unimp
    90002c7c:	0000                	unimp
    90002c7e:	0000                	unimp
    90002c80:	0000                	unimp
    90002c82:	0000                	unimp
    90002c84:	0000                	unimp
    90002c86:	0000                	unimp
    90002c88:	0000                	unimp
    90002c8a:	0000                	unimp
    90002c8c:	0000                	unimp
    90002c8e:	0000                	unimp
    90002c90:	0000                	unimp
    90002c92:	0000                	unimp
    90002c94:	0000                	unimp
    90002c96:	0000                	unimp
    90002c98:	0000                	unimp
    90002c9a:	0000                	unimp
    90002c9c:	0000                	unimp
    90002c9e:	0000                	unimp
    90002ca0:	0000                	unimp
    90002ca2:	0000                	unimp
    90002ca4:	0000                	unimp
    90002ca6:	0000                	unimp
    90002ca8:	0000                	unimp
    90002caa:	0000                	unimp
    90002cac:	0000                	unimp
    90002cae:	0000                	unimp
    90002cb0:	0000                	unimp
    90002cb2:	0000                	unimp
    90002cb4:	0000                	unimp
    90002cb6:	0000                	unimp
    90002cb8:	0000                	unimp
    90002cba:	0000                	unimp
    90002cbc:	0000                	unimp
    90002cbe:	0000                	unimp
    90002cc0:	0000                	unimp
    90002cc2:	0000                	unimp
    90002cc4:	0000                	unimp
    90002cc6:	0000                	unimp
    90002cc8:	0000                	unimp
    90002cca:	0000                	unimp
    90002ccc:	0000                	unimp
    90002cce:	0000                	unimp
    90002cd0:	0000                	unimp
    90002cd2:	0000                	unimp
    90002cd4:	0000                	unimp
    90002cd6:	0000                	unimp
    90002cd8:	0000                	unimp
    90002cda:	0000                	unimp
    90002cdc:	0000                	unimp
    90002cde:	0000                	unimp
    90002ce0:	0000                	unimp
    90002ce2:	0000                	unimp
    90002ce4:	0000                	unimp
    90002ce6:	0000                	unimp
    90002ce8:	0000                	unimp
    90002cea:	0000                	unimp
    90002cec:	0000                	unimp
    90002cee:	0000                	unimp
    90002cf0:	0000                	unimp
    90002cf2:	0000                	unimp
    90002cf4:	0000                	unimp
    90002cf6:	0000                	unimp
    90002cf8:	0000                	unimp
    90002cfa:	0000                	unimp
    90002cfc:	0000                	unimp
    90002cfe:	0000                	unimp
    90002d00:	0000                	unimp
    90002d02:	0000                	unimp
    90002d04:	0000                	unimp
    90002d06:	0000                	unimp
    90002d08:	0000                	unimp
    90002d0a:	0000                	unimp
    90002d0c:	0000                	unimp
    90002d0e:	0000                	unimp
    90002d10:	0000                	unimp
    90002d12:	0000                	unimp
    90002d14:	0000                	unimp
    90002d16:	0000                	unimp
    90002d18:	0000                	unimp
    90002d1a:	0000                	unimp
    90002d1c:	0000                	unimp
    90002d1e:	0000                	unimp
    90002d20:	0000                	unimp
    90002d22:	0000                	unimp
    90002d24:	0000                	unimp
    90002d26:	0000                	unimp
    90002d28:	0000                	unimp
    90002d2a:	0000                	unimp
    90002d2c:	0000                	unimp
    90002d2e:	0000                	unimp
    90002d30:	0000                	unimp
    90002d32:	0000                	unimp
    90002d34:	0000                	unimp
    90002d36:	0000                	unimp
    90002d38:	0000                	unimp
    90002d3a:	0000                	unimp
    90002d3c:	0000                	unimp
    90002d3e:	0000                	unimp
    90002d40:	0000                	unimp
    90002d42:	0000                	unimp
    90002d44:	0000                	unimp
    90002d46:	0000                	unimp
    90002d48:	0000                	unimp
    90002d4a:	0000                	unimp
    90002d4c:	0000                	unimp
    90002d4e:	0000                	unimp
    90002d50:	0000                	unimp
    90002d52:	0000                	unimp
    90002d54:	0000                	unimp
    90002d56:	0000                	unimp
    90002d58:	0000                	unimp
    90002d5a:	0000                	unimp
    90002d5c:	0000                	unimp
    90002d5e:	0000                	unimp
    90002d60:	0000                	unimp
    90002d62:	0000                	unimp
    90002d64:	0000                	unimp
    90002d66:	0000                	unimp
    90002d68:	0000                	unimp
    90002d6a:	0000                	unimp
    90002d6c:	0000                	unimp
    90002d6e:	0000                	unimp
    90002d70:	0000                	unimp
    90002d72:	0000                	unimp
    90002d74:	0000                	unimp
    90002d76:	0000                	unimp
    90002d78:	0000                	unimp
    90002d7a:	0000                	unimp
    90002d7c:	0000                	unimp
    90002d7e:	0000                	unimp
    90002d80:	0000                	unimp
    90002d82:	0000                	unimp
    90002d84:	0000                	unimp
    90002d86:	0000                	unimp
    90002d88:	0000                	unimp
    90002d8a:	0000                	unimp
    90002d8c:	0000                	unimp
    90002d8e:	0000                	unimp
    90002d90:	0000                	unimp
    90002d92:	0000                	unimp
    90002d94:	0000                	unimp
    90002d96:	0000                	unimp
    90002d98:	0000                	unimp
    90002d9a:	0000                	unimp
    90002d9c:	0000                	unimp
    90002d9e:	0000                	unimp
    90002da0:	0000                	unimp
    90002da2:	0000                	unimp
    90002da4:	0000                	unimp
    90002da6:	0000                	unimp
    90002da8:	0000                	unimp
    90002daa:	0000                	unimp
    90002dac:	0000                	unimp
    90002dae:	0000                	unimp
    90002db0:	0000                	unimp
    90002db2:	0000                	unimp
    90002db4:	0000                	unimp
    90002db6:	0000                	unimp
    90002db8:	0000                	unimp
    90002dba:	0000                	unimp
    90002dbc:	0000                	unimp
    90002dbe:	0000                	unimp
    90002dc0:	0000                	unimp
    90002dc2:	0000                	unimp
    90002dc4:	0000                	unimp
    90002dc6:	0000                	unimp
    90002dc8:	0000                	unimp
    90002dca:	0000                	unimp
    90002dcc:	0000                	unimp
    90002dce:	0000                	unimp
    90002dd0:	0000                	unimp
    90002dd2:	0000                	unimp
    90002dd4:	0000                	unimp
    90002dd6:	0000                	unimp
    90002dd8:	0000                	unimp
    90002dda:	0000                	unimp
    90002ddc:	0000                	unimp
    90002dde:	0000                	unimp
    90002de0:	0000                	unimp
    90002de2:	0000                	unimp
    90002de4:	0000                	unimp
    90002de6:	0000                	unimp
    90002de8:	0000                	unimp
    90002dea:	0000                	unimp
    90002dec:	0000                	unimp
    90002dee:	0000                	unimp
    90002df0:	0000                	unimp
    90002df2:	0000                	unimp
    90002df4:	0000                	unimp
    90002df6:	0000                	unimp
    90002df8:	0000                	unimp
    90002dfa:	0000                	unimp
    90002dfc:	0000                	unimp
    90002dfe:	0000                	unimp
    90002e00:	0000                	unimp
    90002e02:	0000                	unimp
    90002e04:	0000                	unimp
    90002e06:	0000                	unimp
    90002e08:	0000                	unimp
    90002e0a:	0000                	unimp
    90002e0c:	0000                	unimp
