
rv64ud-v-fcvt_w:     file format elf64-littleriscv


Disassembly of section .text.init:

0000000090000000 <_start>:
    90000000:	00c0006f          	j	9000000c <handle_reset>

0000000090000004 <nmi_vector>:
    90000004:	2c80206f          	j	900022cc <wtf>

0000000090000008 <trap_vector>:
    90000008:	2c40206f          	j	900022cc <wtf>

000000009000000c <handle_reset>:
    9000000c:	00000093          	li	ra,0
    90000010:	00000113          	li	sp,0
    90000014:	00000193          	li	gp,0
    90000018:	00000213          	li	tp,0
    9000001c:	00000293          	li	t0,0
    90000020:	00000313          	li	t1,0
    90000024:	00000393          	li	t2,0
    90000028:	00000413          	li	s0,0
    9000002c:	00000493          	li	s1,0
    90000030:	00000513          	li	a0,0
    90000034:	00000593          	li	a1,0
    90000038:	00000613          	li	a2,0
    9000003c:	00000693          	li	a3,0
    90000040:	00000713          	li	a4,0
    90000044:	00000793          	li	a5,0
    90000048:	00000813          	li	a6,0
    9000004c:	00000893          	li	a7,0
    90000050:	00000913          	li	s2,0
    90000054:	00000993          	li	s3,0
    90000058:	00000a13          	li	s4,0
    9000005c:	00000a93          	li	s5,0
    90000060:	00000b13          	li	s6,0
    90000064:	00000b93          	li	s7,0
    90000068:	00000c13          	li	s8,0
    9000006c:	00000c93          	li	s9,0
    90000070:	00000d13          	li	s10,0
    90000074:	00000d93          	li	s11,0
    90000078:	00000e13          	li	t3,0
    9000007c:	00000e93          	li	t4,0
    90000080:	00000f13          	li	t5,0
    90000084:	00000f93          	li	t6,0
    90000088:	00000297          	auipc	t0,0x0
    9000008c:	f8028293          	addi	t0,t0,-128 # 90000008 <trap_vector>
    90000090:	30529073          	csrw	mtvec,t0
    90000094:	0000b117          	auipc	sp,0xb
    90000098:	e4c10113          	addi	sp,sp,-436 # 9000aee0 <freelist_head+0xed8>
    9000009c:	f14022f3          	csrr	t0,mhartid
    900000a0:	00c29293          	slli	t0,t0,0xc
    900000a4:	00510133          	add	sp,sp,t0
    900000a8:	34011073          	csrw	mscratch,sp
    900000ac:	0b9020ef          	jal	ra,90002964 <extra_boot>
    900000b0:	00003517          	auipc	a0,0x3
    900000b4:	8b850513          	addi	a0,a0,-1864 # 90002968 <userstart>
    900000b8:	6b00206f          	j	90002768 <vm_boot>

00000000900000bc <pop_tf>:
    900000bc:	10853283          	ld	t0,264(a0)
    900000c0:	14129073          	csrw	sepc,t0
    900000c4:	00853083          	ld	ra,8(a0)
    900000c8:	01053103          	ld	sp,16(a0)
    900000cc:	01853183          	ld	gp,24(a0)
    900000d0:	02053203          	ld	tp,32(a0)
    900000d4:	02853283          	ld	t0,40(a0)
    900000d8:	03053303          	ld	t1,48(a0)
    900000dc:	03853383          	ld	t2,56(a0)
    900000e0:	04053403          	ld	s0,64(a0)
    900000e4:	04853483          	ld	s1,72(a0)
    900000e8:	05853583          	ld	a1,88(a0)
    900000ec:	06053603          	ld	a2,96(a0)
    900000f0:	06853683          	ld	a3,104(a0)
    900000f4:	07053703          	ld	a4,112(a0)
    900000f8:	07853783          	ld	a5,120(a0)
    900000fc:	08053803          	ld	a6,128(a0)
    90000100:	08853883          	ld	a7,136(a0)
    90000104:	09053903          	ld	s2,144(a0)
    90000108:	09853983          	ld	s3,152(a0)
    9000010c:	0a053a03          	ld	s4,160(a0)
    90000110:	0a853a83          	ld	s5,168(a0)
    90000114:	0b053b03          	ld	s6,176(a0)
    90000118:	0b853b83          	ld	s7,184(a0)
    9000011c:	0c053c03          	ld	s8,192(a0)
    90000120:	0c853c83          	ld	s9,200(a0)
    90000124:	0d053d03          	ld	s10,208(a0)
    90000128:	0d853d83          	ld	s11,216(a0)
    9000012c:	0e053e03          	ld	t3,224(a0)
    90000130:	0e853e83          	ld	t4,232(a0)
    90000134:	0f053f03          	ld	t5,240(a0)
    90000138:	0f853f83          	ld	t6,248(a0)
    9000013c:	05053503          	ld	a0,80(a0)
    90000140:	10200073          	sret

0000000090000144 <trap_entry>:
    90000144:	14011173          	csrrw	sp,sscratch,sp
    90000148:	00113423          	sd	ra,8(sp)
    9000014c:	00313c23          	sd	gp,24(sp)
    90000150:	02413023          	sd	tp,32(sp)
    90000154:	02513423          	sd	t0,40(sp)
    90000158:	02613823          	sd	t1,48(sp)
    9000015c:	02713c23          	sd	t2,56(sp)
    90000160:	04813023          	sd	s0,64(sp)
    90000164:	04913423          	sd	s1,72(sp)
    90000168:	04a13823          	sd	a0,80(sp)
    9000016c:	04b13c23          	sd	a1,88(sp)
    90000170:	06c13023          	sd	a2,96(sp)
    90000174:	06d13423          	sd	a3,104(sp)
    90000178:	06e13823          	sd	a4,112(sp)
    9000017c:	06f13c23          	sd	a5,120(sp)
    90000180:	09013023          	sd	a6,128(sp)
    90000184:	09113423          	sd	a7,136(sp)
    90000188:	09213823          	sd	s2,144(sp)
    9000018c:	09313c23          	sd	s3,152(sp)
    90000190:	0b413023          	sd	s4,160(sp)
    90000194:	0b513423          	sd	s5,168(sp)
    90000198:	0b613823          	sd	s6,176(sp)
    9000019c:	0b713c23          	sd	s7,184(sp)
    900001a0:	0d813023          	sd	s8,192(sp)
    900001a4:	0d913423          	sd	s9,200(sp)
    900001a8:	0da13823          	sd	s10,208(sp)
    900001ac:	0db13c23          	sd	s11,216(sp)
    900001b0:	0fc13023          	sd	t3,224(sp)
    900001b4:	0fd13423          	sd	t4,232(sp)
    900001b8:	0fe13823          	sd	t5,240(sp)
    900001bc:	0ff13c23          	sd	t6,248(sp)
    900001c0:	140112f3          	csrrw	t0,sscratch,sp
    900001c4:	00513823          	sd	t0,16(sp)
    900001c8:	100022f3          	csrr	t0,sstatus
    900001cc:	10513023          	sd	t0,256(sp)
    900001d0:	141022f3          	csrr	t0,sepc
    900001d4:	10513423          	sd	t0,264(sp)
    900001d8:	143022f3          	csrr	t0,stval
    900001dc:	10513823          	sd	t0,272(sp)
    900001e0:	142022f3          	csrr	t0,scause
    900001e4:	10513c23          	sd	t0,280(sp)
    900001e8:	00010513          	mv	a0,sp
    900001ec:	3380206f          	j	90002524 <handle_trap>

Disassembly of section .text:

0000000090002000 <memcpy>:
    90002000:	00c5e7b3          	or	a5,a1,a2
    90002004:	00f567b3          	or	a5,a0,a5
    90002008:	0077f793          	andi	a5,a5,7
    9000200c:	00c506b3          	add	a3,a0,a2
    90002010:	02078463          	beqz	a5,90002038 <memcpy+0x38>
    90002014:	00c58633          	add	a2,a1,a2
    90002018:	00050793          	mv	a5,a0
    9000201c:	02d57e63          	bgeu	a0,a3,90002058 <memcpy+0x58>
    90002020:	0005c703          	lbu	a4,0(a1)
    90002024:	00158593          	addi	a1,a1,1
    90002028:	00178793          	addi	a5,a5,1
    9000202c:	fee78fa3          	sb	a4,-1(a5)
    90002030:	fec598e3          	bne	a1,a2,90002020 <memcpy+0x20>
    90002034:	00008067          	ret
    90002038:	fed57ee3          	bgeu	a0,a3,90002034 <memcpy+0x34>
    9000203c:	00050793          	mv	a5,a0
    90002040:	0005b703          	ld	a4,0(a1)
    90002044:	00878793          	addi	a5,a5,8
    90002048:	00858593          	addi	a1,a1,8
    9000204c:	fee7bc23          	sd	a4,-8(a5)
    90002050:	fed7e8e3          	bltu	a5,a3,90002040 <memcpy+0x40>
    90002054:	00008067          	ret
    90002058:	00008067          	ret

000000009000205c <memset>:
    9000205c:	ff010113          	addi	sp,sp,-16
    90002060:	00c567b3          	or	a5,a0,a2
    90002064:	00813023          	sd	s0,0(sp)
    90002068:	00113423          	sd	ra,8(sp)
    9000206c:	0077f793          	andi	a5,a5,7
    90002070:	00050413          	mv	s0,a0
    90002074:	00c50733          	add	a4,a0,a2
    90002078:	02078263          	beqz	a5,9000209c <memset+0x40>
    9000207c:	00e57663          	bgeu	a0,a4,90002088 <memset+0x2c>
    90002080:	0ff5f593          	andi	a1,a1,255
    90002084:	fd9ff0ef          	jal	ra,9000205c <memset>
    90002088:	00813083          	ld	ra,8(sp)
    9000208c:	00040513          	mv	a0,s0
    90002090:	00013403          	ld	s0,0(sp)
    90002094:	01010113          	addi	sp,sp,16
    90002098:	00008067          	ret
    9000209c:	0ff5f593          	andi	a1,a1,255
    900020a0:	00859693          	slli	a3,a1,0x8
    900020a4:	00b6e5b3          	or	a1,a3,a1
    900020a8:	01059693          	slli	a3,a1,0x10
    900020ac:	00b6e5b3          	or	a1,a3,a1
    900020b0:	02059693          	slli	a3,a1,0x20
    900020b4:	00b6e6b3          	or	a3,a3,a1
    900020b8:	fce578e3          	bgeu	a0,a4,90002088 <memset+0x2c>
    900020bc:	00050793          	mv	a5,a0
    900020c0:	00878793          	addi	a5,a5,8
    900020c4:	fed7bc23          	sd	a3,-8(a5)
    900020c8:	fee7ece3          	bltu	a5,a4,900020c0 <memset+0x64>
    900020cc:	00813083          	ld	ra,8(sp)
    900020d0:	00040513          	mv	a0,s0
    900020d4:	00013403          	ld	s0,0(sp)
    900020d8:	01010113          	addi	sp,sp,16
    900020dc:	00008067          	ret

00000000900020e0 <strlen>:
    900020e0:	00054783          	lbu	a5,0(a0)
    900020e4:	00078e63          	beqz	a5,90002100 <strlen+0x20>
    900020e8:	00050793          	mv	a5,a0
    900020ec:	0017c703          	lbu	a4,1(a5)
    900020f0:	00178793          	addi	a5,a5,1
    900020f4:	fe071ce3          	bnez	a4,900020ec <strlen+0xc>
    900020f8:	40a78533          	sub	a0,a5,a0
    900020fc:	00008067          	ret
    90002100:	00000513          	li	a0,0
    90002104:	00008067          	ret

0000000090002108 <strcmp>:
    90002108:	00054783          	lbu	a5,0(a0)
    9000210c:	00158593          	addi	a1,a1,1
    90002110:	00150513          	addi	a0,a0,1
    90002114:	fff5c703          	lbu	a4,-1(a1)
    90002118:	00078a63          	beqz	a5,9000212c <strcmp+0x24>
    9000211c:	fee786e3          	beq	a5,a4,90002108 <strcmp>
    90002120:	0007851b          	sext.w	a0,a5
    90002124:	40e5053b          	subw	a0,a0,a4
    90002128:	00008067          	ret
    9000212c:	00000513          	li	a0,0
    90002130:	ff5ff06f          	j	90002124 <strcmp+0x1c>

0000000090002134 <memcmp>:
    90002134:	00b567b3          	or	a5,a0,a1
    90002138:	0077f793          	andi	a5,a5,7
    9000213c:	02079e63          	bnez	a5,90002178 <memcmp+0x44>
    90002140:	ff867813          	andi	a6,a2,-8
    90002144:	01050833          	add	a6,a0,a6
    90002148:	03057863          	bgeu	a0,a6,90002178 <memcmp+0x44>
    9000214c:	00050793          	mv	a5,a0
    90002150:	0100006f          	j	90002160 <memcmp+0x2c>
    90002154:	00878793          	addi	a5,a5,8
    90002158:	00858593          	addi	a1,a1,8
    9000215c:	0107f863          	bgeu	a5,a6,9000216c <memcmp+0x38>
    90002160:	0007b683          	ld	a3,0(a5)
    90002164:	0005b703          	ld	a4,0(a1)
    90002168:	fee686e3          	beq	a3,a4,90002154 <memcmp+0x20>
    9000216c:	40a78533          	sub	a0,a5,a0
    90002170:	40a60633          	sub	a2,a2,a0
    90002174:	00078513          	mv	a0,a5
    90002178:	00c58633          	add	a2,a1,a2
    9000217c:	0140006f          	j	90002190 <memcmp+0x5c>
    90002180:	0005c703          	lbu	a4,0(a1)
    90002184:	fff54783          	lbu	a5,-1(a0)
    90002188:	00158593          	addi	a1,a1,1
    9000218c:	00e79a63          	bne	a5,a4,900021a0 <memcmp+0x6c>
    90002190:	00150513          	addi	a0,a0,1
    90002194:	fec596e3          	bne	a1,a2,90002180 <memcmp+0x4c>
    90002198:	00000513          	li	a0,0
    9000219c:	00008067          	ret
    900021a0:	40e7853b          	subw	a0,a5,a4
    900021a4:	00008067          	ret

00000000900021a8 <strcpy>:
    900021a8:	00050793          	mv	a5,a0
    900021ac:	0005c703          	lbu	a4,0(a1)
    900021b0:	00178793          	addi	a5,a5,1
    900021b4:	00158593          	addi	a1,a1,1
    900021b8:	fee78fa3          	sb	a4,-1(a5)
    900021bc:	fe0718e3          	bnez	a4,900021ac <strcpy+0x4>
    900021c0:	00008067          	ret

00000000900021c4 <atol>:
    900021c4:	00054703          	lbu	a4,0(a0)
    900021c8:	02000693          	li	a3,32
    900021cc:	00050793          	mv	a5,a0
    900021d0:	00d71863          	bne	a4,a3,900021e0 <atol+0x1c>
    900021d4:	0017c703          	lbu	a4,1(a5)
    900021d8:	00178793          	addi	a5,a5,1
    900021dc:	fed70ce3          	beq	a4,a3,900021d4 <atol+0x10>
    900021e0:	02d00693          	li	a3,45
    900021e4:	06d70063          	beq	a4,a3,90002244 <atol+0x80>
    900021e8:	02b00693          	li	a3,43
    900021ec:	04d70063          	beq	a4,a3,9000222c <atol+0x68>
    900021f0:	0007c683          	lbu	a3,0(a5)
    900021f4:	00000593          	li	a1,0
    900021f8:	04068263          	beqz	a3,9000223c <atol+0x78>
    900021fc:	00000513          	li	a0,0
    90002200:	00178793          	addi	a5,a5,1
    90002204:	fd06861b          	addiw	a2,a3,-48
    90002208:	00251713          	slli	a4,a0,0x2
    9000220c:	0007c683          	lbu	a3,0(a5)
    90002210:	00a70533          	add	a0,a4,a0
    90002214:	00151513          	slli	a0,a0,0x1
    90002218:	00a60533          	add	a0,a2,a0
    9000221c:	fe0692e3          	bnez	a3,90002200 <atol+0x3c>
    90002220:	02058063          	beqz	a1,90002240 <atol+0x7c>
    90002224:	40a00533          	neg	a0,a0
    90002228:	00008067          	ret
    9000222c:	0017c683          	lbu	a3,1(a5)
    90002230:	00000593          	li	a1,0
    90002234:	00178793          	addi	a5,a5,1
    90002238:	fc0692e3          	bnez	a3,900021fc <atol+0x38>
    9000223c:	00000513          	li	a0,0
    90002240:	00008067          	ret
    90002244:	0017c683          	lbu	a3,1(a5)
    90002248:	00100593          	li	a1,1
    9000224c:	00178793          	addi	a5,a5,1
    90002250:	fa0696e3          	bnez	a3,900021fc <atol+0x38>
    90002254:	00000513          	li	a0,0
    90002258:	fe9ff06f          	j	90002240 <atol+0x7c>

000000009000225c <cputstring>:
    9000225c:	00054783          	lbu	a5,0(a0)
    90002260:	04078063          	beqz	a5,900022a0 <cputstring+0x44>
    90002264:	10100593          	li	a1,257
    90002268:	fffff717          	auipc	a4,0xfffff
    9000226c:	d9870713          	addi	a4,a4,-616 # 90001000 <tohost>
    90002270:	03059593          	slli	a1,a1,0x30
    90002274:	00073603          	ld	a2,0(a4)
    90002278:	00150513          	addi	a0,a0,1
    9000227c:	00b7e6b3          	or	a3,a5,a1
    90002280:	00060a63          	beqz	a2,90002294 <cputstring+0x38>
    90002284:	fffff797          	auipc	a5,0xfffff
    90002288:	da07be23          	sd	zero,-580(a5) # 90001040 <fromhost>
    9000228c:	00073783          	ld	a5,0(a4)
    90002290:	fe079ae3          	bnez	a5,90002284 <cputstring+0x28>
    90002294:	00d73023          	sd	a3,0(a4)
    90002298:	00054783          	lbu	a5,0(a0)
    9000229c:	fc079ce3          	bnez	a5,90002274 <cputstring+0x18>
    900022a0:	00008067          	ret

00000000900022a4 <terminate>:
    900022a4:	fffff717          	auipc	a4,0xfffff
    900022a8:	d5c70713          	addi	a4,a4,-676 # 90001000 <tohost>
    900022ac:	00073783          	ld	a5,0(a4)
    900022b0:	00078a63          	beqz	a5,900022c4 <terminate+0x20>
    900022b4:	fffff797          	auipc	a5,0xfffff
    900022b8:	d807b623          	sd	zero,-628(a5) # 90001040 <fromhost>
    900022bc:	00073783          	ld	a5,0(a4)
    900022c0:	fe079ae3          	bnez	a5,900022b4 <terminate+0x10>
    900022c4:	00a73023          	sd	a0,0(a4)
    900022c8:	0000006f          	j	900022c8 <terminate+0x24>

00000000900022cc <wtf>:
    900022cc:	ff010113          	addi	sp,sp,-16
    900022d0:	34900513          	li	a0,841
    900022d4:	00113423          	sd	ra,8(sp)
    900022d8:	fcdff0ef          	jal	ra,900022a4 <terminate>

00000000900022dc <printhex>:
    900022dc:	fe010113          	addi	sp,sp,-32
    900022e0:	00810613          	addi	a2,sp,8
    900022e4:	01710793          	addi	a5,sp,23
    900022e8:	00900813          	li	a6,9
    900022ec:	0080006f          	j	900022f4 <printhex+0x18>
    900022f0:	00070793          	mv	a5,a4
    900022f4:	00f57693          	andi	a3,a0,15
    900022f8:	00068713          	mv	a4,a3
    900022fc:	03000593          	li	a1,48
    90002300:	00d87463          	bgeu	a6,a3,90002308 <printhex+0x2c>
    90002304:	05700593          	li	a1,87
    90002308:	00b7073b          	addw	a4,a4,a1
    9000230c:	00e78023          	sb	a4,0(a5)
    90002310:	00455513          	srli	a0,a0,0x4
    90002314:	fff78713          	addi	a4,a5,-1
    90002318:	fcf61ce3          	bne	a2,a5,900022f0 <printhex+0x14>
    9000231c:	00814783          	lbu	a5,8(sp)
    90002320:	00010c23          	sb	zero,24(sp)
    90002324:	04078263          	beqz	a5,90002368 <printhex+0x8c>
    90002328:	10100513          	li	a0,257
    9000232c:	00060693          	mv	a3,a2
    90002330:	fffff717          	auipc	a4,0xfffff
    90002334:	cd070713          	addi	a4,a4,-816 # 90001000 <tohost>
    90002338:	03051513          	slli	a0,a0,0x30
    9000233c:	00073583          	ld	a1,0(a4)
    90002340:	00168693          	addi	a3,a3,1
    90002344:	00a7e633          	or	a2,a5,a0
    90002348:	00058a63          	beqz	a1,9000235c <printhex+0x80>
    9000234c:	fffff797          	auipc	a5,0xfffff
    90002350:	ce07ba23          	sd	zero,-780(a5) # 90001040 <fromhost>
    90002354:	00073783          	ld	a5,0(a4)
    90002358:	fe079ae3          	bnez	a5,9000234c <printhex+0x70>
    9000235c:	0006c783          	lbu	a5,0(a3)
    90002360:	00c73023          	sd	a2,0(a4)
    90002364:	fc079ce3          	bnez	a5,9000233c <printhex+0x60>
    90002368:	02010113          	addi	sp,sp,32
    9000236c:	00008067          	ret

0000000090002370 <handle_fault>:
    90002370:	ff010113          	addi	sp,sp,-16
    90002374:	fffff6b7          	lui	a3,0xfffff
    90002378:	00113423          	sd	ra,8(sp)
    9000237c:	00d50733          	add	a4,a0,a3
    90002380:	0003e7b7          	lui	a5,0x3e
    90002384:	14f77863          	bgeu	a4,a5,900024d4 <handle_fault+0x164>
    90002388:	00c55893          	srli	a7,a0,0xc
    9000238c:	60088813          	addi	a6,a7,1536
    90002390:	00004617          	auipc	a2,0x4
    90002394:	c7060613          	addi	a2,a2,-912 # 90006000 <pt>
    90002398:	00381793          	slli	a5,a6,0x3
    9000239c:	00f607b3          	add	a5,a2,a5
    900023a0:	0007b703          	ld	a4,0(a5) # 3e000 <_start-0x8ffc2000>
    900023a4:	00d57533          	and	a0,a0,a3
    900023a8:	0e071063          	bnez	a4,90002488 <handle_fault+0x118>
    900023ac:	00008697          	auipc	a3,0x8
    900023b0:	c5c68693          	addi	a3,a3,-932 # 9000a008 <freelist_head>
    900023b4:	0006b703          	ld	a4,0(a3)
    900023b8:	14070263          	beqz	a4,900024fc <handle_fault+0x18c>
    900023bc:	00873783          	ld	a5,8(a4)
    900023c0:	00008597          	auipc	a1,0x8
    900023c4:	c405b583          	ld	a1,-960(a1) # 9000a000 <freelist_tail>
    900023c8:	00f6b023          	sd	a5,0(a3)
    900023cc:	0eb78e63          	beq	a5,a1,900024c8 <handle_fault+0x158>
    900023d0:	00073783          	ld	a5,0(a4)
    900023d4:	00381593          	slli	a1,a6,0x3
    900023d8:	00b605b3          	add	a1,a2,a1
    900023dc:	00c7d793          	srli	a5,a5,0xc
    900023e0:	00a79793          	slli	a5,a5,0xa
    900023e4:	0df7e313          	ori	t1,a5,223
    900023e8:	01f7e693          	ori	a3,a5,31
    900023ec:	0065b023          	sd	t1,0(a1)
    900023f0:	12050073          	sfence.vma	a0
    900023f4:	00003797          	auipc	a5,0x3
    900023f8:	c0c78793          	addi	a5,a5,-1012 # 90005000 <user_mapping>
    900023fc:	00489893          	slli	a7,a7,0x4
    90002400:	011788b3          	add	a7,a5,a7
    90002404:	0008b783          	ld	a5,0(a7)
    90002408:	10079463          	bnez	a5,90002510 <handle_fault+0x1a0>
    9000240c:	00073783          	ld	a5,0(a4)
    90002410:	00f8b023          	sd	a5,0(a7)
    90002414:	00873783          	ld	a5,8(a4)
    90002418:	00f8b423          	sd	a5,8(a7)
    9000241c:	000408b7          	lui	a7,0x40
    90002420:	1008a8f3          	csrrs	a7,sstatus,a7
    90002424:	ffe007b7          	lui	a5,0xffe00
    90002428:	00f507b3          	add	a5,a0,a5
    9000242c:	000015b7          	lui	a1,0x1
    90002430:	00050713          	mv	a4,a0
    90002434:	00b785b3          	add	a1,a5,a1
    90002438:	0007bf03          	ld	t5,0(a5) # ffffffffffe00000 <freelist_head+0xffffffff6fdf5ff8>
    9000243c:	0087be83          	ld	t4,8(a5)
    90002440:	0107be03          	ld	t3,16(a5)
    90002444:	0187b303          	ld	t1,24(a5)
    90002448:	01e73023          	sd	t5,0(a4)
    9000244c:	01d73423          	sd	t4,8(a4)
    90002450:	01c73823          	sd	t3,16(a4)
    90002454:	00673c23          	sd	t1,24(a4)
    90002458:	02078793          	addi	a5,a5,32
    9000245c:	02070713          	addi	a4,a4,32
    90002460:	fcb79ce3          	bne	a5,a1,90002438 <handle_fault+0xc8>
    90002464:	10089073          	csrw	sstatus,a7
    90002468:	00381813          	slli	a6,a6,0x3
    9000246c:	01060633          	add	a2,a2,a6
    90002470:	00d63023          	sd	a3,0(a2)
    90002474:	12050073          	sfence.vma	a0
    90002478:	0000100f          	fence.i
    9000247c:	00813083          	ld	ra,8(sp)
    90002480:	01010113          	addi	sp,sp,16
    90002484:	00008067          	ret
    90002488:	04077693          	andi	a3,a4,64
    9000248c:	02068663          	beqz	a3,900024b8 <handle_fault+0x148>
    90002490:	08077693          	andi	a3,a4,128
    90002494:	04069a63          	bnez	a3,900024e8 <handle_fault+0x178>
    90002498:	00f00693          	li	a3,15
    9000249c:	04d59663          	bne	a1,a3,900024e8 <handle_fault+0x178>
    900024a0:	08076713          	ori	a4,a4,128
    900024a4:	00e7b023          	sd	a4,0(a5)
    900024a8:	12050073          	sfence.vma	a0
    900024ac:	00813083          	ld	ra,8(sp)
    900024b0:	01010113          	addi	sp,sp,16
    900024b4:	00008067          	ret
    900024b8:	04076713          	ori	a4,a4,64
    900024bc:	00e7b023          	sd	a4,0(a5)
    900024c0:	12050073          	sfence.vma	a0
    900024c4:	fe9ff06f          	j	900024ac <handle_fault+0x13c>
    900024c8:	00008797          	auipc	a5,0x8
    900024cc:	b207bc23          	sd	zero,-1224(a5) # 9000a000 <freelist_tail>
    900024d0:	f01ff06f          	j	900023d0 <handle_fault+0x60>
    900024d4:	00001517          	auipc	a0,0x1
    900024d8:	d0450513          	addi	a0,a0,-764 # 900031d8 <pass+0x10>
    900024dc:	d81ff0ef          	jal	ra,9000225c <cputstring>
    900024e0:	00300513          	li	a0,3
    900024e4:	dc1ff0ef          	jal	ra,900022a4 <terminate>
    900024e8:	00001517          	auipc	a0,0x1
    900024ec:	d3850513          	addi	a0,a0,-712 # 90003220 <pass+0x58>
    900024f0:	d6dff0ef          	jal	ra,9000225c <cputstring>
    900024f4:	00300513          	li	a0,3
    900024f8:	dadff0ef          	jal	ra,900022a4 <terminate>
    900024fc:	00001517          	auipc	a0,0x1
    90002500:	d6c50513          	addi	a0,a0,-660 # 90003268 <pass+0xa0>
    90002504:	d59ff0ef          	jal	ra,9000225c <cputstring>
    90002508:	00300513          	li	a0,3
    9000250c:	d99ff0ef          	jal	ra,900022a4 <terminate>
    90002510:	00001517          	auipc	a0,0x1
    90002514:	d7050513          	addi	a0,a0,-656 # 90003280 <pass+0xb8>
    90002518:	d45ff0ef          	jal	ra,9000225c <cputstring>
    9000251c:	00300513          	li	a0,3
    90002520:	d85ff0ef          	jal	ra,900022a4 <terminate>

0000000090002524 <handle_trap>:
    90002524:	11853583          	ld	a1,280(a0)
    90002528:	f8010113          	addi	sp,sp,-128
    9000252c:	06813823          	sd	s0,112(sp)
    90002530:	06113c23          	sd	ra,120(sp)
    90002534:	06913423          	sd	s1,104(sp)
    90002538:	07213023          	sd	s2,96(sp)
    9000253c:	05313c23          	sd	s3,88(sp)
    90002540:	05413823          	sd	s4,80(sp)
    90002544:	05513423          	sd	s5,72(sp)
    90002548:	05613023          	sd	s6,64(sp)
    9000254c:	03713c23          	sd	s7,56(sp)
    90002550:	03813823          	sd	s8,48(sp)
    90002554:	03913423          	sd	s9,40(sp)
    90002558:	03a13023          	sd	s10,32(sp)
    9000255c:	01b13c23          	sd	s11,24(sp)
    90002560:	00800793          	li	a5,8
    90002564:	00050413          	mv	s0,a0
    90002568:	0ef58a63          	beq	a1,a5,9000265c <handle_trap+0x138>
    9000256c:	00200793          	li	a5,2
    90002570:	06f58063          	beq	a1,a5,900025d0 <handle_trap+0xac>
    90002574:	ff458793          	addi	a5,a1,-12 # ff4 <_start-0x8ffff00c>
    90002578:	00100713          	li	a4,1
    9000257c:	00f77663          	bgeu	a4,a5,90002588 <handle_trap+0x64>
    90002580:	00f00793          	li	a5,15
    90002584:	1af59263          	bne	a1,a5,90002728 <handle_trap+0x204>
    90002588:	11043503          	ld	a0,272(s0)
    9000258c:	de5ff0ef          	jal	ra,90002370 <handle_fault>
    90002590:	00040513          	mv	a0,s0
    90002594:	07013403          	ld	s0,112(sp)
    90002598:	07813083          	ld	ra,120(sp)
    9000259c:	06813483          	ld	s1,104(sp)
    900025a0:	06013903          	ld	s2,96(sp)
    900025a4:	05813983          	ld	s3,88(sp)
    900025a8:	05013a03          	ld	s4,80(sp)
    900025ac:	04813a83          	ld	s5,72(sp)
    900025b0:	04013b03          	ld	s6,64(sp)
    900025b4:	03813b83          	ld	s7,56(sp)
    900025b8:	03013c03          	ld	s8,48(sp)
    900025bc:	02813c83          	ld	s9,40(sp)
    900025c0:	02013d03          	ld	s10,32(sp)
    900025c4:	01813d83          	ld	s11,24(sp)
    900025c8:	08010113          	addi	sp,sp,128
    900025cc:	af1fd06f          	j	900000bc <pop_tf>
    900025d0:	10853703          	ld	a4,264(a0)
    900025d4:	00377793          	andi	a5,a4,3
    900025d8:	06079863          	bnez	a5,90002648 <handle_trap+0x124>
    900025dc:	008007ef          	jal	a5,900025e4 <handle_trap+0xc0>
    900025e0:	00301073          	fscsr	zero
    900025e4:	00072703          	lw	a4,0(a4)
    900025e8:	0007a783          	lw	a5,0(a5)
    900025ec:	04f70a63          	beq	a4,a5,90002640 <handle_trap+0x11c>
    900025f0:	10100513          	li	a0,257
    900025f4:	04100793          	li	a5,65
    900025f8:	00001697          	auipc	a3,0x1
    900025fc:	cc868693          	addi	a3,a3,-824 # 900032c0 <pass+0xf8>
    90002600:	fffff717          	auipc	a4,0xfffff
    90002604:	a0070713          	addi	a4,a4,-1536 # 90001000 <tohost>
    90002608:	03051513          	slli	a0,a0,0x30
    9000260c:	00073583          	ld	a1,0(a4)
    90002610:	00168693          	addi	a3,a3,1
    90002614:	00a7e633          	or	a2,a5,a0
    90002618:	00058a63          	beqz	a1,9000262c <handle_trap+0x108>
    9000261c:	fffff797          	auipc	a5,0xfffff
    90002620:	a207b223          	sd	zero,-1500(a5) # 90001040 <fromhost>
    90002624:	00073783          	ld	a5,0(a4)
    90002628:	fe079ae3          	bnez	a5,9000261c <handle_trap+0xf8>
    9000262c:	0006c783          	lbu	a5,0(a3)
    90002630:	00c73023          	sd	a2,0(a4)
    90002634:	fc079ce3          	bnez	a5,9000260c <handle_trap+0xe8>
    90002638:	00300513          	li	a0,3
    9000263c:	c69ff0ef          	jal	ra,900022a4 <terminate>
    90002640:	00100513          	li	a0,1
    90002644:	c61ff0ef          	jal	ra,900022a4 <terminate>
    90002648:	00001517          	auipc	a0,0x1
    9000264c:	d1850513          	addi	a0,a0,-744 # 90003360 <pass+0x198>
    90002650:	c0dff0ef          	jal	ra,9000225c <cputstring>
    90002654:	00300513          	li	a0,3
    90002658:	c4dff0ef          	jal	ra,900022a4 <terminate>
    9000265c:	05052903          	lw	s2,80(a0)
    90002660:	00001c37          	lui	s8,0x1
    90002664:	00003497          	auipc	s1,0x3
    90002668:	99c48493          	addi	s1,s1,-1636 # 90005000 <user_mapping>
    9000266c:	00004b97          	auipc	s7,0x4
    90002670:	994b8b93          	addi	s7,s7,-1644 # 90006000 <pt>
    90002674:	00040b37          	lui	s6,0x40
    90002678:	ffe00ab7          	lui	s5,0xffe00
    9000267c:	00008d97          	auipc	s11,0x8
    90002680:	984d8d93          	addi	s11,s11,-1660 # 9000a000 <freelist_tail>
    90002684:	00008a17          	auipc	s4,0x8
    90002688:	984a0a13          	addi	s4,s4,-1660 # 9000a008 <freelist_head>
    9000268c:	0003f9b7          	lui	s3,0x3f
    90002690:	0180006f          	j	900026a8 <handle_trap+0x184>
    90002694:	00f73423          	sd	a5,8(a4)
    90002698:	00fdb023          	sd	a5,0(s11)
    9000269c:	000017b7          	lui	a5,0x1
    900026a0:	00fc0c33          	add	s8,s8,a5
    900026a4:	0b3c0e63          	beq	s8,s3,90002760 <handle_trap+0x23c>
    900026a8:	00cc5793          	srli	a5,s8,0xc
    900026ac:	00479413          	slli	s0,a5,0x4
    900026b0:	00848733          	add	a4,s1,s0
    900026b4:	00073703          	ld	a4,0(a4)
    900026b8:	fe0702e3          	beqz	a4,9000269c <handle_trap+0x178>
    900026bc:	60078793          	addi	a5,a5,1536 # 1600 <_start-0x8fffea00>
    900026c0:	00379793          	slli	a5,a5,0x3
    900026c4:	00fb87b3          	add	a5,s7,a5
    900026c8:	0007bc83          	ld	s9,0(a5)
    900026cc:	040cf793          	andi	a5,s9,64
    900026d0:	06078e63          	beqz	a5,9000274c <handle_trap+0x228>
    900026d4:	100b2d73          	csrrs	s10,sstatus,s6
    900026d8:	00001637          	lui	a2,0x1
    900026dc:	015c05b3          	add	a1,s8,s5
    900026e0:	000c0513          	mv	a0,s8
    900026e4:	00b13423          	sd	a1,8(sp)
    900026e8:	a4dff0ef          	jal	ra,90002134 <memcmp>
    900026ec:	00050e63          	beqz	a0,90002708 <handle_trap+0x1e4>
    900026f0:	080cfc93          	andi	s9,s9,128
    900026f4:	00813583          	ld	a1,8(sp)
    900026f8:	040c8063          	beqz	s9,90002738 <handle_trap+0x214>
    900026fc:	00001637          	lui	a2,0x1
    90002700:	000c0513          	mv	a0,s8
    90002704:	8fdff0ef          	jal	ra,90002000 <memcpy>
    90002708:	008487b3          	add	a5,s1,s0
    9000270c:	100d1073          	csrw	sstatus,s10
    90002710:	000db703          	ld	a4,0(s11)
    90002714:	0007b023          	sd	zero,0(a5)
    90002718:	f6071ee3          	bnez	a4,90002694 <handle_trap+0x170>
    9000271c:	00fdb023          	sd	a5,0(s11)
    90002720:	00fa3023          	sd	a5,0(s4)
    90002724:	f79ff06f          	j	9000269c <handle_trap+0x178>
    90002728:	00001517          	auipc	a0,0x1
    9000272c:	c6050513          	addi	a0,a0,-928 # 90003388 <pass+0x1c0>
    90002730:	b2dff0ef          	jal	ra,9000225c <cputstring>
    90002734:	f05ff06f          	j	90002638 <handle_trap+0x114>
    90002738:	00001517          	auipc	a0,0x1
    9000273c:	bf050513          	addi	a0,a0,-1040 # 90003328 <pass+0x160>
    90002740:	b1dff0ef          	jal	ra,9000225c <cputstring>
    90002744:	00300513          	li	a0,3
    90002748:	b5dff0ef          	jal	ra,900022a4 <terminate>
    9000274c:	00001517          	auipc	a0,0x1
    90002750:	ba450513          	addi	a0,a0,-1116 # 900032f0 <pass+0x128>
    90002754:	b09ff0ef          	jal	ra,9000225c <cputstring>
    90002758:	00300513          	li	a0,3
    9000275c:	b49ff0ef          	jal	ra,900022a4 <terminate>
    90002760:	00090513          	mv	a0,s2
    90002764:	b41ff0ef          	jal	ra,900022a4 <terminate>

0000000090002768 <vm_boot>:
    90002768:	f14027f3          	csrr	a5,mhartid
    9000276c:	18079a63          	bnez	a5,90002900 <vm_boot+0x198>
    90002770:	00006797          	auipc	a5,0x6
    90002774:	89078793          	addi	a5,a5,-1904 # 90008000 <pt+0x2000>
    90002778:	ed010113          	addi	sp,sp,-304
    9000277c:	00c7d793          	srli	a5,a5,0xc
    90002780:	12813023          	sd	s0,288(sp)
    90002784:	00007817          	auipc	a6,0x7
    90002788:	87c80813          	addi	a6,a6,-1924 # 90009000 <pt+0x3000>
    9000278c:	00050413          	mv	s0,a0
    90002790:	00a79793          	slli	a5,a5,0xa
    90002794:	00005517          	auipc	a0,0x5
    90002798:	86c50513          	addi	a0,a0,-1940 # 90007000 <pt+0x1000>
    9000279c:	12113423          	sd	ra,296(sp)
    900027a0:	00c55693          	srli	a3,a0,0xc
    900027a4:	00c85713          	srli	a4,a6,0xc
    900027a8:	0017e793          	ori	a5,a5,1
    900027ac:	00004897          	auipc	a7,0x4
    900027b0:	85488893          	addi	a7,a7,-1964 # 90006000 <pt>
    900027b4:	fff00613          	li	a2,-1
    900027b8:	fef53c23          	sd	a5,-8(a0)
    900027bc:	00a69693          	slli	a3,a3,0xa
    900027c0:	00a71713          	slli	a4,a4,0xa
    900027c4:	200007b7          	lui	a5,0x20000
    900027c8:	0016e693          	ori	a3,a3,1
    900027cc:	00176713          	ori	a4,a4,1
    900027d0:	00c8d593          	srli	a1,a7,0xc
    900027d4:	03f61313          	slli	t1,a2,0x3f
    900027d8:	0cf78793          	addi	a5,a5,207 # 200000cf <_start-0x6fffff31>
    900027dc:	fef83c23          	sd	a5,-8(a6)
    900027e0:	00d8b023          	sd	a3,0(a7)
    900027e4:	00e53023          	sd	a4,0(a0)
    900027e8:	0065e7b3          	or	a5,a1,t1
    900027ec:	18079073          	csrw	satp,a5
    900027f0:	18002773          	csrr	a4,satp
    900027f4:	14e79e63          	bne	a5,a4,90002950 <vm_boot+0x1e8>
    900027f8:	00b65613          	srli	a2,a2,0xb
    900027fc:	01f00793          	li	a5,31
    90002800:	00000297          	auipc	t0,0x0
    90002804:	01428293          	addi	t0,t0,20 # 90002814 <vm_boot+0xac>
    90002808:	305292f3          	csrrw	t0,mtvec,t0
    9000280c:	3b061073          	csrw	pmpaddr0,a2
    90002810:	3a079073          	csrw	pmpcfg0,a5
    90002814:	30529073          	csrw	mtvec,t0
    90002818:	bff00813          	li	a6,-1025
    9000281c:	01581813          	slli	a6,a6,0x15
    90002820:	ffffe797          	auipc	a5,0xffffe
    90002824:	92478793          	addi	a5,a5,-1756 # 90000144 <trap_entry>
    90002828:	010787b3          	add	a5,a5,a6
    9000282c:	10579073          	csrw	stvec,a5
    90002830:	340027f3          	csrr	a5,mscratch
    90002834:	010787b3          	add	a5,a5,a6
    90002838:	14079073          	csrw	sscratch,a5
    9000283c:	0000b7b7          	lui	a5,0xb
    90002840:	1007879b          	addiw	a5,a5,256
    90002844:	30279073          	csrw	medeleg,a5
    90002848:	0001e7b7          	lui	a5,0x1e
    9000284c:	6007879b          	addiw	a5,a5,1536
    90002850:	30079073          	csrw	mstatus,a5
    90002854:	30405073          	csrwi	mie,0
    90002858:	00003717          	auipc	a4,0x3
    9000285c:	b9870713          	addi	a4,a4,-1128 # 900053f0 <freelist_nodes>
    90002860:	3e080793          	addi	a5,a6,992
    90002864:	010706b3          	add	a3,a4,a6
    90002868:	00f707b3          	add	a5,a4,a5
    9000286c:	000808b7          	lui	a7,0x80
    90002870:	00007617          	auipc	a2,0x7
    90002874:	78d63c23          	sd	a3,1944(a2) # 9000a008 <freelist_head>
    90002878:	00003317          	auipc	t1,0x3
    9000287c:	f6830313          	addi	t1,t1,-152 # 900057e0 <freelist_nodes+0x3f0>
    90002880:	00007697          	auipc	a3,0x7
    90002884:	78f6b023          	sd	a5,1920(a3) # 9000a000 <freelist_tail>
    90002888:	03f88893          	addi	a7,a7,63 # 8003f <_start-0x8ff7ffc1>
    9000288c:	00a00793          	li	a5,10
    90002890:	01080813          	addi	a6,a6,16
    90002894:	0017d613          	srli	a2,a5,0x1
    90002898:	011786b3          	add	a3,a5,a7
    9000289c:	00f647b3          	xor	a5,a2,a5
    900028a0:	010705b3          	add	a1,a4,a6
    900028a4:	00c69693          	slli	a3,a3,0xc
    900028a8:	00579793          	slli	a5,a5,0x5
    900028ac:	00d73023          	sd	a3,0(a4)
    900028b0:	00b73423          	sd	a1,8(a4)
    900028b4:	0207f793          	andi	a5,a5,32
    900028b8:	01070713          	addi	a4,a4,16
    900028bc:	00f667b3          	or	a5,a2,a5
    900028c0:	fce31ae3          	bne	t1,a4,90002894 <vm_boot+0x12c>
    900028c4:	12000613          	li	a2,288
    900028c8:	00000593          	li	a1,0
    900028cc:	00010513          	mv	a0,sp
    900028d0:	00003797          	auipc	a5,0x3
    900028d4:	f007b423          	sd	zero,-248(a5) # 900057d8 <freelist_nodes+0x3e8>
    900028d8:	f84ff0ef          	jal	ra,9000205c <memset>
    900028dc:	800007b7          	lui	a5,0x80000
    900028e0:	00f40433          	add	s0,s0,a5
    900028e4:	00010513          	mv	a0,sp
    900028e8:	10813423          	sd	s0,264(sp)
    900028ec:	fd0fd0ef          	jal	ra,900000bc <pop_tf>
    900028f0:	12813083          	ld	ra,296(sp)
    900028f4:	12013403          	ld	s0,288(sp)
    900028f8:	13010113          	addi	sp,sp,304
    900028fc:	00008067          	ret
    90002900:	00100713          	li	a4,1
    90002904:	0c1627b7          	lui	a5,0xc162
    90002908:	00080637          	lui	a2,0x80
    9000290c:	6ba78793          	addi	a5,a5,1722 # c1626ba <_start-0x83e9d946>
    90002910:	ffc60613          	addi	a2,a2,-4 # 7fffc <_start-0x8ff80004>
    90002914:	01f71513          	slli	a0,a4,0x1f
    90002918:	03e71693          	slli	a3,a4,0x3e
    9000291c:	01c0006f          	j	90002938 <vm_boot+0x1d0>
    90002920:	0007202f          	amoadd.w	zero,zero,(a4)
    90002924:	0017d713          	srli	a4,a5,0x1
    90002928:	00e7c7b3          	xor	a5,a5,a4
    9000292c:	03e79793          	slli	a5,a5,0x3e
    90002930:	00d7f7b3          	and	a5,a5,a3
    90002934:	00e7e7b3          	or	a5,a5,a4
    90002938:	00c7f733          	and	a4,a5,a2
    9000293c:	0017f593          	andi	a1,a5,1
    90002940:	00a70733          	add	a4,a4,a0
    90002944:	fc059ee3          	bnez	a1,90002920 <vm_boot+0x1b8>
    90002948:	00072003          	lw	zero,0(a4)
    9000294c:	fd9ff06f          	j	90002924 <vm_boot+0x1bc>
    90002950:	00001517          	auipc	a0,0x1
    90002954:	a6850513          	addi	a0,a0,-1432 # 900033b8 <pass+0x1f0>
    90002958:	905ff0ef          	jal	ra,9000225c <cputstring>
    9000295c:	00300513          	li	a0,3
    90002960:	945ff0ef          	jal	ra,900022a4 <terminate>

0000000090002964 <extra_boot>:
    90002964:	00008067          	ret

0000000090002968 <userstart>:
    90002968:	00301073          	fscsr	zero

000000009000296c <test_2>:
    9000296c:	00200193          	li	gp,2
    90002970:	00001517          	auipc	a0,0x1
    90002974:	69050513          	addi	a0,a0,1680 # 90004000 <test_2_data>
    90002978:	00053007          	fld	ft0,0(a0)
    9000297c:	00853087          	fld	ft1,8(a0)
    90002980:	01053107          	fld	ft2,16(a0)
    90002984:	01853683          	ld	a3,24(a0)
    90002988:	c2001553          	fcvt.w.d	a0,ft0,rtz
    9000298c:	001015f3          	fsflags	a1,zero
    90002990:	00100613          	li	a2,1
    90002994:	02d512e3          	bne	a0,a3,900031b8 <fail>
    90002998:	02c590e3          	bne	a1,a2,900031b8 <fail>

000000009000299c <test_3>:
    9000299c:	00300193          	li	gp,3
    900029a0:	00001517          	auipc	a0,0x1
    900029a4:	68050513          	addi	a0,a0,1664 # 90004020 <test_3_data>
    900029a8:	00053007          	fld	ft0,0(a0)
    900029ac:	00853087          	fld	ft1,8(a0)
    900029b0:	01053107          	fld	ft2,16(a0)
    900029b4:	01853683          	ld	a3,24(a0)
    900029b8:	c2001553          	fcvt.w.d	a0,ft0,rtz
    900029bc:	001015f3          	fsflags	a1,zero
    900029c0:	00000613          	li	a2,0
    900029c4:	7ed51a63          	bne	a0,a3,900031b8 <fail>
    900029c8:	7ec59863          	bne	a1,a2,900031b8 <fail>

00000000900029cc <test_4>:
    900029cc:	00400193          	li	gp,4
    900029d0:	00001517          	auipc	a0,0x1
    900029d4:	67050513          	addi	a0,a0,1648 # 90004040 <test_4_data>
    900029d8:	00053007          	fld	ft0,0(a0)
    900029dc:	00853087          	fld	ft1,8(a0)
    900029e0:	01053107          	fld	ft2,16(a0)
    900029e4:	01853683          	ld	a3,24(a0)
    900029e8:	c2001553          	fcvt.w.d	a0,ft0,rtz
    900029ec:	001015f3          	fsflags	a1,zero
    900029f0:	00100613          	li	a2,1
    900029f4:	7cd51263          	bne	a0,a3,900031b8 <fail>
    900029f8:	7cc59063          	bne	a1,a2,900031b8 <fail>

00000000900029fc <test_5>:
    900029fc:	00500193          	li	gp,5
    90002a00:	00001517          	auipc	a0,0x1
    90002a04:	66050513          	addi	a0,a0,1632 # 90004060 <test_5_data>
    90002a08:	00053007          	fld	ft0,0(a0)
    90002a0c:	00853087          	fld	ft1,8(a0)
    90002a10:	01053107          	fld	ft2,16(a0)
    90002a14:	01853683          	ld	a3,24(a0)
    90002a18:	c2001553          	fcvt.w.d	a0,ft0,rtz
    90002a1c:	001015f3          	fsflags	a1,zero
    90002a20:	00100613          	li	a2,1
    90002a24:	78d51a63          	bne	a0,a3,900031b8 <fail>
    90002a28:	78c59863          	bne	a1,a2,900031b8 <fail>

0000000090002a2c <test_6>:
    90002a2c:	00600193          	li	gp,6
    90002a30:	00001517          	auipc	a0,0x1
    90002a34:	65050513          	addi	a0,a0,1616 # 90004080 <test_6_data>
    90002a38:	00053007          	fld	ft0,0(a0)
    90002a3c:	00853087          	fld	ft1,8(a0)
    90002a40:	01053107          	fld	ft2,16(a0)
    90002a44:	01853683          	ld	a3,24(a0)
    90002a48:	c2001553          	fcvt.w.d	a0,ft0,rtz
    90002a4c:	001015f3          	fsflags	a1,zero
    90002a50:	00000613          	li	a2,0
    90002a54:	76d51263          	bne	a0,a3,900031b8 <fail>
    90002a58:	76c59063          	bne	a1,a2,900031b8 <fail>

0000000090002a5c <test_7>:
    90002a5c:	00700193          	li	gp,7
    90002a60:	00001517          	auipc	a0,0x1
    90002a64:	64050513          	addi	a0,a0,1600 # 900040a0 <test_7_data>
    90002a68:	00053007          	fld	ft0,0(a0)
    90002a6c:	00853087          	fld	ft1,8(a0)
    90002a70:	01053107          	fld	ft2,16(a0)
    90002a74:	01853683          	ld	a3,24(a0)
    90002a78:	c2001553          	fcvt.w.d	a0,ft0,rtz
    90002a7c:	001015f3          	fsflags	a1,zero
    90002a80:	00100613          	li	a2,1
    90002a84:	72d51a63          	bne	a0,a3,900031b8 <fail>
    90002a88:	72c59863          	bne	a1,a2,900031b8 <fail>

0000000090002a8c <test_8>:
    90002a8c:	00800193          	li	gp,8
    90002a90:	00001517          	auipc	a0,0x1
    90002a94:	63050513          	addi	a0,a0,1584 # 900040c0 <test_8_data>
    90002a98:	00053007          	fld	ft0,0(a0)
    90002a9c:	00853087          	fld	ft1,8(a0)
    90002aa0:	01053107          	fld	ft2,16(a0)
    90002aa4:	01853683          	ld	a3,24(a0)
    90002aa8:	c2001553          	fcvt.w.d	a0,ft0,rtz
    90002aac:	001015f3          	fsflags	a1,zero
    90002ab0:	01000613          	li	a2,16
    90002ab4:	70d51263          	bne	a0,a3,900031b8 <fail>
    90002ab8:	70c59063          	bne	a1,a2,900031b8 <fail>

0000000090002abc <test_9>:
    90002abc:	00900193          	li	gp,9
    90002ac0:	00001517          	auipc	a0,0x1
    90002ac4:	62050513          	addi	a0,a0,1568 # 900040e0 <test_9_data>
    90002ac8:	00053007          	fld	ft0,0(a0)
    90002acc:	00853087          	fld	ft1,8(a0)
    90002ad0:	01053107          	fld	ft2,16(a0)
    90002ad4:	01853683          	ld	a3,24(a0)
    90002ad8:	c2001553          	fcvt.w.d	a0,ft0,rtz
    90002adc:	001015f3          	fsflags	a1,zero
    90002ae0:	01000613          	li	a2,16
    90002ae4:	6cd51a63          	bne	a0,a3,900031b8 <fail>
    90002ae8:	6cc59863          	bne	a1,a2,900031b8 <fail>

0000000090002aec <test_12>:
    90002aec:	00c00193          	li	gp,12
    90002af0:	00001517          	auipc	a0,0x1
    90002af4:	61050513          	addi	a0,a0,1552 # 90004100 <test_12_data>
    90002af8:	00053007          	fld	ft0,0(a0)
    90002afc:	00853087          	fld	ft1,8(a0)
    90002b00:	01053107          	fld	ft2,16(a0)
    90002b04:	01853683          	ld	a3,24(a0)
    90002b08:	c2101553          	fcvt.wu.d	a0,ft0,rtz
    90002b0c:	001015f3          	fsflags	a1,zero
    90002b10:	01000613          	li	a2,16
    90002b14:	6ad51263          	bne	a0,a3,900031b8 <fail>
    90002b18:	6ac59063          	bne	a1,a2,900031b8 <fail>

0000000090002b1c <test_13>:
    90002b1c:	00d00193          	li	gp,13
    90002b20:	00001517          	auipc	a0,0x1
    90002b24:	60050513          	addi	a0,a0,1536 # 90004120 <test_13_data>
    90002b28:	00053007          	fld	ft0,0(a0)
    90002b2c:	00853087          	fld	ft1,8(a0)
    90002b30:	01053107          	fld	ft2,16(a0)
    90002b34:	01853683          	ld	a3,24(a0)
    90002b38:	c2101553          	fcvt.wu.d	a0,ft0,rtz
    90002b3c:	001015f3          	fsflags	a1,zero
    90002b40:	01000613          	li	a2,16
    90002b44:	66d51a63          	bne	a0,a3,900031b8 <fail>
    90002b48:	66c59863          	bne	a1,a2,900031b8 <fail>

0000000090002b4c <test_14>:
    90002b4c:	00e00193          	li	gp,14
    90002b50:	00001517          	auipc	a0,0x1
    90002b54:	5f050513          	addi	a0,a0,1520 # 90004140 <test_14_data>
    90002b58:	00053007          	fld	ft0,0(a0)
    90002b5c:	00853087          	fld	ft1,8(a0)
    90002b60:	01053107          	fld	ft2,16(a0)
    90002b64:	01853683          	ld	a3,24(a0)
    90002b68:	c2101553          	fcvt.wu.d	a0,ft0,rtz
    90002b6c:	001015f3          	fsflags	a1,zero
    90002b70:	00100613          	li	a2,1
    90002b74:	64d51263          	bne	a0,a3,900031b8 <fail>
    90002b78:	64c59063          	bne	a1,a2,900031b8 <fail>

0000000090002b7c <test_15>:
    90002b7c:	00f00193          	li	gp,15
    90002b80:	00001517          	auipc	a0,0x1
    90002b84:	5e050513          	addi	a0,a0,1504 # 90004160 <test_15_data>
    90002b88:	00053007          	fld	ft0,0(a0)
    90002b8c:	00853087          	fld	ft1,8(a0)
    90002b90:	01053107          	fld	ft2,16(a0)
    90002b94:	01853683          	ld	a3,24(a0)
    90002b98:	c2101553          	fcvt.wu.d	a0,ft0,rtz
    90002b9c:	001015f3          	fsflags	a1,zero
    90002ba0:	00100613          	li	a2,1
    90002ba4:	60d51a63          	bne	a0,a3,900031b8 <fail>
    90002ba8:	60c59863          	bne	a1,a2,900031b8 <fail>

0000000090002bac <test_16>:
    90002bac:	01000193          	li	gp,16
    90002bb0:	00001517          	auipc	a0,0x1
    90002bb4:	5d050513          	addi	a0,a0,1488 # 90004180 <test_16_data>
    90002bb8:	00053007          	fld	ft0,0(a0)
    90002bbc:	00853087          	fld	ft1,8(a0)
    90002bc0:	01053107          	fld	ft2,16(a0)
    90002bc4:	01853683          	ld	a3,24(a0)
    90002bc8:	c2101553          	fcvt.wu.d	a0,ft0,rtz
    90002bcc:	001015f3          	fsflags	a1,zero
    90002bd0:	00000613          	li	a2,0
    90002bd4:	5ed51263          	bne	a0,a3,900031b8 <fail>
    90002bd8:	5ec59063          	bne	a1,a2,900031b8 <fail>

0000000090002bdc <test_17>:
    90002bdc:	01100193          	li	gp,17
    90002be0:	00001517          	auipc	a0,0x1
    90002be4:	5c050513          	addi	a0,a0,1472 # 900041a0 <test_17_data>
    90002be8:	00053007          	fld	ft0,0(a0)
    90002bec:	00853087          	fld	ft1,8(a0)
    90002bf0:	01053107          	fld	ft2,16(a0)
    90002bf4:	01853683          	ld	a3,24(a0)
    90002bf8:	c2101553          	fcvt.wu.d	a0,ft0,rtz
    90002bfc:	001015f3          	fsflags	a1,zero
    90002c00:	00100613          	li	a2,1
    90002c04:	5ad51a63          	bne	a0,a3,900031b8 <fail>
    90002c08:	5ac59863          	bne	a1,a2,900031b8 <fail>

0000000090002c0c <test_18>:
    90002c0c:	01200193          	li	gp,18
    90002c10:	00001517          	auipc	a0,0x1
    90002c14:	5b050513          	addi	a0,a0,1456 # 900041c0 <test_18_data>
    90002c18:	00053007          	fld	ft0,0(a0)
    90002c1c:	00853087          	fld	ft1,8(a0)
    90002c20:	01053107          	fld	ft2,16(a0)
    90002c24:	01853683          	ld	a3,24(a0)
    90002c28:	c2101553          	fcvt.wu.d	a0,ft0,rtz
    90002c2c:	001015f3          	fsflags	a1,zero
    90002c30:	01000613          	li	a2,16
    90002c34:	58d51263          	bne	a0,a3,900031b8 <fail>
    90002c38:	58c59063          	bne	a1,a2,900031b8 <fail>

0000000090002c3c <test_19>:
    90002c3c:	01300193          	li	gp,19
    90002c40:	00001517          	auipc	a0,0x1
    90002c44:	5a050513          	addi	a0,a0,1440 # 900041e0 <test_19_data>
    90002c48:	00053007          	fld	ft0,0(a0)
    90002c4c:	00853087          	fld	ft1,8(a0)
    90002c50:	01053107          	fld	ft2,16(a0)
    90002c54:	01853683          	ld	a3,24(a0)
    90002c58:	c2101553          	fcvt.wu.d	a0,ft0,rtz
    90002c5c:	001015f3          	fsflags	a1,zero
    90002c60:	00000613          	li	a2,0
    90002c64:	54d51a63          	bne	a0,a3,900031b8 <fail>
    90002c68:	54c59863          	bne	a1,a2,900031b8 <fail>

0000000090002c6c <test_22>:
    90002c6c:	01600193          	li	gp,22
    90002c70:	00001517          	auipc	a0,0x1
    90002c74:	59050513          	addi	a0,a0,1424 # 90004200 <test_22_data>
    90002c78:	00053007          	fld	ft0,0(a0)
    90002c7c:	00853087          	fld	ft1,8(a0)
    90002c80:	01053107          	fld	ft2,16(a0)
    90002c84:	01853683          	ld	a3,24(a0)
    90002c88:	c2201553          	fcvt.l.d	a0,ft0,rtz
    90002c8c:	001015f3          	fsflags	a1,zero
    90002c90:	00100613          	li	a2,1
    90002c94:	52d51263          	bne	a0,a3,900031b8 <fail>
    90002c98:	52c59063          	bne	a1,a2,900031b8 <fail>

0000000090002c9c <test_23>:
    90002c9c:	01700193          	li	gp,23
    90002ca0:	00001517          	auipc	a0,0x1
    90002ca4:	58050513          	addi	a0,a0,1408 # 90004220 <test_23_data>
    90002ca8:	00053007          	fld	ft0,0(a0)
    90002cac:	00853087          	fld	ft1,8(a0)
    90002cb0:	01053107          	fld	ft2,16(a0)
    90002cb4:	01853683          	ld	a3,24(a0)
    90002cb8:	c2201553          	fcvt.l.d	a0,ft0,rtz
    90002cbc:	001015f3          	fsflags	a1,zero
    90002cc0:	00000613          	li	a2,0
    90002cc4:	4ed51a63          	bne	a0,a3,900031b8 <fail>
    90002cc8:	4ec59863          	bne	a1,a2,900031b8 <fail>

0000000090002ccc <test_24>:
    90002ccc:	01800193          	li	gp,24
    90002cd0:	00001517          	auipc	a0,0x1
    90002cd4:	57050513          	addi	a0,a0,1392 # 90004240 <test_24_data>
    90002cd8:	00053007          	fld	ft0,0(a0)
    90002cdc:	00853087          	fld	ft1,8(a0)
    90002ce0:	01053107          	fld	ft2,16(a0)
    90002ce4:	01853683          	ld	a3,24(a0)
    90002ce8:	c2201553          	fcvt.l.d	a0,ft0,rtz
    90002cec:	001015f3          	fsflags	a1,zero
    90002cf0:	00100613          	li	a2,1
    90002cf4:	4cd51263          	bne	a0,a3,900031b8 <fail>
    90002cf8:	4cc59063          	bne	a1,a2,900031b8 <fail>

0000000090002cfc <test_25>:
    90002cfc:	01900193          	li	gp,25
    90002d00:	00001517          	auipc	a0,0x1
    90002d04:	56050513          	addi	a0,a0,1376 # 90004260 <test_25_data>
    90002d08:	00053007          	fld	ft0,0(a0)
    90002d0c:	00853087          	fld	ft1,8(a0)
    90002d10:	01053107          	fld	ft2,16(a0)
    90002d14:	01853683          	ld	a3,24(a0)
    90002d18:	c2201553          	fcvt.l.d	a0,ft0,rtz
    90002d1c:	001015f3          	fsflags	a1,zero
    90002d20:	00100613          	li	a2,1
    90002d24:	48d51a63          	bne	a0,a3,900031b8 <fail>
    90002d28:	48c59863          	bne	a1,a2,900031b8 <fail>

0000000090002d2c <test_26>:
    90002d2c:	01a00193          	li	gp,26
    90002d30:	00001517          	auipc	a0,0x1
    90002d34:	55050513          	addi	a0,a0,1360 # 90004280 <test_26_data>
    90002d38:	00053007          	fld	ft0,0(a0)
    90002d3c:	00853087          	fld	ft1,8(a0)
    90002d40:	01053107          	fld	ft2,16(a0)
    90002d44:	01853683          	ld	a3,24(a0)
    90002d48:	c2201553          	fcvt.l.d	a0,ft0,rtz
    90002d4c:	001015f3          	fsflags	a1,zero
    90002d50:	00000613          	li	a2,0
    90002d54:	46d51263          	bne	a0,a3,900031b8 <fail>
    90002d58:	46c59063          	bne	a1,a2,900031b8 <fail>

0000000090002d5c <test_27>:
    90002d5c:	01b00193          	li	gp,27
    90002d60:	00001517          	auipc	a0,0x1
    90002d64:	54050513          	addi	a0,a0,1344 # 900042a0 <test_27_data>
    90002d68:	00053007          	fld	ft0,0(a0)
    90002d6c:	00853087          	fld	ft1,8(a0)
    90002d70:	01053107          	fld	ft2,16(a0)
    90002d74:	01853683          	ld	a3,24(a0)
    90002d78:	c2201553          	fcvt.l.d	a0,ft0,rtz
    90002d7c:	001015f3          	fsflags	a1,zero
    90002d80:	00100613          	li	a2,1
    90002d84:	42d51a63          	bne	a0,a3,900031b8 <fail>
    90002d88:	42c59863          	bne	a1,a2,900031b8 <fail>

0000000090002d8c <test_28>:
    90002d8c:	01c00193          	li	gp,28
    90002d90:	00001517          	auipc	a0,0x1
    90002d94:	53050513          	addi	a0,a0,1328 # 900042c0 <test_28_data>
    90002d98:	00053007          	fld	ft0,0(a0)
    90002d9c:	00853087          	fld	ft1,8(a0)
    90002da0:	01053107          	fld	ft2,16(a0)
    90002da4:	01853683          	ld	a3,24(a0)
    90002da8:	c2201553          	fcvt.l.d	a0,ft0,rtz
    90002dac:	001015f3          	fsflags	a1,zero
    90002db0:	00000613          	li	a2,0
    90002db4:	40d51263          	bne	a0,a3,900031b8 <fail>
    90002db8:	40c59063          	bne	a1,a2,900031b8 <fail>

0000000090002dbc <test_29>:
    90002dbc:	01d00193          	li	gp,29
    90002dc0:	00001517          	auipc	a0,0x1
    90002dc4:	52050513          	addi	a0,a0,1312 # 900042e0 <test_29_data>
    90002dc8:	00053007          	fld	ft0,0(a0)
    90002dcc:	00853087          	fld	ft1,8(a0)
    90002dd0:	01053107          	fld	ft2,16(a0)
    90002dd4:	01853683          	ld	a3,24(a0)
    90002dd8:	c2201553          	fcvt.l.d	a0,ft0,rtz
    90002ddc:	001015f3          	fsflags	a1,zero
    90002de0:	00000613          	li	a2,0
    90002de4:	3cd51a63          	bne	a0,a3,900031b8 <fail>
    90002de8:	3cc59863          	bne	a1,a2,900031b8 <fail>

0000000090002dec <test_20>:
    90002dec:	01400193          	li	gp,20
    90002df0:	00001517          	auipc	a0,0x1
    90002df4:	51050513          	addi	a0,a0,1296 # 90004300 <test_20_data>
    90002df8:	00053007          	fld	ft0,0(a0)
    90002dfc:	00853087          	fld	ft1,8(a0)
    90002e00:	01053107          	fld	ft2,16(a0)
    90002e04:	01853683          	ld	a3,24(a0)
    90002e08:	c2201553          	fcvt.l.d	a0,ft0,rtz
    90002e0c:	001015f3          	fsflags	a1,zero
    90002e10:	01000613          	li	a2,16
    90002e14:	3ad51263          	bne	a0,a3,900031b8 <fail>
    90002e18:	3ac59063          	bne	a1,a2,900031b8 <fail>

0000000090002e1c <test_21>:
    90002e1c:	01500193          	li	gp,21
    90002e20:	00001517          	auipc	a0,0x1
    90002e24:	50050513          	addi	a0,a0,1280 # 90004320 <test_21_data>
    90002e28:	00053007          	fld	ft0,0(a0)
    90002e2c:	00853087          	fld	ft1,8(a0)
    90002e30:	01053107          	fld	ft2,16(a0)
    90002e34:	01853683          	ld	a3,24(a0)
    90002e38:	c2201553          	fcvt.l.d	a0,ft0,rtz
    90002e3c:	001015f3          	fsflags	a1,zero
    90002e40:	01000613          	li	a2,16
    90002e44:	36d51a63          	bne	a0,a3,900031b8 <fail>
    90002e48:	36c59863          	bne	a1,a2,900031b8 <fail>

0000000090002e4c <test_32>:
    90002e4c:	02000193          	li	gp,32
    90002e50:	00001517          	auipc	a0,0x1
    90002e54:	4f050513          	addi	a0,a0,1264 # 90004340 <test_32_data>
    90002e58:	00053007          	fld	ft0,0(a0)
    90002e5c:	00853087          	fld	ft1,8(a0)
    90002e60:	01053107          	fld	ft2,16(a0)
    90002e64:	01853683          	ld	a3,24(a0)
    90002e68:	c2301553          	fcvt.lu.d	a0,ft0,rtz
    90002e6c:	001015f3          	fsflags	a1,zero
    90002e70:	01000613          	li	a2,16
    90002e74:	34d51263          	bne	a0,a3,900031b8 <fail>
    90002e78:	34c59063          	bne	a1,a2,900031b8 <fail>

0000000090002e7c <test_33>:
    90002e7c:	02100193          	li	gp,33
    90002e80:	00001517          	auipc	a0,0x1
    90002e84:	4e050513          	addi	a0,a0,1248 # 90004360 <test_33_data>
    90002e88:	00053007          	fld	ft0,0(a0)
    90002e8c:	00853087          	fld	ft1,8(a0)
    90002e90:	01053107          	fld	ft2,16(a0)
    90002e94:	01853683          	ld	a3,24(a0)
    90002e98:	c2301553          	fcvt.lu.d	a0,ft0,rtz
    90002e9c:	001015f3          	fsflags	a1,zero
    90002ea0:	01000613          	li	a2,16
    90002ea4:	30d51a63          	bne	a0,a3,900031b8 <fail>
    90002ea8:	30c59863          	bne	a1,a2,900031b8 <fail>

0000000090002eac <test_34>:
    90002eac:	02200193          	li	gp,34
    90002eb0:	00001517          	auipc	a0,0x1
    90002eb4:	4d050513          	addi	a0,a0,1232 # 90004380 <test_34_data>
    90002eb8:	00053007          	fld	ft0,0(a0)
    90002ebc:	00853087          	fld	ft1,8(a0)
    90002ec0:	01053107          	fld	ft2,16(a0)
    90002ec4:	01853683          	ld	a3,24(a0)
    90002ec8:	c2301553          	fcvt.lu.d	a0,ft0,rtz
    90002ecc:	001015f3          	fsflags	a1,zero
    90002ed0:	00100613          	li	a2,1
    90002ed4:	2ed51263          	bne	a0,a3,900031b8 <fail>
    90002ed8:	2ec59063          	bne	a1,a2,900031b8 <fail>

0000000090002edc <test_35>:
    90002edc:	02300193          	li	gp,35
    90002ee0:	00001517          	auipc	a0,0x1
    90002ee4:	4c050513          	addi	a0,a0,1216 # 900043a0 <test_35_data>
    90002ee8:	00053007          	fld	ft0,0(a0)
    90002eec:	00853087          	fld	ft1,8(a0)
    90002ef0:	01053107          	fld	ft2,16(a0)
    90002ef4:	01853683          	ld	a3,24(a0)
    90002ef8:	c2301553          	fcvt.lu.d	a0,ft0,rtz
    90002efc:	001015f3          	fsflags	a1,zero
    90002f00:	00100613          	li	a2,1
    90002f04:	2ad51a63          	bne	a0,a3,900031b8 <fail>
    90002f08:	2ac59863          	bne	a1,a2,900031b8 <fail>

0000000090002f0c <test_36>:
    90002f0c:	02400193          	li	gp,36
    90002f10:	00001517          	auipc	a0,0x1
    90002f14:	4b050513          	addi	a0,a0,1200 # 900043c0 <test_36_data>
    90002f18:	00053007          	fld	ft0,0(a0)
    90002f1c:	00853087          	fld	ft1,8(a0)
    90002f20:	01053107          	fld	ft2,16(a0)
    90002f24:	01853683          	ld	a3,24(a0)
    90002f28:	c2301553          	fcvt.lu.d	a0,ft0,rtz
    90002f2c:	001015f3          	fsflags	a1,zero
    90002f30:	00000613          	li	a2,0
    90002f34:	28d51263          	bne	a0,a3,900031b8 <fail>
    90002f38:	28c59063          	bne	a1,a2,900031b8 <fail>

0000000090002f3c <test_37>:
    90002f3c:	02500193          	li	gp,37
    90002f40:	00001517          	auipc	a0,0x1
    90002f44:	4a050513          	addi	a0,a0,1184 # 900043e0 <test_37_data>
    90002f48:	00053007          	fld	ft0,0(a0)
    90002f4c:	00853087          	fld	ft1,8(a0)
    90002f50:	01053107          	fld	ft2,16(a0)
    90002f54:	01853683          	ld	a3,24(a0)
    90002f58:	c2301553          	fcvt.lu.d	a0,ft0,rtz
    90002f5c:	001015f3          	fsflags	a1,zero
    90002f60:	00100613          	li	a2,1
    90002f64:	24d51a63          	bne	a0,a3,900031b8 <fail>
    90002f68:	24c59863          	bne	a1,a2,900031b8 <fail>

0000000090002f6c <test_38>:
    90002f6c:	02600193          	li	gp,38
    90002f70:	00001517          	auipc	a0,0x1
    90002f74:	49050513          	addi	a0,a0,1168 # 90004400 <test_38_data>
    90002f78:	00053007          	fld	ft0,0(a0)
    90002f7c:	00853087          	fld	ft1,8(a0)
    90002f80:	01053107          	fld	ft2,16(a0)
    90002f84:	01853683          	ld	a3,24(a0)
    90002f88:	c2301553          	fcvt.lu.d	a0,ft0,rtz
    90002f8c:	001015f3          	fsflags	a1,zero
    90002f90:	01000613          	li	a2,16
    90002f94:	22d51263          	bne	a0,a3,900031b8 <fail>
    90002f98:	22c59063          	bne	a1,a2,900031b8 <fail>

0000000090002f9c <test_39>:
    90002f9c:	02700193          	li	gp,39
    90002fa0:	00001517          	auipc	a0,0x1
    90002fa4:	48050513          	addi	a0,a0,1152 # 90004420 <test_39_data>
    90002fa8:	00053007          	fld	ft0,0(a0)
    90002fac:	00853087          	fld	ft1,8(a0)
    90002fb0:	01053107          	fld	ft2,16(a0)
    90002fb4:	01853683          	ld	a3,24(a0)
    90002fb8:	c2301553          	fcvt.lu.d	a0,ft0,rtz
    90002fbc:	001015f3          	fsflags	a1,zero
    90002fc0:	00000613          	li	a2,0
    90002fc4:	1ed51a63          	bne	a0,a3,900031b8 <fail>
    90002fc8:	1ec59863          	bne	a1,a2,900031b8 <fail>

0000000090002fcc <test_42>:
    90002fcc:	00001097          	auipc	ra,0x1
    90002fd0:	48408093          	addi	ra,ra,1156 # 90004450 <tdat_d>
    90002fd4:	0000b087          	fld	ft1,0(ra)
    90002fd8:	c200f0d3          	fcvt.w.d	ra,ft1
    90002fdc:	800003b7          	lui	t2,0x80000
    90002fe0:	fff3839b          	addiw	t2,t2,-1
    90002fe4:	02a00193          	li	gp,42
    90002fe8:	1c709863          	bne	ra,t2,900031b8 <fail>

0000000090002fec <test_43>:
    90002fec:	00001097          	auipc	ra,0x1
    90002ff0:	46408093          	addi	ra,ra,1124 # 90004450 <tdat_d>
    90002ff4:	0000b087          	fld	ft1,0(ra)
    90002ff8:	c220f0d3          	fcvt.l.d	ra,ft1
    90002ffc:	fff0039b          	addiw	t2,zero,-1
    90003000:	03f39393          	slli	t2,t2,0x3f
    90003004:	fff38393          	addi	t2,t2,-1 # ffffffff7fffffff <freelist_head+0xfffffffeefff5ff7>
    90003008:	02b00193          	li	gp,43
    9000300c:	1a709663          	bne	ra,t2,900031b8 <fail>

0000000090003010 <test_44>:
    90003010:	00001097          	auipc	ra,0x1
    90003014:	44008093          	addi	ra,ra,1088 # 90004450 <tdat_d>
    90003018:	0100b087          	fld	ft1,16(ra)
    9000301c:	c200f0d3          	fcvt.w.d	ra,ft1
    90003020:	800003b7          	lui	t2,0x80000
    90003024:	02c00193          	li	gp,44
    90003028:	18709863          	bne	ra,t2,900031b8 <fail>

000000009000302c <test_45>:
    9000302c:	00001097          	auipc	ra,0x1
    90003030:	42408093          	addi	ra,ra,1060 # 90004450 <tdat_d>
    90003034:	0100b087          	fld	ft1,16(ra)
    90003038:	c220f0d3          	fcvt.l.d	ra,ft1
    9000303c:	fff0039b          	addiw	t2,zero,-1
    90003040:	03f39393          	slli	t2,t2,0x3f
    90003044:	02d00193          	li	gp,45
    90003048:	16709863          	bne	ra,t2,900031b8 <fail>

000000009000304c <test_52>:
    9000304c:	00001097          	auipc	ra,0x1
    90003050:	40408093          	addi	ra,ra,1028 # 90004450 <tdat_d>
    90003054:	0080b087          	fld	ft1,8(ra)
    90003058:	c200f0d3          	fcvt.w.d	ra,ft1
    9000305c:	800003b7          	lui	t2,0x80000
    90003060:	fff3839b          	addiw	t2,t2,-1
    90003064:	03400193          	li	gp,52
    90003068:	14709863          	bne	ra,t2,900031b8 <fail>

000000009000306c <test_53>:
    9000306c:	00001097          	auipc	ra,0x1
    90003070:	3e408093          	addi	ra,ra,996 # 90004450 <tdat_d>
    90003074:	0080b087          	fld	ft1,8(ra)
    90003078:	c220f0d3          	fcvt.l.d	ra,ft1
    9000307c:	fff0039b          	addiw	t2,zero,-1
    90003080:	03f39393          	slli	t2,t2,0x3f
    90003084:	fff38393          	addi	t2,t2,-1 # ffffffff7fffffff <freelist_head+0xfffffffeefff5ff7>
    90003088:	03500193          	li	gp,53
    9000308c:	12709663          	bne	ra,t2,900031b8 <fail>

0000000090003090 <test_54>:
    90003090:	00001097          	auipc	ra,0x1
    90003094:	3c008093          	addi	ra,ra,960 # 90004450 <tdat_d>
    90003098:	0180b087          	fld	ft1,24(ra)
    9000309c:	c200f0d3          	fcvt.w.d	ra,ft1
    900030a0:	800003b7          	lui	t2,0x80000
    900030a4:	fff3839b          	addiw	t2,t2,-1
    900030a8:	03600193          	li	gp,54
    900030ac:	10709663          	bne	ra,t2,900031b8 <fail>

00000000900030b0 <test_55>:
    900030b0:	00001097          	auipc	ra,0x1
    900030b4:	3a008093          	addi	ra,ra,928 # 90004450 <tdat_d>
    900030b8:	0180b087          	fld	ft1,24(ra)
    900030bc:	c220f0d3          	fcvt.l.d	ra,ft1
    900030c0:	fff0039b          	addiw	t2,zero,-1
    900030c4:	03f39393          	slli	t2,t2,0x3f
    900030c8:	fff38393          	addi	t2,t2,-1 # ffffffff7fffffff <freelist_head+0xfffffffeefff5ff7>
    900030cc:	03700193          	li	gp,55
    900030d0:	0e709463          	bne	ra,t2,900031b8 <fail>

00000000900030d4 <test_62>:
    900030d4:	00001097          	auipc	ra,0x1
    900030d8:	37c08093          	addi	ra,ra,892 # 90004450 <tdat_d>
    900030dc:	0000b087          	fld	ft1,0(ra)
    900030e0:	c210f0d3          	fcvt.wu.d	ra,ft1
    900030e4:	fff00393          	li	t2,-1
    900030e8:	03e00193          	li	gp,62
    900030ec:	0c709663          	bne	ra,t2,900031b8 <fail>

00000000900030f0 <test_63>:
    900030f0:	00001097          	auipc	ra,0x1
    900030f4:	36008093          	addi	ra,ra,864 # 90004450 <tdat_d>
    900030f8:	0080b087          	fld	ft1,8(ra)
    900030fc:	c210f0d3          	fcvt.wu.d	ra,ft1
    90003100:	fff00393          	li	t2,-1
    90003104:	03f00193          	li	gp,63
    90003108:	0a709863          	bne	ra,t2,900031b8 <fail>

000000009000310c <test_64>:
    9000310c:	00001097          	auipc	ra,0x1
    90003110:	34408093          	addi	ra,ra,836 # 90004450 <tdat_d>
    90003114:	0100b087          	fld	ft1,16(ra)
    90003118:	c210f0d3          	fcvt.wu.d	ra,ft1
    9000311c:	00000393          	li	t2,0
    90003120:	04000193          	li	gp,64
    90003124:	08709a63          	bne	ra,t2,900031b8 <fail>

0000000090003128 <test_65>:
    90003128:	00001097          	auipc	ra,0x1
    9000312c:	32808093          	addi	ra,ra,808 # 90004450 <tdat_d>
    90003130:	0180b087          	fld	ft1,24(ra)
    90003134:	c210f0d3          	fcvt.wu.d	ra,ft1
    90003138:	fff00393          	li	t2,-1
    9000313c:	04100193          	li	gp,65
    90003140:	06709c63          	bne	ra,t2,900031b8 <fail>

0000000090003144 <test_66>:
    90003144:	00001097          	auipc	ra,0x1
    90003148:	30c08093          	addi	ra,ra,780 # 90004450 <tdat_d>
    9000314c:	0000b087          	fld	ft1,0(ra)
    90003150:	c230f0d3          	fcvt.lu.d	ra,ft1
    90003154:	fff00393          	li	t2,-1
    90003158:	04200193          	li	gp,66
    9000315c:	04709e63          	bne	ra,t2,900031b8 <fail>

0000000090003160 <test_67>:
    90003160:	00001097          	auipc	ra,0x1
    90003164:	2f008093          	addi	ra,ra,752 # 90004450 <tdat_d>
    90003168:	0080b087          	fld	ft1,8(ra)
    9000316c:	c230f0d3          	fcvt.lu.d	ra,ft1
    90003170:	fff00393          	li	t2,-1
    90003174:	04300193          	li	gp,67
    90003178:	04709063          	bne	ra,t2,900031b8 <fail>

000000009000317c <test_68>:
    9000317c:	00001097          	auipc	ra,0x1
    90003180:	2d408093          	addi	ra,ra,724 # 90004450 <tdat_d>
    90003184:	0100b087          	fld	ft1,16(ra)
    90003188:	c230f0d3          	fcvt.lu.d	ra,ft1
    9000318c:	00000393          	li	t2,0
    90003190:	04400193          	li	gp,68
    90003194:	02709263          	bne	ra,t2,900031b8 <fail>

0000000090003198 <test_69>:
    90003198:	00001097          	auipc	ra,0x1
    9000319c:	2b808093          	addi	ra,ra,696 # 90004450 <tdat_d>
    900031a0:	0180b087          	fld	ft1,24(ra)
    900031a4:	c230f0d3          	fcvt.lu.d	ra,ft1
    900031a8:	fff00393          	li	t2,-1
    900031ac:	04500193          	li	gp,69
    900031b0:	00709463          	bne	ra,t2,900031b8 <fail>
    900031b4:	00301a63          	bne	zero,gp,900031c8 <pass>

00000000900031b8 <fail>:
    900031b8:	00119513          	slli	a0,gp,0x1
    900031bc:	00050063          	beqz	a0,900031bc <fail+0x4>
    900031c0:	00156513          	ori	a0,a0,1
    900031c4:	00000073          	ecall

00000000900031c8 <pass>:
    900031c8:	00100513          	li	a0,1
    900031cc:	00000073          	ecall
    900031d0:	c0001073          	unimp
