
rv64ui-p-or:     file format elf64-littleriscv


Disassembly of section .text.init:

0000000090000000 <_start>:
    90000000:	0480006f          	j	90000048 <reset_vector>

0000000090000004 <trap_vector>:
    90000004:	34202f73          	csrr	t5,mcause
    90000008:	00800f93          	li	t6,8
    9000000c:	03ff0863          	beq	t5,t6,9000003c <write_tohost>
    90000010:	00900f93          	li	t6,9
    90000014:	03ff0463          	beq	t5,t6,9000003c <write_tohost>
    90000018:	00b00f93          	li	t6,11
    9000001c:	03ff0063          	beq	t5,t6,9000003c <write_tohost>
    90000020:	00000f13          	li	t5,0
    90000024:	000f0463          	beqz	t5,9000002c <trap_vector+0x28>
    90000028:	000f0067          	jr	t5
    9000002c:	34202f73          	csrr	t5,mcause
    90000030:	000f5463          	bgez	t5,90000038 <handle_exception>
    90000034:	0040006f          	j	90000038 <handle_exception>

0000000090000038 <handle_exception>:
    90000038:	5391e193          	ori	gp,gp,1337

000000009000003c <write_tohost>:
    9000003c:	00001f17          	auipc	t5,0x1
    90000040:	fc3f2223          	sw	gp,-60(t5) # 90001000 <tohost>
    90000044:	ff9ff06f          	j	9000003c <write_tohost>

0000000090000048 <reset_vector>:
    90000048:	00000093          	li	ra,0
    9000004c:	00000113          	li	sp,0
    90000050:	00000193          	li	gp,0
    90000054:	00000213          	li	tp,0
    90000058:	00000293          	li	t0,0
    9000005c:	00000313          	li	t1,0
    90000060:	00000393          	li	t2,0
    90000064:	00000413          	li	s0,0
    90000068:	00000493          	li	s1,0
    9000006c:	00000513          	li	a0,0
    90000070:	00000593          	li	a1,0
    90000074:	00000613          	li	a2,0
    90000078:	00000693          	li	a3,0
    9000007c:	00000713          	li	a4,0
    90000080:	00000793          	li	a5,0
    90000084:	00000813          	li	a6,0
    90000088:	00000893          	li	a7,0
    9000008c:	00000913          	li	s2,0
    90000090:	00000993          	li	s3,0
    90000094:	00000a13          	li	s4,0
    90000098:	00000a93          	li	s5,0
    9000009c:	00000b13          	li	s6,0
    900000a0:	00000b93          	li	s7,0
    900000a4:	00000c13          	li	s8,0
    900000a8:	00000c93          	li	s9,0
    900000ac:	00000d13          	li	s10,0
    900000b0:	00000d93          	li	s11,0
    900000b4:	00000e13          	li	t3,0
    900000b8:	00000e93          	li	t4,0
    900000bc:	00000f13          	li	t5,0
    900000c0:	00000f93          	li	t6,0
    900000c4:	f1402573          	csrr	a0,mhartid
    900000c8:	00051063          	bnez	a0,900000c8 <reset_vector+0x80>
    900000cc:	00000297          	auipc	t0,0x0
    900000d0:	01028293          	addi	t0,t0,16 # 900000dc <reset_vector+0x94>
    900000d4:	30529073          	csrw	mtvec,t0
    900000d8:	18005073          	csrwi	satp,0
    900000dc:	00000297          	auipc	t0,0x0
    900000e0:	02428293          	addi	t0,t0,36 # 90000100 <reset_vector+0xb8>
    900000e4:	30529073          	csrw	mtvec,t0
    900000e8:	0010029b          	addiw	t0,zero,1
    900000ec:	03529293          	slli	t0,t0,0x35
    900000f0:	fff28293          	addi	t0,t0,-1
    900000f4:	3b029073          	csrw	pmpaddr0,t0
    900000f8:	01f00293          	li	t0,31
    900000fc:	3a029073          	csrw	pmpcfg0,t0
    90000100:	30405073          	csrwi	mie,0
    90000104:	00000297          	auipc	t0,0x0
    90000108:	01428293          	addi	t0,t0,20 # 90000118 <reset_vector+0xd0>
    9000010c:	30529073          	csrw	mtvec,t0
    90000110:	30205073          	csrwi	medeleg,0
    90000114:	30305073          	csrwi	mideleg,0
    90000118:	00000193          	li	gp,0
    9000011c:	00000297          	auipc	t0,0x0
    90000120:	ee828293          	addi	t0,t0,-280 # 90000004 <trap_vector>
    90000124:	30529073          	csrw	mtvec,t0
    90000128:	00100513          	li	a0,1
    9000012c:	01f51513          	slli	a0,a0,0x1f
    90000130:	00055c63          	bgez	a0,90000148 <reset_vector+0x100>
    90000134:	0ff0000f          	fence
    90000138:	00100193          	li	gp,1
    9000013c:	05d00893          	li	a7,93
    90000140:	00000513          	li	a0,0
    90000144:	00000073          	ecall
    90000148:	00000293          	li	t0,0
    9000014c:	00028a63          	beqz	t0,90000160 <reset_vector+0x118>
    90000150:	10529073          	csrw	stvec,t0
    90000154:	0000b2b7          	lui	t0,0xb
    90000158:	1092829b          	addiw	t0,t0,265
    9000015c:	30229073          	csrw	medeleg,t0
    90000160:	30005073          	csrwi	mstatus,0
    90000164:	00000297          	auipc	t0,0x0
    90000168:	01428293          	addi	t0,t0,20 # 90000178 <test_2>
    9000016c:	34129073          	csrw	mepc,t0
    90000170:	f1402573          	csrr	a0,mhartid
    90000174:	30200073          	mret

0000000090000178 <test_2>:
    90000178:	000100b7          	lui	ra,0x10
    9000017c:	f010809b          	addiw	ra,ra,-255
    90000180:	01009093          	slli	ra,ra,0x10
    90000184:	f0008093          	addi	ra,ra,-256 # ff00 <_start-0x8fff0100>
    90000188:	0f0f1137          	lui	sp,0xf0f1
    9000018c:	f0f1011b          	addiw	sp,sp,-241
    90000190:	0020e733          	or	a4,ra,sp
    90000194:	000013b7          	lui	t2,0x1
    90000198:	ff13839b          	addiw	t2,t2,-15
    9000019c:	01439393          	slli	t2,t2,0x14
    900001a0:	f0f38393          	addi	t2,t2,-241 # f0f <_start-0x8ffff0f1>
    900001a4:	00200193          	li	gp,2
    900001a8:	5a771663          	bne	a4,t2,90000754 <fail>

00000000900001ac <test_3>:
    900001ac:	0ff010b7          	lui	ra,0xff01
    900001b0:	ff00809b          	addiw	ra,ra,-16
    900001b4:	000f1137          	lui	sp,0xf1
    900001b8:	f0f1011b          	addiw	sp,sp,-241
    900001bc:	00c11113          	slli	sp,sp,0xc
    900001c0:	0f010113          	addi	sp,sp,240 # f10f0 <_start-0x8ff0ef10>
    900001c4:	0020e733          	or	a4,ra,sp
    900001c8:	000103b7          	lui	t2,0x10
    900001cc:	ff13839b          	addiw	t2,t2,-15
    900001d0:	01039393          	slli	t2,t2,0x10
    900001d4:	ff038393          	addi	t2,t2,-16 # fff0 <_start-0x8fff0010>
    900001d8:	00300193          	li	gp,3
    900001dc:	56771c63          	bne	a4,t2,90000754 <fail>

00000000900001e0 <test_4>:
    900001e0:	00ff00b7          	lui	ra,0xff0
    900001e4:	0ff0809b          	addiw	ra,ra,255
    900001e8:	0f0f1137          	lui	sp,0xf0f1
    900001ec:	f0f1011b          	addiw	sp,sp,-241
    900001f0:	0020e733          	or	a4,ra,sp
    900001f4:	0fff13b7          	lui	t2,0xfff1
    900001f8:	fff3839b          	addiw	t2,t2,-1
    900001fc:	00400193          	li	gp,4
    90000200:	54771a63          	bne	a4,t2,90000754 <fail>

0000000090000204 <test_5>:
    90000204:	000f00b7          	lui	ra,0xf0
    90000208:	0ff0809b          	addiw	ra,ra,255
    9000020c:	00c09093          	slli	ra,ra,0xc
    90000210:	00f08093          	addi	ra,ra,15 # f000f <_start-0x8ff0fff1>
    90000214:	000f1137          	lui	sp,0xf1
    90000218:	f0f1011b          	addiw	sp,sp,-241
    9000021c:	00c11113          	slli	sp,sp,0xc
    90000220:	0f010113          	addi	sp,sp,240 # f10f0 <_start-0x8ff0ef10>
    90000224:	0020e733          	or	a4,ra,sp
    90000228:	000f13b7          	lui	t2,0xf1
    9000022c:	fff3839b          	addiw	t2,t2,-1
    90000230:	00c39393          	slli	t2,t2,0xc
    90000234:	0ff38393          	addi	t2,t2,255 # f10ff <_start-0x8ff0ef01>
    90000238:	00500193          	li	gp,5
    9000023c:	50771c63          	bne	a4,t2,90000754 <fail>

0000000090000240 <test_6>:
    90000240:	000100b7          	lui	ra,0x10
    90000244:	f010809b          	addiw	ra,ra,-255
    90000248:	01009093          	slli	ra,ra,0x10
    9000024c:	f0008093          	addi	ra,ra,-256 # ff00 <_start-0x8fff0100>
    90000250:	0f0f1137          	lui	sp,0xf0f1
    90000254:	f0f1011b          	addiw	sp,sp,-241
    90000258:	0020e0b3          	or	ra,ra,sp
    9000025c:	000013b7          	lui	t2,0x1
    90000260:	ff13839b          	addiw	t2,t2,-15
    90000264:	01439393          	slli	t2,t2,0x14
    90000268:	f0f38393          	addi	t2,t2,-241 # f0f <_start-0x8ffff0f1>
    9000026c:	00600193          	li	gp,6
    90000270:	4e709263          	bne	ra,t2,90000754 <fail>

0000000090000274 <test_7>:
    90000274:	000100b7          	lui	ra,0x10
    90000278:	f010809b          	addiw	ra,ra,-255
    9000027c:	01009093          	slli	ra,ra,0x10
    90000280:	f0008093          	addi	ra,ra,-256 # ff00 <_start-0x8fff0100>
    90000284:	0f0f1137          	lui	sp,0xf0f1
    90000288:	f0f1011b          	addiw	sp,sp,-241
    9000028c:	0020e133          	or	sp,ra,sp
    90000290:	000013b7          	lui	t2,0x1
    90000294:	ff13839b          	addiw	t2,t2,-15
    90000298:	01439393          	slli	t2,t2,0x14
    9000029c:	f0f38393          	addi	t2,t2,-241 # f0f <_start-0x8ffff0f1>
    900002a0:	00700193          	li	gp,7
    900002a4:	4a711863          	bne	sp,t2,90000754 <fail>

00000000900002a8 <test_8>:
    900002a8:	000100b7          	lui	ra,0x10
    900002ac:	f010809b          	addiw	ra,ra,-255
    900002b0:	01009093          	slli	ra,ra,0x10
    900002b4:	f0008093          	addi	ra,ra,-256 # ff00 <_start-0x8fff0100>
    900002b8:	0010e0b3          	or	ra,ra,ra
    900002bc:	000103b7          	lui	t2,0x10
    900002c0:	f013839b          	addiw	t2,t2,-255
    900002c4:	01039393          	slli	t2,t2,0x10
    900002c8:	f0038393          	addi	t2,t2,-256 # ff00 <_start-0x8fff0100>
    900002cc:	00800193          	li	gp,8
    900002d0:	48709263          	bne	ra,t2,90000754 <fail>

00000000900002d4 <test_9>:
    900002d4:	00000213          	li	tp,0
    900002d8:	000100b7          	lui	ra,0x10
    900002dc:	f010809b          	addiw	ra,ra,-255
    900002e0:	01009093          	slli	ra,ra,0x10
    900002e4:	f0008093          	addi	ra,ra,-256 # ff00 <_start-0x8fff0100>
    900002e8:	0f0f1137          	lui	sp,0xf0f1
    900002ec:	f0f1011b          	addiw	sp,sp,-241
    900002f0:	0020e733          	or	a4,ra,sp
    900002f4:	00070313          	mv	t1,a4
    900002f8:	00120213          	addi	tp,tp,1 # 1 <_start-0x8fffffff>
    900002fc:	00200293          	li	t0,2
    90000300:	fc521ce3          	bne	tp,t0,900002d8 <test_9+0x4>
    90000304:	000013b7          	lui	t2,0x1
    90000308:	ff13839b          	addiw	t2,t2,-15
    9000030c:	01439393          	slli	t2,t2,0x14
    90000310:	f0f38393          	addi	t2,t2,-241 # f0f <_start-0x8ffff0f1>
    90000314:	00900193          	li	gp,9
    90000318:	42731e63          	bne	t1,t2,90000754 <fail>

000000009000031c <test_10>:
    9000031c:	00000213          	li	tp,0
    90000320:	0ff010b7          	lui	ra,0xff01
    90000324:	ff00809b          	addiw	ra,ra,-16
    90000328:	000f1137          	lui	sp,0xf1
    9000032c:	f0f1011b          	addiw	sp,sp,-241
    90000330:	00c11113          	slli	sp,sp,0xc
    90000334:	0f010113          	addi	sp,sp,240 # f10f0 <_start-0x8ff0ef10>
    90000338:	0020e733          	or	a4,ra,sp
    9000033c:	00000013          	nop
    90000340:	00070313          	mv	t1,a4
    90000344:	00120213          	addi	tp,tp,1 # 1 <_start-0x8fffffff>
    90000348:	00200293          	li	t0,2
    9000034c:	fc521ae3          	bne	tp,t0,90000320 <test_10+0x4>
    90000350:	000103b7          	lui	t2,0x10
    90000354:	ff13839b          	addiw	t2,t2,-15
    90000358:	01039393          	slli	t2,t2,0x10
    9000035c:	ff038393          	addi	t2,t2,-16 # fff0 <_start-0x8fff0010>
    90000360:	00a00193          	li	gp,10
    90000364:	3e731863          	bne	t1,t2,90000754 <fail>

0000000090000368 <test_11>:
    90000368:	00000213          	li	tp,0
    9000036c:	00ff00b7          	lui	ra,0xff0
    90000370:	0ff0809b          	addiw	ra,ra,255
    90000374:	0f0f1137          	lui	sp,0xf0f1
    90000378:	f0f1011b          	addiw	sp,sp,-241
    9000037c:	0020e733          	or	a4,ra,sp
    90000380:	00000013          	nop
    90000384:	00000013          	nop
    90000388:	00070313          	mv	t1,a4
    9000038c:	00120213          	addi	tp,tp,1 # 1 <_start-0x8fffffff>
    90000390:	00200293          	li	t0,2
    90000394:	fc521ce3          	bne	tp,t0,9000036c <test_11+0x4>
    90000398:	0fff13b7          	lui	t2,0xfff1
    9000039c:	fff3839b          	addiw	t2,t2,-1
    900003a0:	00b00193          	li	gp,11
    900003a4:	3a731863          	bne	t1,t2,90000754 <fail>

00000000900003a8 <test_12>:
    900003a8:	00000213          	li	tp,0
    900003ac:	000100b7          	lui	ra,0x10
    900003b0:	f010809b          	addiw	ra,ra,-255
    900003b4:	01009093          	slli	ra,ra,0x10
    900003b8:	f0008093          	addi	ra,ra,-256 # ff00 <_start-0x8fff0100>
    900003bc:	0f0f1137          	lui	sp,0xf0f1
    900003c0:	f0f1011b          	addiw	sp,sp,-241
    900003c4:	0020e733          	or	a4,ra,sp
    900003c8:	00120213          	addi	tp,tp,1 # 1 <_start-0x8fffffff>
    900003cc:	00200293          	li	t0,2
    900003d0:	fc521ee3          	bne	tp,t0,900003ac <test_12+0x4>
    900003d4:	000013b7          	lui	t2,0x1
    900003d8:	ff13839b          	addiw	t2,t2,-15
    900003dc:	01439393          	slli	t2,t2,0x14
    900003e0:	f0f38393          	addi	t2,t2,-241 # f0f <_start-0x8ffff0f1>
    900003e4:	00c00193          	li	gp,12
    900003e8:	36771663          	bne	a4,t2,90000754 <fail>

00000000900003ec <test_13>:
    900003ec:	00000213          	li	tp,0
    900003f0:	0ff010b7          	lui	ra,0xff01
    900003f4:	ff00809b          	addiw	ra,ra,-16
    900003f8:	000f1137          	lui	sp,0xf1
    900003fc:	f0f1011b          	addiw	sp,sp,-241
    90000400:	00c11113          	slli	sp,sp,0xc
    90000404:	0f010113          	addi	sp,sp,240 # f10f0 <_start-0x8ff0ef10>
    90000408:	00000013          	nop
    9000040c:	0020e733          	or	a4,ra,sp
    90000410:	00120213          	addi	tp,tp,1 # 1 <_start-0x8fffffff>
    90000414:	00200293          	li	t0,2
    90000418:	fc521ce3          	bne	tp,t0,900003f0 <test_13+0x4>
    9000041c:	000103b7          	lui	t2,0x10
    90000420:	ff13839b          	addiw	t2,t2,-15
    90000424:	01039393          	slli	t2,t2,0x10
    90000428:	ff038393          	addi	t2,t2,-16 # fff0 <_start-0x8fff0010>
    9000042c:	00d00193          	li	gp,13
    90000430:	32771263          	bne	a4,t2,90000754 <fail>

0000000090000434 <test_14>:
    90000434:	00000213          	li	tp,0
    90000438:	00ff00b7          	lui	ra,0xff0
    9000043c:	0ff0809b          	addiw	ra,ra,255
    90000440:	0f0f1137          	lui	sp,0xf0f1
    90000444:	f0f1011b          	addiw	sp,sp,-241
    90000448:	00000013          	nop
    9000044c:	00000013          	nop
    90000450:	0020e733          	or	a4,ra,sp
    90000454:	00120213          	addi	tp,tp,1 # 1 <_start-0x8fffffff>
    90000458:	00200293          	li	t0,2
    9000045c:	fc521ee3          	bne	tp,t0,90000438 <test_14+0x4>
    90000460:	0fff13b7          	lui	t2,0xfff1
    90000464:	fff3839b          	addiw	t2,t2,-1
    90000468:	00e00193          	li	gp,14
    9000046c:	2e771463          	bne	a4,t2,90000754 <fail>

0000000090000470 <test_15>:
    90000470:	00000213          	li	tp,0
    90000474:	000100b7          	lui	ra,0x10
    90000478:	f010809b          	addiw	ra,ra,-255
    9000047c:	01009093          	slli	ra,ra,0x10
    90000480:	f0008093          	addi	ra,ra,-256 # ff00 <_start-0x8fff0100>
    90000484:	00000013          	nop
    90000488:	0f0f1137          	lui	sp,0xf0f1
    9000048c:	f0f1011b          	addiw	sp,sp,-241
    90000490:	0020e733          	or	a4,ra,sp
    90000494:	00120213          	addi	tp,tp,1 # 1 <_start-0x8fffffff>
    90000498:	00200293          	li	t0,2
    9000049c:	fc521ce3          	bne	tp,t0,90000474 <test_15+0x4>
    900004a0:	000013b7          	lui	t2,0x1
    900004a4:	ff13839b          	addiw	t2,t2,-15
    900004a8:	01439393          	slli	t2,t2,0x14
    900004ac:	f0f38393          	addi	t2,t2,-241 # f0f <_start-0x8ffff0f1>
    900004b0:	00f00193          	li	gp,15
    900004b4:	2a771063          	bne	a4,t2,90000754 <fail>

00000000900004b8 <test_16>:
    900004b8:	00000213          	li	tp,0
    900004bc:	0ff010b7          	lui	ra,0xff01
    900004c0:	ff00809b          	addiw	ra,ra,-16
    900004c4:	00000013          	nop
    900004c8:	000f1137          	lui	sp,0xf1
    900004cc:	f0f1011b          	addiw	sp,sp,-241
    900004d0:	00c11113          	slli	sp,sp,0xc
    900004d4:	0f010113          	addi	sp,sp,240 # f10f0 <_start-0x8ff0ef10>
    900004d8:	00000013          	nop
    900004dc:	0020e733          	or	a4,ra,sp
    900004e0:	00120213          	addi	tp,tp,1 # 1 <_start-0x8fffffff>
    900004e4:	00200293          	li	t0,2
    900004e8:	fc521ae3          	bne	tp,t0,900004bc <test_16+0x4>
    900004ec:	000103b7          	lui	t2,0x10
    900004f0:	ff13839b          	addiw	t2,t2,-15
    900004f4:	01039393          	slli	t2,t2,0x10
    900004f8:	ff038393          	addi	t2,t2,-16 # fff0 <_start-0x8fff0010>
    900004fc:	01000193          	li	gp,16
    90000500:	24771a63          	bne	a4,t2,90000754 <fail>

0000000090000504 <test_17>:
    90000504:	00000213          	li	tp,0
    90000508:	00ff00b7          	lui	ra,0xff0
    9000050c:	0ff0809b          	addiw	ra,ra,255
    90000510:	00000013          	nop
    90000514:	00000013          	nop
    90000518:	0f0f1137          	lui	sp,0xf0f1
    9000051c:	f0f1011b          	addiw	sp,sp,-241
    90000520:	0020e733          	or	a4,ra,sp
    90000524:	00120213          	addi	tp,tp,1 # 1 <_start-0x8fffffff>
    90000528:	00200293          	li	t0,2
    9000052c:	fc521ee3          	bne	tp,t0,90000508 <test_17+0x4>
    90000530:	0fff13b7          	lui	t2,0xfff1
    90000534:	fff3839b          	addiw	t2,t2,-1
    90000538:	01100193          	li	gp,17
    9000053c:	20771c63          	bne	a4,t2,90000754 <fail>

0000000090000540 <test_18>:
    90000540:	00000213          	li	tp,0
    90000544:	0f0f1137          	lui	sp,0xf0f1
    90000548:	f0f1011b          	addiw	sp,sp,-241
    9000054c:	000100b7          	lui	ra,0x10
    90000550:	f010809b          	addiw	ra,ra,-255
    90000554:	01009093          	slli	ra,ra,0x10
    90000558:	f0008093          	addi	ra,ra,-256 # ff00 <_start-0x8fff0100>
    9000055c:	0020e733          	or	a4,ra,sp
    90000560:	00120213          	addi	tp,tp,1 # 1 <_start-0x8fffffff>
    90000564:	00200293          	li	t0,2
    90000568:	fc521ee3          	bne	tp,t0,90000544 <test_18+0x4>
    9000056c:	000013b7          	lui	t2,0x1
    90000570:	ff13839b          	addiw	t2,t2,-15
    90000574:	01439393          	slli	t2,t2,0x14
    90000578:	f0f38393          	addi	t2,t2,-241 # f0f <_start-0x8ffff0f1>
    9000057c:	01200193          	li	gp,18
    90000580:	1c771a63          	bne	a4,t2,90000754 <fail>

0000000090000584 <test_19>:
    90000584:	00000213          	li	tp,0
    90000588:	000f1137          	lui	sp,0xf1
    9000058c:	f0f1011b          	addiw	sp,sp,-241
    90000590:	00c11113          	slli	sp,sp,0xc
    90000594:	0f010113          	addi	sp,sp,240 # f10f0 <_start-0x8ff0ef10>
    90000598:	0ff010b7          	lui	ra,0xff01
    9000059c:	ff00809b          	addiw	ra,ra,-16
    900005a0:	00000013          	nop
    900005a4:	0020e733          	or	a4,ra,sp
    900005a8:	00120213          	addi	tp,tp,1 # 1 <_start-0x8fffffff>
    900005ac:	00200293          	li	t0,2
    900005b0:	fc521ce3          	bne	tp,t0,90000588 <test_19+0x4>
    900005b4:	000103b7          	lui	t2,0x10
    900005b8:	ff13839b          	addiw	t2,t2,-15
    900005bc:	01039393          	slli	t2,t2,0x10
    900005c0:	ff038393          	addi	t2,t2,-16 # fff0 <_start-0x8fff0010>
    900005c4:	01300193          	li	gp,19
    900005c8:	18771663          	bne	a4,t2,90000754 <fail>

00000000900005cc <test_20>:
    900005cc:	00000213          	li	tp,0
    900005d0:	0f0f1137          	lui	sp,0xf0f1
    900005d4:	f0f1011b          	addiw	sp,sp,-241
    900005d8:	00ff00b7          	lui	ra,0xff0
    900005dc:	0ff0809b          	addiw	ra,ra,255
    900005e0:	00000013          	nop
    900005e4:	00000013          	nop
    900005e8:	0020e733          	or	a4,ra,sp
    900005ec:	00120213          	addi	tp,tp,1 # 1 <_start-0x8fffffff>
    900005f0:	00200293          	li	t0,2
    900005f4:	fc521ee3          	bne	tp,t0,900005d0 <test_20+0x4>
    900005f8:	0fff13b7          	lui	t2,0xfff1
    900005fc:	fff3839b          	addiw	t2,t2,-1
    90000600:	01400193          	li	gp,20
    90000604:	14771863          	bne	a4,t2,90000754 <fail>

0000000090000608 <test_21>:
    90000608:	00000213          	li	tp,0
    9000060c:	0f0f1137          	lui	sp,0xf0f1
    90000610:	f0f1011b          	addiw	sp,sp,-241
    90000614:	00000013          	nop
    90000618:	000100b7          	lui	ra,0x10
    9000061c:	f010809b          	addiw	ra,ra,-255
    90000620:	01009093          	slli	ra,ra,0x10
    90000624:	f0008093          	addi	ra,ra,-256 # ff00 <_start-0x8fff0100>
    90000628:	0020e733          	or	a4,ra,sp
    9000062c:	00120213          	addi	tp,tp,1 # 1 <_start-0x8fffffff>
    90000630:	00200293          	li	t0,2
    90000634:	fc521ce3          	bne	tp,t0,9000060c <test_21+0x4>
    90000638:	000013b7          	lui	t2,0x1
    9000063c:	ff13839b          	addiw	t2,t2,-15
    90000640:	01439393          	slli	t2,t2,0x14
    90000644:	f0f38393          	addi	t2,t2,-241 # f0f <_start-0x8ffff0f1>
    90000648:	01500193          	li	gp,21
    9000064c:	10771463          	bne	a4,t2,90000754 <fail>

0000000090000650 <test_22>:
    90000650:	00000213          	li	tp,0
    90000654:	000f1137          	lui	sp,0xf1
    90000658:	f0f1011b          	addiw	sp,sp,-241
    9000065c:	00c11113          	slli	sp,sp,0xc
    90000660:	0f010113          	addi	sp,sp,240 # f10f0 <_start-0x8ff0ef10>
    90000664:	00000013          	nop
    90000668:	0ff010b7          	lui	ra,0xff01
    9000066c:	ff00809b          	addiw	ra,ra,-16
    90000670:	00000013          	nop
    90000674:	0020e733          	or	a4,ra,sp
    90000678:	00120213          	addi	tp,tp,1 # 1 <_start-0x8fffffff>
    9000067c:	00200293          	li	t0,2
    90000680:	fc521ae3          	bne	tp,t0,90000654 <test_22+0x4>
    90000684:	000103b7          	lui	t2,0x10
    90000688:	ff13839b          	addiw	t2,t2,-15
    9000068c:	01039393          	slli	t2,t2,0x10
    90000690:	ff038393          	addi	t2,t2,-16 # fff0 <_start-0x8fff0010>
    90000694:	01600193          	li	gp,22
    90000698:	0a771e63          	bne	a4,t2,90000754 <fail>

000000009000069c <test_23>:
    9000069c:	00000213          	li	tp,0
    900006a0:	0f0f1137          	lui	sp,0xf0f1
    900006a4:	f0f1011b          	addiw	sp,sp,-241
    900006a8:	00000013          	nop
    900006ac:	00000013          	nop
    900006b0:	00ff00b7          	lui	ra,0xff0
    900006b4:	0ff0809b          	addiw	ra,ra,255
    900006b8:	0020e733          	or	a4,ra,sp
    900006bc:	00120213          	addi	tp,tp,1 # 1 <_start-0x8fffffff>
    900006c0:	00200293          	li	t0,2
    900006c4:	fc521ee3          	bne	tp,t0,900006a0 <test_23+0x4>
    900006c8:	0fff13b7          	lui	t2,0xfff1
    900006cc:	fff3839b          	addiw	t2,t2,-1
    900006d0:	01700193          	li	gp,23
    900006d4:	08771063          	bne	a4,t2,90000754 <fail>

00000000900006d8 <test_24>:
    900006d8:	000100b7          	lui	ra,0x10
    900006dc:	f010809b          	addiw	ra,ra,-255
    900006e0:	01009093          	slli	ra,ra,0x10
    900006e4:	f0008093          	addi	ra,ra,-256 # ff00 <_start-0x8fff0100>
    900006e8:	00106133          	or	sp,zero,ra
    900006ec:	000103b7          	lui	t2,0x10
    900006f0:	f013839b          	addiw	t2,t2,-255
    900006f4:	01039393          	slli	t2,t2,0x10
    900006f8:	f0038393          	addi	t2,t2,-256 # ff00 <_start-0x8fff0100>
    900006fc:	01800193          	li	gp,24
    90000700:	04711a63          	bne	sp,t2,90000754 <fail>

0000000090000704 <test_25>:
    90000704:	00ff00b7          	lui	ra,0xff0
    90000708:	0ff0809b          	addiw	ra,ra,255
    9000070c:	0000e133          	or	sp,ra,zero
    90000710:	00ff03b7          	lui	t2,0xff0
    90000714:	0ff3839b          	addiw	t2,t2,255
    90000718:	01900193          	li	gp,25
    9000071c:	02711c63          	bne	sp,t2,90000754 <fail>

0000000090000720 <test_26>:
    90000720:	000060b3          	or	ra,zero,zero
    90000724:	00000393          	li	t2,0
    90000728:	01a00193          	li	gp,26
    9000072c:	02709463          	bne	ra,t2,90000754 <fail>

0000000090000730 <test_27>:
    90000730:	111110b7          	lui	ra,0x11111
    90000734:	1110809b          	addiw	ra,ra,273
    90000738:	22222137          	lui	sp,0x22222
    9000073c:	2221011b          	addiw	sp,sp,546
    90000740:	0020e033          	or	zero,ra,sp
    90000744:	00000393          	li	t2,0
    90000748:	01b00193          	li	gp,27
    9000074c:	00701463          	bne	zero,t2,90000754 <fail>
    90000750:	02301063          	bne	zero,gp,90000770 <pass>

0000000090000754 <fail>:
    90000754:	0ff0000f          	fence
    90000758:	00018063          	beqz	gp,90000758 <fail+0x4>
    9000075c:	00119193          	slli	gp,gp,0x1
    90000760:	0011e193          	ori	gp,gp,1
    90000764:	05d00893          	li	a7,93
    90000768:	00018513          	mv	a0,gp
    9000076c:	00000073          	ecall

0000000090000770 <pass>:
    90000770:	0ff0000f          	fence
    90000774:	00100193          	li	gp,1
    90000778:	05d00893          	li	a7,93
    9000077c:	00000513          	li	a0,0
    90000780:	00000073          	ecall
    90000784:	c0001073          	unimp
    90000788:	0000                	unimp
    9000078a:	0000                	unimp
    9000078c:	0000                	unimp
    9000078e:	0000                	unimp
    90000790:	0000                	unimp
    90000792:	0000                	unimp
    90000794:	0000                	unimp
    90000796:	0000                	unimp
    90000798:	0000                	unimp
    9000079a:	0000                	unimp
    9000079c:	0000                	unimp
    9000079e:	0000                	unimp
    900007a0:	0000                	unimp
    900007a2:	0000                	unimp
    900007a4:	0000                	unimp
    900007a6:	0000                	unimp
    900007a8:	0000                	unimp
    900007aa:	0000                	unimp
    900007ac:	0000                	unimp
    900007ae:	0000                	unimp
    900007b0:	0000                	unimp
    900007b2:	0000                	unimp
    900007b4:	0000                	unimp
    900007b6:	0000                	unimp
    900007b8:	0000                	unimp
    900007ba:	0000                	unimp
