
rv64ui-p-add:     file format elf64-littleriscv


Disassembly of section .text.init:

0000000090000000 <_start>:
    90000000:	0480006f          	j	90000048 <reset_vector>

0000000090000004 <trap_vector>:
    90000004:	34202f73          	csrr	t5,mcause
    90000008:	00800f93          	li	t6,8
    9000000c:	03ff0863          	beq	t5,t6,9000003c <write_tohost>
    90000010:	00900f93          	li	t6,9
    90000014:	03ff0463          	beq	t5,t6,9000003c <write_tohost>
    90000018:	00b00f93          	li	t6,11
    9000001c:	03ff0063          	beq	t5,t6,9000003c <write_tohost>
    90000020:	00000f13          	li	t5,0
    90000024:	000f0463          	beqz	t5,9000002c <trap_vector+0x28>
    90000028:	000f0067          	jr	t5
    9000002c:	34202f73          	csrr	t5,mcause
    90000030:	000f5463          	bgez	t5,90000038 <handle_exception>
    90000034:	0040006f          	j	90000038 <handle_exception>

0000000090000038 <handle_exception>:
    90000038:	5391e193          	ori	gp,gp,1337

000000009000003c <write_tohost>:
    9000003c:	00001f17          	auipc	t5,0x1
    90000040:	fc3f2223          	sw	gp,-60(t5) # 90001000 <tohost>
    90000044:	ff9ff06f          	j	9000003c <write_tohost>

0000000090000048 <reset_vector>:
    90000048:	00000093          	li	ra,0
    9000004c:	00000113          	li	sp,0
    90000050:	00000193          	li	gp,0
    90000054:	00000213          	li	tp,0
    90000058:	00000293          	li	t0,0
    9000005c:	00000313          	li	t1,0
    90000060:	00000393          	li	t2,0
    90000064:	00000413          	li	s0,0
    90000068:	00000493          	li	s1,0
    9000006c:	00000513          	li	a0,0
    90000070:	00000593          	li	a1,0
    90000074:	00000613          	li	a2,0
    90000078:	00000693          	li	a3,0
    9000007c:	00000713          	li	a4,0
    90000080:	00000793          	li	a5,0
    90000084:	00000813          	li	a6,0
    90000088:	00000893          	li	a7,0
    9000008c:	00000913          	li	s2,0
    90000090:	00000993          	li	s3,0
    90000094:	00000a13          	li	s4,0
    90000098:	00000a93          	li	s5,0
    9000009c:	00000b13          	li	s6,0
    900000a0:	00000b93          	li	s7,0
    900000a4:	00000c13          	li	s8,0
    900000a8:	00000c93          	li	s9,0
    900000ac:	00000d13          	li	s10,0
    900000b0:	00000d93          	li	s11,0
    900000b4:	00000e13          	li	t3,0
    900000b8:	00000e93          	li	t4,0
    900000bc:	00000f13          	li	t5,0
    900000c0:	00000f93          	li	t6,0
    900000c4:	f1402573          	csrr	a0,mhartid
    900000c8:	00051063          	bnez	a0,900000c8 <reset_vector+0x80>
    900000cc:	00000297          	auipc	t0,0x0
    900000d0:	01028293          	addi	t0,t0,16 # 900000dc <reset_vector+0x94>
    900000d4:	30529073          	csrw	mtvec,t0
    900000d8:	18005073          	csrwi	satp,0
    900000dc:	00000297          	auipc	t0,0x0
    900000e0:	02428293          	addi	t0,t0,36 # 90000100 <reset_vector+0xb8>
    900000e4:	30529073          	csrw	mtvec,t0
    900000e8:	0010029b          	addiw	t0,zero,1
    900000ec:	03529293          	slli	t0,t0,0x35
    900000f0:	fff28293          	addi	t0,t0,-1
    900000f4:	3b029073          	csrw	pmpaddr0,t0
    900000f8:	01f00293          	li	t0,31
    900000fc:	3a029073          	csrw	pmpcfg0,t0
    90000100:	30405073          	csrwi	mie,0
    90000104:	00000297          	auipc	t0,0x0
    90000108:	01428293          	addi	t0,t0,20 # 90000118 <reset_vector+0xd0>
    9000010c:	30529073          	csrw	mtvec,t0
    90000110:	30205073          	csrwi	medeleg,0
    90000114:	30305073          	csrwi	mideleg,0
    90000118:	00000193          	li	gp,0
    9000011c:	00000297          	auipc	t0,0x0
    90000120:	ee828293          	addi	t0,t0,-280 # 90000004 <trap_vector>
    90000124:	30529073          	csrw	mtvec,t0
    90000128:	00100513          	li	a0,1
    9000012c:	01f51513          	slli	a0,a0,0x1f
    90000130:	00055c63          	bgez	a0,90000148 <reset_vector+0x100>
    90000134:	0ff0000f          	fence
    90000138:	00100193          	li	gp,1
    9000013c:	05d00893          	li	a7,93
    90000140:	00000513          	li	a0,0
    90000144:	00000073          	ecall
    90000148:	00000293          	li	t0,0
    9000014c:	00028a63          	beqz	t0,90000160 <reset_vector+0x118>
    90000150:	10529073          	csrw	stvec,t0
    90000154:	0000b2b7          	lui	t0,0xb
    90000158:	1092829b          	addiw	t0,t0,265
    9000015c:	30229073          	csrw	medeleg,t0
    90000160:	30005073          	csrwi	mstatus,0
    90000164:	00000297          	auipc	t0,0x0
    90000168:	01428293          	addi	t0,t0,20 # 90000178 <test_2>
    9000016c:	34129073          	csrw	mepc,t0
    90000170:	f1402573          	csrr	a0,mhartid
    90000174:	30200073          	mret

0000000090000178 <test_2>:
    90000178:	00000093          	li	ra,0
    9000017c:	00000113          	li	sp,0
    90000180:	00208733          	add	a4,ra,sp
    90000184:	00000393          	li	t2,0
    90000188:	00200193          	li	gp,2
    9000018c:	4e771063          	bne	a4,t2,9000066c <fail>

0000000090000190 <test_3>:
    90000190:	00100093          	li	ra,1
    90000194:	00100113          	li	sp,1
    90000198:	00208733          	add	a4,ra,sp
    9000019c:	00200393          	li	t2,2
    900001a0:	00300193          	li	gp,3
    900001a4:	4c771463          	bne	a4,t2,9000066c <fail>

00000000900001a8 <test_4>:
    900001a8:	00300093          	li	ra,3
    900001ac:	00700113          	li	sp,7
    900001b0:	00208733          	add	a4,ra,sp
    900001b4:	00a00393          	li	t2,10
    900001b8:	00400193          	li	gp,4
    900001bc:	4a771863          	bne	a4,t2,9000066c <fail>

00000000900001c0 <test_5>:
    900001c0:	00000093          	li	ra,0
    900001c4:	ffff8137          	lui	sp,0xffff8
    900001c8:	00208733          	add	a4,ra,sp
    900001cc:	ffff83b7          	lui	t2,0xffff8
    900001d0:	00500193          	li	gp,5
    900001d4:	48771c63          	bne	a4,t2,9000066c <fail>

00000000900001d8 <test_6>:
    900001d8:	800000b7          	lui	ra,0x80000
    900001dc:	00000113          	li	sp,0
    900001e0:	00208733          	add	a4,ra,sp
    900001e4:	800003b7          	lui	t2,0x80000
    900001e8:	00600193          	li	gp,6
    900001ec:	48771063          	bne	a4,t2,9000066c <fail>

00000000900001f0 <test_7>:
    900001f0:	800000b7          	lui	ra,0x80000
    900001f4:	ffff8137          	lui	sp,0xffff8
    900001f8:	00208733          	add	a4,ra,sp
    900001fc:	ffff03b7          	lui	t2,0xffff0
    90000200:	fff3839b          	addiw	t2,t2,-1
    90000204:	00f39393          	slli	t2,t2,0xf
    90000208:	00700193          	li	gp,7
    9000020c:	46771063          	bne	a4,t2,9000066c <fail>

0000000090000210 <test_8>:
    90000210:	00000093          	li	ra,0
    90000214:	00008137          	lui	sp,0x8
    90000218:	fff1011b          	addiw	sp,sp,-1
    9000021c:	00208733          	add	a4,ra,sp
    90000220:	000083b7          	lui	t2,0x8
    90000224:	fff3839b          	addiw	t2,t2,-1
    90000228:	00800193          	li	gp,8
    9000022c:	44771063          	bne	a4,t2,9000066c <fail>

0000000090000230 <test_9>:
    90000230:	800000b7          	lui	ra,0x80000
    90000234:	fff0809b          	addiw	ra,ra,-1
    90000238:	00000113          	li	sp,0
    9000023c:	00208733          	add	a4,ra,sp
    90000240:	800003b7          	lui	t2,0x80000
    90000244:	fff3839b          	addiw	t2,t2,-1
    90000248:	00900193          	li	gp,9
    9000024c:	42771063          	bne	a4,t2,9000066c <fail>

0000000090000250 <test_10>:
    90000250:	800000b7          	lui	ra,0x80000
    90000254:	fff0809b          	addiw	ra,ra,-1
    90000258:	00008137          	lui	sp,0x8
    9000025c:	fff1011b          	addiw	sp,sp,-1
    90000260:	00208733          	add	a4,ra,sp
    90000264:	000103b7          	lui	t2,0x10
    90000268:	0013839b          	addiw	t2,t2,1
    9000026c:	00f39393          	slli	t2,t2,0xf
    90000270:	ffe38393          	addi	t2,t2,-2 # fffe <_start-0x8fff0002>
    90000274:	00a00193          	li	gp,10
    90000278:	3e771a63          	bne	a4,t2,9000066c <fail>

000000009000027c <test_11>:
    9000027c:	800000b7          	lui	ra,0x80000
    90000280:	00008137          	lui	sp,0x8
    90000284:	fff1011b          	addiw	sp,sp,-1
    90000288:	00208733          	add	a4,ra,sp
    9000028c:	800083b7          	lui	t2,0x80008
    90000290:	fff3839b          	addiw	t2,t2,-1
    90000294:	00b00193          	li	gp,11
    90000298:	3c771a63          	bne	a4,t2,9000066c <fail>

000000009000029c <test_12>:
    9000029c:	800000b7          	lui	ra,0x80000
    900002a0:	fff0809b          	addiw	ra,ra,-1
    900002a4:	ffff8137          	lui	sp,0xffff8
    900002a8:	00208733          	add	a4,ra,sp
    900002ac:	7fff83b7          	lui	t2,0x7fff8
    900002b0:	fff3839b          	addiw	t2,t2,-1
    900002b4:	00c00193          	li	gp,12
    900002b8:	3a771a63          	bne	a4,t2,9000066c <fail>

00000000900002bc <test_13>:
    900002bc:	00000093          	li	ra,0
    900002c0:	fff00113          	li	sp,-1
    900002c4:	00208733          	add	a4,ra,sp
    900002c8:	fff00393          	li	t2,-1
    900002cc:	00d00193          	li	gp,13
    900002d0:	38771e63          	bne	a4,t2,9000066c <fail>

00000000900002d4 <test_14>:
    900002d4:	fff00093          	li	ra,-1
    900002d8:	00100113          	li	sp,1
    900002dc:	00208733          	add	a4,ra,sp
    900002e0:	00000393          	li	t2,0
    900002e4:	00e00193          	li	gp,14
    900002e8:	38771263          	bne	a4,t2,9000066c <fail>

00000000900002ec <test_15>:
    900002ec:	fff00093          	li	ra,-1
    900002f0:	fff00113          	li	sp,-1
    900002f4:	00208733          	add	a4,ra,sp
    900002f8:	ffe00393          	li	t2,-2
    900002fc:	00f00193          	li	gp,15
    90000300:	36771663          	bne	a4,t2,9000066c <fail>

0000000090000304 <test_16>:
    90000304:	00100093          	li	ra,1
    90000308:	80000137          	lui	sp,0x80000
    9000030c:	fff1011b          	addiw	sp,sp,-1
    90000310:	00208733          	add	a4,ra,sp
    90000314:	0010039b          	addiw	t2,zero,1
    90000318:	01f39393          	slli	t2,t2,0x1f
    9000031c:	01000193          	li	gp,16
    90000320:	34771663          	bne	a4,t2,9000066c <fail>

0000000090000324 <test_17>:
    90000324:	00d00093          	li	ra,13
    90000328:	00b00113          	li	sp,11
    9000032c:	002080b3          	add	ra,ra,sp
    90000330:	01800393          	li	t2,24
    90000334:	01100193          	li	gp,17
    90000338:	32709a63          	bne	ra,t2,9000066c <fail>

000000009000033c <test_18>:
    9000033c:	00e00093          	li	ra,14
    90000340:	00b00113          	li	sp,11
    90000344:	00208133          	add	sp,ra,sp
    90000348:	01900393          	li	t2,25
    9000034c:	01200193          	li	gp,18
    90000350:	30711e63          	bne	sp,t2,9000066c <fail>

0000000090000354 <test_19>:
    90000354:	00d00093          	li	ra,13
    90000358:	001080b3          	add	ra,ra,ra
    9000035c:	01a00393          	li	t2,26
    90000360:	01300193          	li	gp,19
    90000364:	30709463          	bne	ra,t2,9000066c <fail>

0000000090000368 <test_20>:
    90000368:	00000213          	li	tp,0
    9000036c:	00d00093          	li	ra,13
    90000370:	00b00113          	li	sp,11
    90000374:	00208733          	add	a4,ra,sp
    90000378:	00070313          	mv	t1,a4
    9000037c:	00120213          	addi	tp,tp,1 # 1 <_start-0x8fffffff>
    90000380:	00200293          	li	t0,2
    90000384:	fe5214e3          	bne	tp,t0,9000036c <test_20+0x4>
    90000388:	01800393          	li	t2,24
    9000038c:	01400193          	li	gp,20
    90000390:	2c731e63          	bne	t1,t2,9000066c <fail>

0000000090000394 <test_21>:
    90000394:	00000213          	li	tp,0
    90000398:	00e00093          	li	ra,14
    9000039c:	00b00113          	li	sp,11
    900003a0:	00208733          	add	a4,ra,sp
    900003a4:	00000013          	nop
    900003a8:	00070313          	mv	t1,a4
    900003ac:	00120213          	addi	tp,tp,1 # 1 <_start-0x8fffffff>
    900003b0:	00200293          	li	t0,2
    900003b4:	fe5212e3          	bne	tp,t0,90000398 <test_21+0x4>
    900003b8:	01900393          	li	t2,25
    900003bc:	01500193          	li	gp,21
    900003c0:	2a731663          	bne	t1,t2,9000066c <fail>

00000000900003c4 <test_22>:
    900003c4:	00000213          	li	tp,0
    900003c8:	00f00093          	li	ra,15
    900003cc:	00b00113          	li	sp,11
    900003d0:	00208733          	add	a4,ra,sp
    900003d4:	00000013          	nop
    900003d8:	00000013          	nop
    900003dc:	00070313          	mv	t1,a4
    900003e0:	00120213          	addi	tp,tp,1 # 1 <_start-0x8fffffff>
    900003e4:	00200293          	li	t0,2
    900003e8:	fe5210e3          	bne	tp,t0,900003c8 <test_22+0x4>
    900003ec:	01a00393          	li	t2,26
    900003f0:	01600193          	li	gp,22
    900003f4:	26731c63          	bne	t1,t2,9000066c <fail>

00000000900003f8 <test_23>:
    900003f8:	00000213          	li	tp,0
    900003fc:	00d00093          	li	ra,13
    90000400:	00b00113          	li	sp,11
    90000404:	00208733          	add	a4,ra,sp
    90000408:	00120213          	addi	tp,tp,1 # 1 <_start-0x8fffffff>
    9000040c:	00200293          	li	t0,2
    90000410:	fe5216e3          	bne	tp,t0,900003fc <test_23+0x4>
    90000414:	01800393          	li	t2,24
    90000418:	01700193          	li	gp,23
    9000041c:	24771863          	bne	a4,t2,9000066c <fail>

0000000090000420 <test_24>:
    90000420:	00000213          	li	tp,0
    90000424:	00e00093          	li	ra,14
    90000428:	00b00113          	li	sp,11
    9000042c:	00000013          	nop
    90000430:	00208733          	add	a4,ra,sp
    90000434:	00120213          	addi	tp,tp,1 # 1 <_start-0x8fffffff>
    90000438:	00200293          	li	t0,2
    9000043c:	fe5214e3          	bne	tp,t0,90000424 <test_24+0x4>
    90000440:	01900393          	li	t2,25
    90000444:	01800193          	li	gp,24
    90000448:	22771263          	bne	a4,t2,9000066c <fail>

000000009000044c <test_25>:
    9000044c:	00000213          	li	tp,0
    90000450:	00f00093          	li	ra,15
    90000454:	00b00113          	li	sp,11
    90000458:	00000013          	nop
    9000045c:	00000013          	nop
    90000460:	00208733          	add	a4,ra,sp
    90000464:	00120213          	addi	tp,tp,1 # 1 <_start-0x8fffffff>
    90000468:	00200293          	li	t0,2
    9000046c:	fe5212e3          	bne	tp,t0,90000450 <test_25+0x4>
    90000470:	01a00393          	li	t2,26
    90000474:	01900193          	li	gp,25
    90000478:	1e771a63          	bne	a4,t2,9000066c <fail>

000000009000047c <test_26>:
    9000047c:	00000213          	li	tp,0
    90000480:	00d00093          	li	ra,13
    90000484:	00000013          	nop
    90000488:	00b00113          	li	sp,11
    9000048c:	00208733          	add	a4,ra,sp
    90000490:	00120213          	addi	tp,tp,1 # 1 <_start-0x8fffffff>
    90000494:	00200293          	li	t0,2
    90000498:	fe5214e3          	bne	tp,t0,90000480 <test_26+0x4>
    9000049c:	01800393          	li	t2,24
    900004a0:	01a00193          	li	gp,26
    900004a4:	1c771463          	bne	a4,t2,9000066c <fail>

00000000900004a8 <test_27>:
    900004a8:	00000213          	li	tp,0
    900004ac:	00e00093          	li	ra,14
    900004b0:	00000013          	nop
    900004b4:	00b00113          	li	sp,11
    900004b8:	00000013          	nop
    900004bc:	00208733          	add	a4,ra,sp
    900004c0:	00120213          	addi	tp,tp,1 # 1 <_start-0x8fffffff>
    900004c4:	00200293          	li	t0,2
    900004c8:	fe5212e3          	bne	tp,t0,900004ac <test_27+0x4>
    900004cc:	01900393          	li	t2,25
    900004d0:	01b00193          	li	gp,27
    900004d4:	18771c63          	bne	a4,t2,9000066c <fail>

00000000900004d8 <test_28>:
    900004d8:	00000213          	li	tp,0
    900004dc:	00f00093          	li	ra,15
    900004e0:	00000013          	nop
    900004e4:	00000013          	nop
    900004e8:	00b00113          	li	sp,11
    900004ec:	00208733          	add	a4,ra,sp
    900004f0:	00120213          	addi	tp,tp,1 # 1 <_start-0x8fffffff>
    900004f4:	00200293          	li	t0,2
    900004f8:	fe5212e3          	bne	tp,t0,900004dc <test_28+0x4>
    900004fc:	01a00393          	li	t2,26
    90000500:	01c00193          	li	gp,28
    90000504:	16771463          	bne	a4,t2,9000066c <fail>

0000000090000508 <test_29>:
    90000508:	00000213          	li	tp,0
    9000050c:	00b00113          	li	sp,11
    90000510:	00d00093          	li	ra,13
    90000514:	00208733          	add	a4,ra,sp
    90000518:	00120213          	addi	tp,tp,1 # 1 <_start-0x8fffffff>
    9000051c:	00200293          	li	t0,2
    90000520:	fe5216e3          	bne	tp,t0,9000050c <test_29+0x4>
    90000524:	01800393          	li	t2,24
    90000528:	01d00193          	li	gp,29
    9000052c:	14771063          	bne	a4,t2,9000066c <fail>

0000000090000530 <test_30>:
    90000530:	00000213          	li	tp,0
    90000534:	00b00113          	li	sp,11
    90000538:	00e00093          	li	ra,14
    9000053c:	00000013          	nop
    90000540:	00208733          	add	a4,ra,sp
    90000544:	00120213          	addi	tp,tp,1 # 1 <_start-0x8fffffff>
    90000548:	00200293          	li	t0,2
    9000054c:	fe5214e3          	bne	tp,t0,90000534 <test_30+0x4>
    90000550:	01900393          	li	t2,25
    90000554:	01e00193          	li	gp,30
    90000558:	10771a63          	bne	a4,t2,9000066c <fail>

000000009000055c <test_31>:
    9000055c:	00000213          	li	tp,0
    90000560:	00b00113          	li	sp,11
    90000564:	00f00093          	li	ra,15
    90000568:	00000013          	nop
    9000056c:	00000013          	nop
    90000570:	00208733          	add	a4,ra,sp
    90000574:	00120213          	addi	tp,tp,1 # 1 <_start-0x8fffffff>
    90000578:	00200293          	li	t0,2
    9000057c:	fe5212e3          	bne	tp,t0,90000560 <test_31+0x4>
    90000580:	01a00393          	li	t2,26
    90000584:	01f00193          	li	gp,31
    90000588:	0e771263          	bne	a4,t2,9000066c <fail>

000000009000058c <test_32>:
    9000058c:	00000213          	li	tp,0
    90000590:	00b00113          	li	sp,11
    90000594:	00000013          	nop
    90000598:	00d00093          	li	ra,13
    9000059c:	00208733          	add	a4,ra,sp
    900005a0:	00120213          	addi	tp,tp,1 # 1 <_start-0x8fffffff>
    900005a4:	00200293          	li	t0,2
    900005a8:	fe5214e3          	bne	tp,t0,90000590 <test_32+0x4>
    900005ac:	01800393          	li	t2,24
    900005b0:	02000193          	li	gp,32
    900005b4:	0a771c63          	bne	a4,t2,9000066c <fail>

00000000900005b8 <test_33>:
    900005b8:	00000213          	li	tp,0
    900005bc:	00b00113          	li	sp,11
    900005c0:	00000013          	nop
    900005c4:	00e00093          	li	ra,14
    900005c8:	00000013          	nop
    900005cc:	00208733          	add	a4,ra,sp
    900005d0:	00120213          	addi	tp,tp,1 # 1 <_start-0x8fffffff>
    900005d4:	00200293          	li	t0,2
    900005d8:	fe5212e3          	bne	tp,t0,900005bc <test_33+0x4>
    900005dc:	01900393          	li	t2,25
    900005e0:	02100193          	li	gp,33
    900005e4:	08771463          	bne	a4,t2,9000066c <fail>

00000000900005e8 <test_34>:
    900005e8:	00000213          	li	tp,0
    900005ec:	00b00113          	li	sp,11
    900005f0:	00000013          	nop
    900005f4:	00000013          	nop
    900005f8:	00f00093          	li	ra,15
    900005fc:	00208733          	add	a4,ra,sp
    90000600:	00120213          	addi	tp,tp,1 # 1 <_start-0x8fffffff>
    90000604:	00200293          	li	t0,2
    90000608:	fe5212e3          	bne	tp,t0,900005ec <test_34+0x4>
    9000060c:	01a00393          	li	t2,26
    90000610:	02200193          	li	gp,34
    90000614:	04771c63          	bne	a4,t2,9000066c <fail>

0000000090000618 <test_35>:
    90000618:	00f00093          	li	ra,15
    9000061c:	00100133          	add	sp,zero,ra
    90000620:	00f00393          	li	t2,15
    90000624:	02300193          	li	gp,35
    90000628:	04711263          	bne	sp,t2,9000066c <fail>

000000009000062c <test_36>:
    9000062c:	02000093          	li	ra,32
    90000630:	00008133          	add	sp,ra,zero
    90000634:	02000393          	li	t2,32
    90000638:	02400193          	li	gp,36
    9000063c:	02711863          	bne	sp,t2,9000066c <fail>

0000000090000640 <test_37>:
    90000640:	000000b3          	add	ra,zero,zero
    90000644:	00000393          	li	t2,0
    90000648:	02500193          	li	gp,37
    9000064c:	02709063          	bne	ra,t2,9000066c <fail>

0000000090000650 <test_38>:
    90000650:	01000093          	li	ra,16
    90000654:	01e00113          	li	sp,30
    90000658:	00208033          	add	zero,ra,sp
    9000065c:	00000393          	li	t2,0
    90000660:	02600193          	li	gp,38
    90000664:	00701463          	bne	zero,t2,9000066c <fail>
    90000668:	02301063          	bne	zero,gp,90000688 <pass>

000000009000066c <fail>:
    9000066c:	0ff0000f          	fence
    90000670:	00018063          	beqz	gp,90000670 <fail+0x4>
    90000674:	00119193          	slli	gp,gp,0x1
    90000678:	0011e193          	ori	gp,gp,1
    9000067c:	05d00893          	li	a7,93
    90000680:	00018513          	mv	a0,gp
    90000684:	00000073          	ecall

0000000090000688 <pass>:
    90000688:	0ff0000f          	fence
    9000068c:	00100193          	li	gp,1
    90000690:	05d00893          	li	a7,93
    90000694:	00000513          	li	a0,0
    90000698:	00000073          	ecall
    9000069c:	c0001073          	unimp
    900006a0:	0000                	unimp
    900006a2:	0000                	unimp
    900006a4:	0000                	unimp
    900006a6:	0000                	unimp
    900006a8:	0000                	unimp
    900006aa:	0000                	unimp
    900006ac:	0000                	unimp
    900006ae:	0000                	unimp
    900006b0:	0000                	unimp
    900006b2:	0000                	unimp
    900006b4:	0000                	unimp
    900006b6:	0000                	unimp
    900006b8:	0000                	unimp
    900006ba:	0000                	unimp
