
/home/taka/RISCV/mmRISC/simulation/modelsim/riscv-arch-test/riscv-arch-test/work/rv32i_m/C/cadd-01.elf:     file format elf32-littleriscv


Disassembly of section .text.init:

90000000 <rvtest_entry_point>:
90000000:	feedc0b7          	lui	ra,0xfeedc
90000004:	ead08093          	addi	ra,ra,-339 # feedbead <_end+0x6eed73a9>
90000008:	ff76e137          	lui	sp,0xff76e
9000000c:	f5610113          	addi	sp,sp,-170 # ff76df56 <_end+0x6f769452>
90000010:	7fbb71b7          	lui	gp,0x7fbb7
90000014:	fab18193          	addi	gp,gp,-85 # 7fbb6fab <offset+0x7fbb6ee3>
90000018:	bfddb237          	lui	tp,0xbfddb
9000001c:	7d520213          	addi	tp,tp,2005 # bfddb7d5 <_end+0x2fdd6cd1>
90000020:	00000297          	auipc	t0,0x0
90000024:	0d828293          	addi	t0,t0,216 # 900000f8 <rvtest_code_begin>
90000028:	00004317          	auipc	t1,0x4
9000002c:	fd830313          	addi	t1,t1,-40 # 90004000 <rvtest_data_begin>
90000030:	b7fbb3b7          	lui	t2,0xb7fbb
90000034:	6fa38393          	addi	t2,t2,1786 # b7fbb6fa <_end+0x27fb6bf6>
90000038:	5bfde437          	lui	s0,0x5bfde
9000003c:	b7d40413          	addi	s0,s0,-1155 # 5bfddb7d <offset+0x5bfddab5>
90000040:	adfef4b7          	lui	s1,0xadfef
90000044:	dbe48493          	addi	s1,s1,-578 # adfeedbe <_end+0x1dfea2ba>
90000048:	56ff7537          	lui	a0,0x56ff7
9000004c:	6df50513          	addi	a0,a0,1759 # 56ff76df <offset+0x56ff7617>
90000050:	ab7fc5b7          	lui	a1,0xab7fc
90000054:	b6f58593          	addi	a1,a1,-1169 # ab7fbb6f <_end+0x1b7f706b>
90000058:	d5bfe637          	lui	a2,0xd5bfe
9000005c:	db760613          	addi	a2,a2,-585 # d5bfddb7 <_end+0x45bf92b3>
90000060:	eadff6b7          	lui	a3,0xeadff
90000064:	edb68693          	addi	a3,a3,-293 # eadfeedb <_end+0x5adfa3d7>
90000068:	f56ff737          	lui	a4,0xf56ff
9000006c:	76d70713          	addi	a4,a4,1901 # f56ff76d <_end+0x656fac69>
90000070:	fab807b7          	lui	a5,0xfab80
90000074:	bb678793          	addi	a5,a5,-1098 # fab7fbb6 <_end+0x6ab7b0b2>
90000078:	7d5c0837          	lui	a6,0x7d5c0
9000007c:	ddb80813          	addi	a6,a6,-549 # 7d5bfddb <offset+0x7d5bfd13>
90000080:	beae08b7          	lui	a7,0xbeae0
90000084:	eed88893          	addi	a7,a7,-275 # beadfeed <_end+0x2eadb3e9>
90000088:	df570937          	lui	s2,0xdf570
9000008c:	f7690913          	addi	s2,s2,-138 # df56ff76 <_end+0x4f56b472>
90000090:	6fab89b7          	lui	s3,0x6fab8
90000094:	fbb98993          	addi	s3,s3,-69 # 6fab7fbb <offset+0x6fab7ef3>
90000098:	b7d5ca37          	lui	s4,0xb7d5c
9000009c:	fdda0a13          	addi	s4,s4,-35 # b7d5bfdd <_end+0x27d574d9>
900000a0:	dbeaeab7          	lui	s5,0xdbeae
900000a4:	feea8a93          	addi	s5,s5,-18 # dbeadfee <_end+0x4bea94ea>
900000a8:	6df57b37          	lui	s6,0x6df57
900000ac:	ff7b0b13          	addi	s6,s6,-9 # 6df56ff7 <offset+0x6df56f2f>
900000b0:	b6fabbb7          	lui	s7,0xb6fab
900000b4:	7fbb8b93          	addi	s7,s7,2043 # b6fab7fb <_end+0x26fa6cf7>
900000b8:	db7d6c37          	lui	s8,0xdb7d6
900000bc:	bfdc0c13          	addi	s8,s8,-1027 # db7d5bfd <_end+0x4b7d10f9>
900000c0:	edbebcb7          	lui	s9,0xedbeb
900000c4:	dfec8c93          	addi	s9,s9,-514 # edbeadfe <_end+0x5dbe62fa>
900000c8:	76df5d37          	lui	s10,0x76df5
900000cc:	6ffd0d13          	addi	s10,s10,1791 # 76df56ff <offset+0x76df5637>
900000d0:	bb6fbdb7          	lui	s11,0xbb6fb
900000d4:	b7fd8d93          	addi	s11,s11,-1153 # bb6fab7f <_end+0x2b6f607b>
900000d8:	ddb7de37          	lui	t3,0xddb7d
900000dc:	5bfe0e13          	addi	t3,t3,1471 # ddb7d5bf <_end+0x4db78abb>
900000e0:	eedbfeb7          	lui	t4,0xeedbf
900000e4:	adfe8e93          	addi	t4,t4,-1313 # eedbeadf <_end+0x5edb9fdb>
900000e8:	f76dff37          	lui	t5,0xf76df
900000ec:	56ff0f13          	addi	t5,t5,1391 # f76df56f <_end+0x676daa6b>
900000f0:	fbb70fb7          	lui	t6,0xfbb70
900000f4:	ab7f8f93          	addi	t6,t6,-1353 # fbb6fab7 <_end+0x6bb6afb3>

900000f8 <rvtest_code_begin>:
900000f8:	00004417          	auipc	s0,0x4
900000fc:	f1840413          	addi	s0,s0,-232 # 90004010 <begin_signature>

90000100 <inst_0>:
90000100:	80000e37          	lui	t3,0x80000
90000104:	00000b93          	li	s7,0
90000108:	9bf2                	add	s7,s7,t3
9000010a:	01742023          	sw	s7,0(s0)

9000010e <inst_1>:
9000010e:	000101b7          	lui	gp,0x10
90000112:	000101b7          	lui	gp,0x10
90000116:	918e                	add	gp,gp,gp
90000118:	00342223          	sw	gp,4(s0)

9000011c <inst_2>:
9000011c:	80000f37          	lui	t5,0x80000
90000120:	ffff0f13          	addi	t5,t5,-1 # 7fffffff <_end+0xefffb4fb>
90000124:	00000793          	li	a5,0
90000128:	97fa                	add	a5,a5,t5
9000012a:	c41c                	sw	a5,8(s0)

9000012c <inst_3>:
9000012c:	00100293          	li	t0,1
90000130:	f7f00b13          	li	s6,-129
90000134:	9b16                	add	s6,s6,t0
90000136:	01642623          	sw	s6,12(s0)

9000013a <inst_4>:
9000013a:	400006b7          	lui	a3,0x40000
9000013e:	fff68693          	addi	a3,a3,-1 # 3fffffff <offset+0x3fffff37>
90000142:	800003b7          	lui	t2,0x80000
90000146:	93b6                	add	t2,t2,a3
90000148:	00742823          	sw	t2,16(s0)

9000014c <inst_5>:
9000014c:	ffff5137          	lui	sp,0xffff5
90000150:	afd10113          	addi	sp,sp,-1283 # ffff4afd <_end+0x6ffefff9>
90000154:	00000013          	nop
90000158:	900a                	c.add	zero,sp
9000015a:	00042a23          	sw	zero,20(s0)

9000015e <inst_6>:
9000015e:	ffe000b7          	lui	ra,0xffe00
90000162:	fff08093          	addi	ra,ra,-1 # ffdfffff <_end+0x6fdfb4fb>
90000166:	00100a13          	li	s4,1
9000016a:	9a06                	add	s4,s4,ra
9000016c:	01442c23          	sw	s4,24(s0)

90000170 <inst_7>:
90000170:	00200313          	li	t1,2
90000174:	40000db7          	lui	s11,0x40000
90000178:	fffd8d93          	addi	s11,s11,-1 # 3fffffff <offset+0x3fffff37>
9000017c:	9d9a                	add	s11,s11,t1
9000017e:	01b42e23          	sw	s11,28(s0)

90000182 <inst_8>:
90000182:	00400b13          	li	s6,4
90000186:	33333137          	lui	sp,0x33333
9000018a:	33310113          	addi	sp,sp,819 # 33333333 <offset+0x3333326b>
9000018e:	915a                	add	sp,sp,s6
90000190:	02242023          	sw	sp,32(s0)

90000194 <inst_9>:
90000194:	00800d93          	li	s11,8
90000198:	ffa00613          	li	a2,-6
9000019c:	966e                	add	a2,a2,s11
9000019e:	d050                	sw	a2,36(s0)

900001a0 <inst_10>:
900001a0:	01000c93          	li	s9,16
900001a4:	ffe00693          	li	a3,-2
900001a8:	96e6                	add	a3,a3,s9
900001aa:	d414                	sw	a3,40(s0)

900001ac <inst_11>:
900001ac:	02000513          	li	a0,32
900001b0:	000805b7          	lui	a1,0x80
900001b4:	95aa                	add	a1,a1,a0
900001b6:	d44c                	sw	a1,44(s0)

900001b8 <inst_12>:
900001b8:	04000793          	li	a5,64
900001bc:	02000837          	lui	a6,0x2000
900001c0:	983e                	add	a6,a6,a5
900001c2:	03042823          	sw	a6,48(s0)

900001c6 <inst_13>:
900001c6:	08000813          	li	a6,128
900001ca:	04000cb7          	lui	s9,0x4000
900001ce:	9cc2                	add	s9,s9,a6
900001d0:	03942a23          	sw	s9,52(s0)

900001d4 <inst_14>:
900001d4:	10000993          	li	s3,256
900001d8:	ff800937          	lui	s2,0xff800
900001dc:	fff90913          	addi	s2,s2,-1 # ff7fffff <_end+0x6f7fb4fb>
900001e0:	994e                	add	s2,s2,s3
900001e2:	03242c23          	sw	s2,56(s0)

900001e6 <inst_15>:
900001e6:	20000613          	li	a2,512
900001ea:	00200337          	lui	t1,0x200
900001ee:	9332                	add	t1,t1,a2
900001f0:	02642e23          	sw	t1,60(s0)

900001f4 <inst_16>:
900001f4:	40000a13          	li	s4,1024
900001f8:	00040eb7          	lui	t4,0x40
900001fc:	9ed2                	add	t4,t4,s4
900001fe:	05d42023          	sw	t4,64(s0)

90000202 <inst_17>:
90000202:	00001eb7          	lui	t4,0x1
90000206:	800e8e93          	addi	t4,t4,-2048 # 800 <offset+0x738>
9000020a:	00010d37          	lui	s10,0x10
9000020e:	9d76                	add	s10,s10,t4
90000210:	05a42223          	sw	s10,68(s0)

90000214 <inst_18>:
90000214:	00001937          	lui	s2,0x1
90000218:	ffff08b7          	lui	a7,0xffff0
9000021c:	fff88893          	addi	a7,a7,-1 # fffeffff <_end+0x6ffeb4fb>
90000220:	98ca                	add	a7,a7,s2
90000222:	05142423          	sw	a7,72(s0)

90000226 <inst_19>:
90000226:	000024b7          	lui	s1,0x2
9000022a:	ffe00713          	li	a4,-2
9000022e:	9726                	add	a4,a4,s1
90000230:	c478                	sw	a4,76(s0)

90000232 <inst_20>:
90000232:	00004737          	lui	a4,0x4
90000236:	00000093          	li	ra,0
9000023a:	90ba                	add	ra,ra,a4
9000023c:	04142823          	sw	ra,80(s0)

90000240 <inst_21>:
90000240:	00008bb7          	lui	s7,0x8
90000244:	40000fb7          	lui	t6,0x40000
90000248:	ffff8f93          	addi	t6,t6,-1 # 3fffffff <offset+0x3fffff37>
9000024c:	9fde                	add	t6,t6,s7
9000024e:	05f42a23          	sw	t6,84(s0)

90000252 <inst_22>:
90000252:	00010d37          	lui	s10,0x10
90000256:	ffe00237          	lui	tp,0xffe00
9000025a:	fff20213          	addi	tp,tp,-1 # ffdfffff <_end+0x6fdfb4fb>
9000025e:	926a                	add	tp,tp,s10
90000260:	04442c23          	sw	tp,88(s0)
90000264:	00004097          	auipc	ra,0x4
90000268:	e0808093          	addi	ra,ra,-504 # 9000406c <signature_x1_0>

9000026c <inst_23>:
9000026c:	00020fb7          	lui	t6,0x20
90000270:	66666c37          	lui	s8,0x66666
90000274:	667c0c13          	addi	s8,s8,1639 # 66666667 <offset+0x6666659f>
90000278:	9c7e                	add	s8,s8,t6
9000027a:	0180a023          	sw	s8,0(ra)

9000027e <inst_24>:
9000027e:	000405b7          	lui	a1,0x40
90000282:	040002b7          	lui	t0,0x4000
90000286:	92ae                	add	t0,t0,a1
90000288:	0050a223          	sw	t0,4(ra)

9000028c <inst_25>:
9000028c:	000808b7          	lui	a7,0x80
90000290:	fef00e13          	li	t3,-17
90000294:	9e46                	add	t3,t3,a7
90000296:	01c0a423          	sw	t3,8(ra)

9000029a <inst_26>:
9000029a:	00100237          	lui	tp,0x100
9000029e:	fbf00993          	li	s3,-65
900002a2:	9992                	add	s3,s3,tp
900002a4:	0130a623          	sw	s3,12(ra)

900002a8 <inst_27>:
900002a8:	00200c37          	lui	s8,0x200
900002ac:	ff600493          	li	s1,-10
900002b0:	94e2                	add	s1,s1,s8
900002b2:	0090a823          	sw	s1,16(ra)

900002b6 <inst_28>:
900002b6:	00400ab7          	lui	s5,0x400
900002ba:	33333437          	lui	s0,0x33333
900002be:	33240413          	addi	s0,s0,818 # 33333332 <offset+0x3333326a>
900002c2:	9456                	add	s0,s0,s5
900002c4:	0080aa23          	sw	s0,20(ra)

900002c8 <inst_29>:
900002c8:	008003b7          	lui	t2,0x800
900002cc:	aaaabf37          	lui	t5,0xaaaab
900002d0:	aaaf0f13          	addi	t5,t5,-1366 # aaaaaaaa <_end+0x1aaa5fa6>
900002d4:	9f1e                	add	t5,t5,t2
900002d6:	01e0ac23          	sw	t5,24(ra)

900002da <inst_30>:
900002da:	01000437          	lui	s0,0x1000
900002de:	f8000537          	lui	a0,0xf8000
900002e2:	fff50513          	addi	a0,a0,-1 # f7ffffff <_end+0x67ffb4fb>
900002e6:	9522                	add	a0,a0,s0
900002e8:	00a0ae23          	sw	a0,28(ra)

900002ec <inst_31>:
900002ec:	02000fb7          	lui	t6,0x2000
900002f0:	00000a93          	li	s5,0
900002f4:	9afe                	add	s5,s5,t6
900002f6:	0350a023          	sw	s5,32(ra)

900002fa <inst_32>:
900002fa:	040005b7          	lui	a1,0x4000
900002fe:	fbf00513          	li	a0,-65
90000302:	952e                	add	a0,a0,a1
90000304:	02a0a223          	sw	a0,36(ra)

90000308 <inst_33>:
90000308:	080005b7          	lui	a1,0x8000
9000030c:	ffff8537          	lui	a0,0xffff8
90000310:	fff50513          	addi	a0,a0,-1 # ffff7fff <_end+0x6fff34fb>
90000314:	952e                	add	a0,a0,a1
90000316:	02a0a423          	sw	a0,40(ra)

9000031a <inst_34>:
9000031a:	100005b7          	lui	a1,0x10000
9000031e:	00400513          	li	a0,4
90000322:	952e                	add	a0,a0,a1
90000324:	02a0a623          	sw	a0,44(ra)

90000328 <inst_35>:
90000328:	200005b7          	lui	a1,0x20000
9000032c:	ffe00537          	lui	a0,0xffe00
90000330:	fff50513          	addi	a0,a0,-1 # ffdfffff <_end+0x6fdfb4fb>
90000334:	952e                	add	a0,a0,a1
90000336:	02a0a823          	sw	a0,48(ra)

9000033a <inst_36>:
9000033a:	400005b7          	lui	a1,0x40000
9000033e:	00040537          	lui	a0,0x40
90000342:	952e                	add	a0,a0,a1
90000344:	02a0aa23          	sw	a0,52(ra)

90000348 <inst_37>:
90000348:	ffe00593          	li	a1,-2
9000034c:	00400513          	li	a0,4
90000350:	952e                	add	a0,a0,a1
90000352:	02a0ac23          	sw	a0,56(ra)

90000356 <inst_38>:
90000356:	ffd00593          	li	a1,-3
9000035a:	ffff8537          	lui	a0,0xffff8
9000035e:	fff50513          	addi	a0,a0,-1 # ffff7fff <_end+0x6fff34fb>
90000362:	952e                	add	a0,a0,a1
90000364:	02a0ae23          	sw	a0,60(ra)

90000368 <inst_39>:
90000368:	ffb00593          	li	a1,-5
9000036c:	fffff537          	lui	a0,0xfffff
90000370:	7ff50513          	addi	a0,a0,2047 # fffff7ff <_end+0x6fffacfb>
90000374:	952e                	add	a0,a0,a1
90000376:	04a0a023          	sw	a0,64(ra)

9000037a <inst_40>:
9000037a:	ff700593          	li	a1,-9
9000037e:	00800513          	li	a0,8
90000382:	952e                	add	a0,a0,a1
90000384:	04a0a223          	sw	a0,68(ra)

90000388 <inst_41>:
90000388:	fef00593          	li	a1,-17
9000038c:	ff800513          	li	a0,-8
90000390:	952e                	add	a0,a0,a1
90000392:	04a0a423          	sw	a0,72(ra)

90000396 <inst_42>:
90000396:	fdf00593          	li	a1,-33
9000039a:	00700513          	li	a0,7
9000039e:	952e                	add	a0,a0,a1
900003a0:	04a0a623          	sw	a0,76(ra)

900003a4 <inst_43>:
900003a4:	fbf00593          	li	a1,-65
900003a8:	bff00513          	li	a0,-1025
900003ac:	952e                	add	a0,a0,a1
900003ae:	04a0a823          	sw	a0,80(ra)

900003b2 <inst_44>:
900003b2:	f7f00593          	li	a1,-129
900003b6:	66666537          	lui	a0,0x66666
900003ba:	66750513          	addi	a0,a0,1639 # 66666667 <offset+0x6666659f>
900003be:	952e                	add	a0,a0,a1
900003c0:	04a0aa23          	sw	a0,84(ra)

900003c4 <inst_45>:
900003c4:	eff00593          	li	a1,-257
900003c8:	c0000537          	lui	a0,0xc0000
900003cc:	fff50513          	addi	a0,a0,-1 # bfffffff <_end+0x2fffb4fb>
900003d0:	952e                	add	a0,a0,a1
900003d2:	04a0ac23          	sw	a0,88(ra)

900003d6 <inst_46>:
900003d6:	dff00593          	li	a1,-513
900003da:	80000537          	lui	a0,0x80000
900003de:	fff50513          	addi	a0,a0,-1 # 7fffffff <_end+0xefffb4fb>
900003e2:	952e                	add	a0,a0,a1
900003e4:	04a0ae23          	sw	a0,92(ra)

900003e8 <inst_47>:
900003e8:	bff00593          	li	a1,-1025
900003ec:	00004537          	lui	a0,0x4
900003f0:	952e                	add	a0,a0,a1
900003f2:	06a0a023          	sw	a0,96(ra)

900003f6 <inst_48>:
900003f6:	fffff5b7          	lui	a1,0xfffff
900003fa:	7ff58593          	addi	a1,a1,2047 # fffff7ff <_end+0x6fffacfb>
900003fe:	40000537          	lui	a0,0x40000
90000402:	fff50513          	addi	a0,a0,-1 # 3fffffff <offset+0x3fffff37>
90000406:	952e                	add	a0,a0,a1
90000408:	06a0a223          	sw	a0,100(ra)

9000040c <inst_49>:
9000040c:	fffff5b7          	lui	a1,0xfffff
90000410:	fff58593          	addi	a1,a1,-1 # ffffefff <_end+0x6fffa4fb>
90000414:	dff00513          	li	a0,-513
90000418:	952e                	add	a0,a0,a1
9000041a:	06a0a423          	sw	a0,104(ra)

9000041e <inst_50>:
9000041e:	ffffe5b7          	lui	a1,0xffffe
90000422:	fff58593          	addi	a1,a1,-1 # ffffdfff <_end+0x6fff94fb>
90000426:	00800513          	li	a0,8
9000042a:	952e                	add	a0,a0,a1
9000042c:	06a0a623          	sw	a0,108(ra)

90000430 <inst_51>:
90000430:	ffffc5b7          	lui	a1,0xffffc
90000434:	fff58593          	addi	a1,a1,-1 # ffffbfff <_end+0x6fff74fb>
90000438:	33333537          	lui	a0,0x33333
9000043c:	33250513          	addi	a0,a0,818 # 33333332 <offset+0x3333326a>
90000440:	952e                	add	a0,a0,a1
90000442:	06a0a823          	sw	a0,112(ra)

90000446 <inst_52>:
90000446:	ffff85b7          	lui	a1,0xffff8
9000044a:	fff58593          	addi	a1,a1,-1 # ffff7fff <_end+0x6fff34fb>
9000044e:	ffe00537          	lui	a0,0xffe00
90000452:	fff50513          	addi	a0,a0,-1 # ffdfffff <_end+0x6fdfb4fb>
90000456:	952e                	add	a0,a0,a1
90000458:	06a0aa23          	sw	a0,116(ra)

9000045c <inst_53>:
9000045c:	ffff05b7          	lui	a1,0xffff0
90000460:	fff58593          	addi	a1,a1,-1 # fffeffff <_end+0x6ffeb4fb>
90000464:	00001537          	lui	a0,0x1
90000468:	952e                	add	a0,a0,a1
9000046a:	06a0ac23          	sw	a0,120(ra)

9000046e <inst_54>:
9000046e:	fffe05b7          	lui	a1,0xfffe0
90000472:	fff58593          	addi	a1,a1,-1 # fffdffff <_end+0x6ffdb4fb>
90000476:	00800537          	lui	a0,0x800
9000047a:	952e                	add	a0,a0,a1
9000047c:	06a0ae23          	sw	a0,124(ra)

90000480 <inst_55>:
90000480:	fffc05b7          	lui	a1,0xfffc0
90000484:	fff58593          	addi	a1,a1,-1 # fffbffff <_end+0x6ffbb4fb>
90000488:	02000513          	li	a0,32
9000048c:	952e                	add	a0,a0,a1
9000048e:	08a0a023          	sw	a0,128(ra)

90000492 <inst_56>:
90000492:	fff805b7          	lui	a1,0xfff80
90000496:	fff58593          	addi	a1,a1,-1 # fff7ffff <_end+0x6ff7b4fb>
9000049a:	00100537          	lui	a0,0x100
9000049e:	952e                	add	a0,a0,a1
900004a0:	08a0a223          	sw	a0,132(ra)

900004a4 <inst_57>:
900004a4:	fff005b7          	lui	a1,0xfff00
900004a8:	fff58593          	addi	a1,a1,-1 # ffefffff <_end+0x6fefb4fb>
900004ac:	ffa00513          	li	a0,-6
900004b0:	952e                	add	a0,a0,a1
900004b2:	08a0a423          	sw	a0,136(ra)

900004b6 <inst_58>:
900004b6:	ffc005b7          	lui	a1,0xffc00
900004ba:	fff58593          	addi	a1,a1,-1 # ffbfffff <_end+0x6fbfb4fb>
900004be:	ff700513          	li	a0,-9
900004c2:	952e                	add	a0,a0,a1
900004c4:	08a0a623          	sw	a0,140(ra)

900004c8 <inst_59>:
900004c8:	ff8005b7          	lui	a1,0xff800
900004cc:	fff58593          	addi	a1,a1,-1 # ff7fffff <_end+0x6f7fb4fb>
900004d0:	00000513          	li	a0,0
900004d4:	952e                	add	a0,a0,a1
900004d6:	08a0a823          	sw	a0,144(ra)

900004da <inst_60>:
900004da:	ff0005b7          	lui	a1,0xff000
900004de:	fff58593          	addi	a1,a1,-1 # feffffff <_end+0x6effb4fb>
900004e2:	0000b537          	lui	a0,0xb
900004e6:	50450513          	addi	a0,a0,1284 # b504 <offset+0xb43c>
900004ea:	952e                	add	a0,a0,a1
900004ec:	08a0aa23          	sw	a0,148(ra)

900004f0 <inst_61>:
900004f0:	fe0005b7          	lui	a1,0xfe000
900004f4:	fff58593          	addi	a1,a1,-1 # fdffffff <_end+0x6dffb4fb>
900004f8:	00000513          	li	a0,0
900004fc:	952e                	add	a0,a0,a1
900004fe:	08a0ac23          	sw	a0,152(ra)

90000502 <inst_62>:
90000502:	fc0005b7          	lui	a1,0xfc000
90000506:	fff58593          	addi	a1,a1,-1 # fbffffff <_end+0x6bffb4fb>
9000050a:	0000b537          	lui	a0,0xb
9000050e:	50450513          	addi	a0,a0,1284 # b504 <offset+0xb43c>
90000512:	952e                	add	a0,a0,a1
90000514:	08a0ae23          	sw	a0,156(ra)

90000518 <inst_63>:
90000518:	f80005b7          	lui	a1,0xf8000
9000051c:	fff58593          	addi	a1,a1,-1 # f7ffffff <_end+0x67ffb4fb>
90000520:	ff600513          	li	a0,-10
90000524:	952e                	add	a0,a0,a1
90000526:	0aa0a023          	sw	a0,160(ra)

9000052a <inst_64>:
9000052a:	f00005b7          	lui	a1,0xf0000
9000052e:	fff58593          	addi	a1,a1,-1 # efffffff <_end+0x5fffb4fb>
90000532:	aaaab537          	lui	a0,0xaaaab
90000536:	aaa50513          	addi	a0,a0,-1366 # aaaaaaaa <_end+0x1aaa5fa6>
9000053a:	952e                	add	a0,a0,a1
9000053c:	0aa0a223          	sw	a0,164(ra)

90000540 <inst_65>:
90000540:	e00005b7          	lui	a1,0xe0000
90000544:	fff58593          	addi	a1,a1,-1 # dfffffff <_end+0x4fffb4fb>
90000548:	00500513          	li	a0,5
9000054c:	952e                	add	a0,a0,a1
9000054e:	0aa0a423          	sw	a0,168(ra)

90000552 <inst_66>:
90000552:	c00005b7          	lui	a1,0xc0000
90000556:	fff58593          	addi	a1,a1,-1 # bfffffff <_end+0x2fffb4fb>
9000055a:	ffa00513          	li	a0,-6
9000055e:	952e                	add	a0,a0,a1
90000560:	0aa0a623          	sw	a0,172(ra)

90000564 <inst_67>:
90000564:	555555b7          	lui	a1,0x55555
90000568:	55558593          	addi	a1,a1,1365 # 55555555 <offset+0x5555548d>
9000056c:	00500513          	li	a0,5
90000570:	952e                	add	a0,a0,a1
90000572:	0aa0a823          	sw	a0,176(ra)

90000576 <inst_68>:
90000576:	aaaab5b7          	lui	a1,0xaaaab
9000057a:	aaa58593          	addi	a1,a1,-1366 # aaaaaaaa <_end+0x1aaa5fa6>
9000057e:	ffff5537          	lui	a0,0xffff5
90000582:	afc50513          	addi	a0,a0,-1284 # ffff4afc <_end+0x6ffefff8>
90000586:	952e                	add	a0,a0,a1
90000588:	0aa0aa23          	sw	a0,180(ra)

9000058c <inst_69>:
9000058c:	400005b7          	lui	a1,0x40000
90000590:	00200513          	li	a0,2
90000594:	952e                	add	a0,a0,a1
90000596:	0aa0ac23          	sw	a0,184(ra)

9000059a <inst_70>:
9000059a:	000405b7          	lui	a1,0x40
9000059e:	01000513          	li	a0,16
900005a2:	952e                	add	a0,a0,a1
900005a4:	0aa0ae23          	sw	a0,188(ra)

900005a8 <inst_71>:
900005a8:	ffff85b7          	lui	a1,0xffff8
900005ac:	fff58593          	addi	a1,a1,-1 # ffff7fff <_end+0x6fff34fb>
900005b0:	04000513          	li	a0,64
900005b4:	952e                	add	a0,a0,a1
900005b6:	0ca0a023          	sw	a0,192(ra)

900005ba <inst_72>:
900005ba:	fff00593          	li	a1,-1
900005be:	08000513          	li	a0,128
900005c2:	952e                	add	a0,a0,a1
900005c4:	0ca0a223          	sw	a0,196(ra)

900005c8 <inst_73>:
900005c8:	f7f00593          	li	a1,-129
900005cc:	10000513          	li	a0,256
900005d0:	952e                	add	a0,a0,a1
900005d2:	0ca0a423          	sw	a0,200(ra)

900005d6 <inst_74>:
900005d6:	000045b7          	lui	a1,0x4
900005da:	20000513          	li	a0,512
900005de:	952e                	add	a0,a0,a1
900005e0:	0ca0a623          	sw	a0,204(ra)

900005e4 <inst_75>:
900005e4:	ffff85b7          	lui	a1,0xffff8
900005e8:	fff58593          	addi	a1,a1,-1 # ffff7fff <_end+0x6fff34fb>
900005ec:	40000513          	li	a0,1024
900005f0:	952e                	add	a0,a0,a1
900005f2:	0ca0a823          	sw	a0,208(ra)

900005f6 <inst_76>:
900005f6:	bff00593          	li	a1,-1025
900005fa:	00001537          	lui	a0,0x1
900005fe:	80050513          	addi	a0,a0,-2048 # 800 <offset+0x738>
90000602:	952e                	add	a0,a0,a1
90000604:	0ca0aa23          	sw	a0,212(ra)

90000608 <inst_77>:
90000608:	000015b7          	lui	a1,0x1
9000060c:	00002537          	lui	a0,0x2
90000610:	952e                	add	a0,a0,a1
90000612:	0ca0ac23          	sw	a0,216(ra)

90000616 <inst_78>:
90000616:	555555b7          	lui	a1,0x55555
9000061a:	55458593          	addi	a1,a1,1364 # 55555554 <offset+0x5555548c>
9000061e:	00008537          	lui	a0,0x8
90000622:	952e                	add	a0,a0,a1
90000624:	0ca0ae23          	sw	a0,220(ra)

90000628 <inst_79>:
90000628:	333335b7          	lui	a1,0x33333
9000062c:	33258593          	addi	a1,a1,818 # 33333332 <offset+0x3333326a>
90000630:	00020537          	lui	a0,0x20
90000634:	952e                	add	a0,a0,a1
90000636:	0ea0a023          	sw	a0,224(ra)

9000063a <inst_80>:
9000063a:	01000593          	li	a1,16
9000063e:	00400537          	lui	a0,0x400
90000642:	952e                	add	a0,a0,a1
90000644:	0ea0a223          	sw	a0,228(ra)

90000648 <inst_81>:
90000648:	dff00593          	li	a1,-513
9000064c:	01000537          	lui	a0,0x1000
90000650:	952e                	add	a0,a0,a1
90000652:	0ea0a423          	sw	a0,232(ra)

90000656 <inst_82>:
90000656:	ff600593          	li	a1,-10
9000065a:	08000537          	lui	a0,0x8000
9000065e:	952e                	add	a0,a0,a1
90000660:	0ea0a623          	sw	a0,236(ra)

90000664 <inst_83>:
90000664:	800005b7          	lui	a1,0x80000
90000668:	10000537          	lui	a0,0x10000
9000066c:	952e                	add	a0,a0,a1
9000066e:	0ea0a823          	sw	a0,240(ra)

90000672 <inst_84>:
90000672:	ffb00593          	li	a1,-5
90000676:	20000537          	lui	a0,0x20000
9000067a:	952e                	add	a0,a0,a1
9000067c:	0ea0aa23          	sw	a0,244(ra)

90000680 <inst_85>:
90000680:	02000593          	li	a1,32
90000684:	40000537          	lui	a0,0x40000
90000688:	952e                	add	a0,a0,a1
9000068a:	0ea0ac23          	sw	a0,248(ra)

9000068e <inst_86>:
9000068e:	000025b7          	lui	a1,0x2
90000692:	ffd00513          	li	a0,-3
90000696:	952e                	add	a0,a0,a1
90000698:	0ea0ae23          	sw	a0,252(ra)

9000069c <inst_87>:
9000069c:	00200593          	li	a1,2
900006a0:	ffb00513          	li	a0,-5
900006a4:	952e                	add	a0,a0,a1
900006a6:	10a0a023          	sw	a0,256(ra)

900006aa <inst_88>:
900006aa:	800005b7          	lui	a1,0x80000
900006ae:	fff58593          	addi	a1,a1,-1 # 7fffffff <_end+0xefffb4fb>
900006b2:	fdf00513          	li	a0,-33
900006b6:	952e                	add	a0,a0,a1
900006b8:	10a0a223          	sw	a0,260(ra)

900006bc <inst_89>:
900006bc:	00100593          	li	a1,1
900006c0:	eff00513          	li	a0,-257
900006c4:	952e                	add	a0,a0,a1
900006c6:	10a0a423          	sw	a0,264(ra)

900006ca <inst_90>:
900006ca:	40000593          	li	a1,1024
900006ce:	fffff537          	lui	a0,0xfffff
900006d2:	fff50513          	addi	a0,a0,-1 # ffffefff <_end+0x6fffa4fb>
900006d6:	952e                	add	a0,a0,a1
900006d8:	10a0a623          	sw	a0,268(ra)

900006dc <inst_91>:
900006dc:	00000593          	li	a1,0
900006e0:	ffffe537          	lui	a0,0xffffe
900006e4:	fff50513          	addi	a0,a0,-1 # ffffdfff <_end+0x6fff94fb>
900006e8:	952e                	add	a0,a0,a1
900006ea:	10a0a823          	sw	a0,272(ra)

900006ee <inst_92>:
900006ee:	000015b7          	lui	a1,0x1
900006f2:	ffffc537          	lui	a0,0xffffc
900006f6:	fff50513          	addi	a0,a0,-1 # ffffbfff <_end+0x6fff74fb>
900006fa:	952e                	add	a0,a0,a1
900006fc:	10a0aa23          	sw	a0,276(ra)

90000700 <inst_93>:
90000700:	555555b7          	lui	a1,0x55555
90000704:	55658593          	addi	a1,a1,1366 # 55555556 <offset+0x5555548e>
90000708:	fffe0537          	lui	a0,0xfffe0
9000070c:	fff50513          	addi	a0,a0,-1 # fffdffff <_end+0x6ffdb4fb>
90000710:	952e                	add	a0,a0,a1
90000712:	10a0ac23          	sw	a0,280(ra)

90000716 <inst_94>:
90000716:	ffff55b7          	lui	a1,0xffff5
9000071a:	afd58593          	addi	a1,a1,-1283 # ffff4afd <_end+0x6ffefff9>
9000071e:	fffc0537          	lui	a0,0xfffc0
90000722:	fff50513          	addi	a0,a0,-1 # fffbffff <_end+0x6ffbb4fb>
90000726:	952e                	add	a0,a0,a1
90000728:	10a0ae23          	sw	a0,284(ra)

9000072c <inst_95>:
9000072c:	000405b7          	lui	a1,0x40
90000730:	fff80537          	lui	a0,0xfff80
90000734:	fff50513          	addi	a0,a0,-1 # fff7ffff <_end+0x6ff7b4fb>
90000738:	952e                	add	a0,a0,a1
9000073a:	12a0a023          	sw	a0,288(ra)

9000073e <inst_96>:
9000073e:	040005b7          	lui	a1,0x4000
90000742:	fff00537          	lui	a0,0xfff00
90000746:	fff50513          	addi	a0,a0,-1 # ffefffff <_end+0x6fefb4fb>
9000074a:	952e                	add	a0,a0,a1
9000074c:	12a0a223          	sw	a0,292(ra)

90000750 <inst_97>:
90000750:	20000593          	li	a1,512
90000754:	ffc00537          	lui	a0,0xffc00
90000758:	fff50513          	addi	a0,a0,-1 # ffbfffff <_end+0x6fbfb4fb>
9000075c:	952e                	add	a0,a0,a1
9000075e:	12a0a423          	sw	a0,296(ra)

90000762 <inst_98>:
90000762:	555555b7          	lui	a1,0x55555
90000766:	55458593          	addi	a1,a1,1364 # 55555554 <offset+0x5555548c>
9000076a:	ff000537          	lui	a0,0xff000
9000076e:	fff50513          	addi	a0,a0,-1 # feffffff <_end+0x6effb4fb>
90000772:	952e                	add	a0,a0,a1
90000774:	12a0a623          	sw	a0,300(ra)

90000778 <inst_99>:
90000778:	000405b7          	lui	a1,0x40
9000077c:	fe000537          	lui	a0,0xfe000
90000780:	fff50513          	addi	a0,a0,-1 # fdffffff <_end+0x6dffb4fb>
90000784:	952e                	add	a0,a0,a1
90000786:	12a0a823          	sw	a0,304(ra)

9000078a <inst_100>:
9000078a:	ffffc5b7          	lui	a1,0xffffc
9000078e:	fff58593          	addi	a1,a1,-1 # ffffbfff <_end+0x6fff74fb>
90000792:	fc000537          	lui	a0,0xfc000
90000796:	fff50513          	addi	a0,a0,-1 # fbffffff <_end+0x6bffb4fb>
9000079a:	952e                	add	a0,a0,a1
9000079c:	12a0aa23          	sw	a0,308(ra)

900007a0 <inst_101>:
900007a0:	100005b7          	lui	a1,0x10000
900007a4:	f0000537          	lui	a0,0xf0000
900007a8:	fff50513          	addi	a0,a0,-1 # efffffff <_end+0x5fffb4fb>
900007ac:	952e                	add	a0,a0,a1
900007ae:	12a0ac23          	sw	a0,312(ra)

900007b2 <inst_102>:
900007b2:	e00005b7          	lui	a1,0xe0000
900007b6:	fff58593          	addi	a1,a1,-1 # dfffffff <_end+0x4fffb4fb>
900007ba:	e0000537          	lui	a0,0xe0000
900007be:	fff50513          	addi	a0,a0,-1 # dfffffff <_end+0x4fffb4fb>
900007c2:	952e                	add	a0,a0,a1
900007c4:	12a0ae23          	sw	a0,316(ra)

900007c8 <inst_103>:
900007c8:	000085b7          	lui	a1,0x8
900007cc:	55555537          	lui	a0,0x55555
900007d0:	55550513          	addi	a0,a0,1365 # 55555555 <offset+0x5555548d>
900007d4:	952e                	add	a0,a0,a1
900007d6:	14a0a023          	sw	a0,320(ra)

900007da <inst_104>:
900007da:	00300593          	li	a1,3
900007de:	00300513          	li	a0,3
900007e2:	952e                	add	a0,a0,a1
900007e4:	14a0a223          	sw	a0,324(ra)

900007e8 <inst_105>:
900007e8:	555555b7          	lui	a1,0x55555
900007ec:	55558593          	addi	a1,a1,1365 # 55555555 <offset+0x5555548d>
900007f0:	00300513          	li	a0,3
900007f4:	952e                	add	a0,a0,a1
900007f6:	14a0a423          	sw	a0,328(ra)

900007fa <inst_106>:
900007fa:	aaaab5b7          	lui	a1,0xaaaab
900007fe:	aaa58593          	addi	a1,a1,-1366 # aaaaaaaa <_end+0x1aaa5fa6>
90000802:	00300513          	li	a0,3
90000806:	952e                	add	a0,a0,a1
90000808:	14a0a623          	sw	a0,332(ra)

9000080c <inst_107>:
9000080c:	00500593          	li	a1,5
90000810:	00300513          	li	a0,3
90000814:	952e                	add	a0,a0,a1
90000816:	14a0a823          	sw	a0,336(ra)

9000081a <inst_108>:
9000081a:	333335b7          	lui	a1,0x33333
9000081e:	33358593          	addi	a1,a1,819 # 33333333 <offset+0x3333326b>
90000822:	00300513          	li	a0,3
90000826:	952e                	add	a0,a0,a1
90000828:	14a0aa23          	sw	a0,340(ra)

9000082c <inst_109>:
9000082c:	666665b7          	lui	a1,0x66666
90000830:	66658593          	addi	a1,a1,1638 # 66666666 <offset+0x6666659e>
90000834:	00300513          	li	a0,3
90000838:	952e                	add	a0,a0,a1
9000083a:	14a0ac23          	sw	a0,344(ra)

9000083e <inst_110>:
9000083e:	ffff55b7          	lui	a1,0xffff5
90000842:	afc58593          	addi	a1,a1,-1284 # ffff4afc <_end+0x6ffefff8>
90000846:	00300513          	li	a0,3
9000084a:	952e                	add	a0,a0,a1
9000084c:	14a0ae23          	sw	a0,348(ra)

90000850 <inst_111>:
90000850:	0000b5b7          	lui	a1,0xb
90000854:	50458593          	addi	a1,a1,1284 # b504 <offset+0xb43c>
90000858:	00300513          	li	a0,3
9000085c:	952e                	add	a0,a0,a1
9000085e:	16a0a023          	sw	a0,352(ra)

90000862 <inst_112>:
90000862:	00200593          	li	a1,2
90000866:	00300513          	li	a0,3
9000086a:	952e                	add	a0,a0,a1
9000086c:	16a0a223          	sw	a0,356(ra)

90000870 <inst_113>:
90000870:	555555b7          	lui	a1,0x55555
90000874:	55458593          	addi	a1,a1,1364 # 55555554 <offset+0x5555548c>
90000878:	00300513          	li	a0,3
9000087c:	952e                	add	a0,a0,a1
9000087e:	16a0a423          	sw	a0,360(ra)

90000882 <inst_114>:
90000882:	00000593          	li	a1,0
90000886:	00300513          	li	a0,3
9000088a:	952e                	add	a0,a0,a1
9000088c:	16a0a623          	sw	a0,364(ra)

90000890 <inst_115>:
90000890:	00400593          	li	a1,4
90000894:	00300513          	li	a0,3
90000898:	952e                	add	a0,a0,a1
9000089a:	16a0a823          	sw	a0,368(ra)

9000089e <inst_116>:
9000089e:	333335b7          	lui	a1,0x33333
900008a2:	33258593          	addi	a1,a1,818 # 33333332 <offset+0x3333326a>
900008a6:	00300513          	li	a0,3
900008aa:	952e                	add	a0,a0,a1
900008ac:	16a0aa23          	sw	a0,372(ra)

900008b0 <inst_117>:
900008b0:	666665b7          	lui	a1,0x66666
900008b4:	66558593          	addi	a1,a1,1637 # 66666665 <offset+0x6666659d>
900008b8:	00300513          	li	a0,3
900008bc:	952e                	add	a0,a0,a1
900008be:	16a0ac23          	sw	a0,376(ra)

900008c2 <inst_118>:
900008c2:	0000b5b7          	lui	a1,0xb
900008c6:	50358593          	addi	a1,a1,1283 # b503 <offset+0xb43b>
900008ca:	00300513          	li	a0,3
900008ce:	952e                	add	a0,a0,a1
900008d0:	16a0ae23          	sw	a0,380(ra)

900008d4 <inst_119>:
900008d4:	555555b7          	lui	a1,0x55555
900008d8:	55658593          	addi	a1,a1,1366 # 55555556 <offset+0x5555548e>
900008dc:	00300513          	li	a0,3
900008e0:	952e                	add	a0,a0,a1
900008e2:	18a0a023          	sw	a0,384(ra)

900008e6 <inst_120>:
900008e6:	aaaab5b7          	lui	a1,0xaaaab
900008ea:	aab58593          	addi	a1,a1,-1365 # aaaaaaab <_end+0x1aaa5fa7>
900008ee:	00300513          	li	a0,3
900008f2:	952e                	add	a0,a0,a1
900008f4:	18a0a223          	sw	a0,388(ra)

900008f8 <inst_121>:
900008f8:	00600593          	li	a1,6
900008fc:	00300513          	li	a0,3
90000900:	952e                	add	a0,a0,a1
90000902:	18a0a423          	sw	a0,392(ra)

90000906 <inst_122>:
90000906:	333335b7          	lui	a1,0x33333
9000090a:	33458593          	addi	a1,a1,820 # 33333334 <offset+0x3333326c>
9000090e:	00300513          	li	a0,3
90000912:	952e                	add	a0,a0,a1
90000914:	18a0a623          	sw	a0,396(ra)

90000918 <inst_123>:
90000918:	666665b7          	lui	a1,0x66666
9000091c:	66758593          	addi	a1,a1,1639 # 66666667 <offset+0x6666659f>
90000920:	00300513          	li	a0,3
90000924:	952e                	add	a0,a0,a1
90000926:	18a0a823          	sw	a0,400(ra)

9000092a <inst_124>:
9000092a:	ffff55b7          	lui	a1,0xffff5
9000092e:	afd58593          	addi	a1,a1,-1283 # ffff4afd <_end+0x6ffefff9>
90000932:	00300513          	li	a0,3
90000936:	952e                	add	a0,a0,a1
90000938:	18a0aa23          	sw	a0,404(ra)

9000093c <inst_125>:
9000093c:	0000b5b7          	lui	a1,0xb
90000940:	50558593          	addi	a1,a1,1285 # b505 <offset+0xb43d>
90000944:	00300513          	li	a0,3
90000948:	952e                	add	a0,a0,a1
9000094a:	18a0ac23          	sw	a0,408(ra)

9000094e <inst_126>:
9000094e:	00300593          	li	a1,3
90000952:	55555537          	lui	a0,0x55555
90000956:	55550513          	addi	a0,a0,1365 # 55555555 <offset+0x5555548d>
9000095a:	952e                	add	a0,a0,a1
9000095c:	18a0ae23          	sw	a0,412(ra)

90000960 <inst_127>:
90000960:	555555b7          	lui	a1,0x55555
90000964:	55558593          	addi	a1,a1,1365 # 55555555 <offset+0x5555548d>
90000968:	55555537          	lui	a0,0x55555
9000096c:	55550513          	addi	a0,a0,1365 # 55555555 <offset+0x5555548d>
90000970:	952e                	add	a0,a0,a1
90000972:	1aa0a023          	sw	a0,416(ra)

90000976 <inst_128>:
90000976:	aaaab5b7          	lui	a1,0xaaaab
9000097a:	aaa58593          	addi	a1,a1,-1366 # aaaaaaaa <_end+0x1aaa5fa6>
9000097e:	55555537          	lui	a0,0x55555
90000982:	55550513          	addi	a0,a0,1365 # 55555555 <offset+0x5555548d>
90000986:	952e                	add	a0,a0,a1
90000988:	1aa0a223          	sw	a0,420(ra)

9000098c <inst_129>:
9000098c:	00500593          	li	a1,5
90000990:	55555537          	lui	a0,0x55555
90000994:	55550513          	addi	a0,a0,1365 # 55555555 <offset+0x5555548d>
90000998:	952e                	add	a0,a0,a1
9000099a:	1aa0a423          	sw	a0,424(ra)

9000099e <inst_130>:
9000099e:	333335b7          	lui	a1,0x33333
900009a2:	33358593          	addi	a1,a1,819 # 33333333 <offset+0x3333326b>
900009a6:	55555537          	lui	a0,0x55555
900009aa:	55550513          	addi	a0,a0,1365 # 55555555 <offset+0x5555548d>
900009ae:	952e                	add	a0,a0,a1
900009b0:	1aa0a623          	sw	a0,428(ra)

900009b4 <inst_131>:
900009b4:	666665b7          	lui	a1,0x66666
900009b8:	66658593          	addi	a1,a1,1638 # 66666666 <offset+0x6666659e>
900009bc:	55555537          	lui	a0,0x55555
900009c0:	55550513          	addi	a0,a0,1365 # 55555555 <offset+0x5555548d>
900009c4:	952e                	add	a0,a0,a1
900009c6:	1aa0a823          	sw	a0,432(ra)

900009ca <inst_132>:
900009ca:	ffff55b7          	lui	a1,0xffff5
900009ce:	afc58593          	addi	a1,a1,-1284 # ffff4afc <_end+0x6ffefff8>
900009d2:	55555537          	lui	a0,0x55555
900009d6:	55550513          	addi	a0,a0,1365 # 55555555 <offset+0x5555548d>
900009da:	952e                	add	a0,a0,a1
900009dc:	1aa0aa23          	sw	a0,436(ra)

900009e0 <inst_133>:
900009e0:	0000b5b7          	lui	a1,0xb
900009e4:	50458593          	addi	a1,a1,1284 # b504 <offset+0xb43c>
900009e8:	55555537          	lui	a0,0x55555
900009ec:	55550513          	addi	a0,a0,1365 # 55555555 <offset+0x5555548d>
900009f0:	952e                	add	a0,a0,a1
900009f2:	1aa0ac23          	sw	a0,440(ra)

900009f6 <inst_134>:
900009f6:	00200593          	li	a1,2
900009fa:	55555537          	lui	a0,0x55555
900009fe:	55550513          	addi	a0,a0,1365 # 55555555 <offset+0x5555548d>
90000a02:	952e                	add	a0,a0,a1
90000a04:	1aa0ae23          	sw	a0,444(ra)

90000a08 <inst_135>:
90000a08:	555555b7          	lui	a1,0x55555
90000a0c:	55458593          	addi	a1,a1,1364 # 55555554 <offset+0x5555548c>
90000a10:	55555537          	lui	a0,0x55555
90000a14:	55550513          	addi	a0,a0,1365 # 55555555 <offset+0x5555548d>
90000a18:	952e                	add	a0,a0,a1
90000a1a:	1ca0a023          	sw	a0,448(ra)

90000a1e <inst_136>:
90000a1e:	00000593          	li	a1,0
90000a22:	55555537          	lui	a0,0x55555
90000a26:	55550513          	addi	a0,a0,1365 # 55555555 <offset+0x5555548d>
90000a2a:	952e                	add	a0,a0,a1
90000a2c:	1ca0a223          	sw	a0,452(ra)

90000a30 <inst_137>:
90000a30:	00400593          	li	a1,4
90000a34:	55555537          	lui	a0,0x55555
90000a38:	55550513          	addi	a0,a0,1365 # 55555555 <offset+0x5555548d>
90000a3c:	952e                	add	a0,a0,a1
90000a3e:	1ca0a423          	sw	a0,456(ra)

90000a42 <inst_138>:
90000a42:	333335b7          	lui	a1,0x33333
90000a46:	33258593          	addi	a1,a1,818 # 33333332 <offset+0x3333326a>
90000a4a:	55555537          	lui	a0,0x55555
90000a4e:	55550513          	addi	a0,a0,1365 # 55555555 <offset+0x5555548d>
90000a52:	952e                	add	a0,a0,a1
90000a54:	1ca0a623          	sw	a0,460(ra)

90000a58 <inst_139>:
90000a58:	666665b7          	lui	a1,0x66666
90000a5c:	66558593          	addi	a1,a1,1637 # 66666665 <offset+0x6666659d>
90000a60:	55555537          	lui	a0,0x55555
90000a64:	55550513          	addi	a0,a0,1365 # 55555555 <offset+0x5555548d>
90000a68:	952e                	add	a0,a0,a1
90000a6a:	1ca0a823          	sw	a0,464(ra)

90000a6e <inst_140>:
90000a6e:	0000b5b7          	lui	a1,0xb
90000a72:	50358593          	addi	a1,a1,1283 # b503 <offset+0xb43b>
90000a76:	55555537          	lui	a0,0x55555
90000a7a:	55550513          	addi	a0,a0,1365 # 55555555 <offset+0x5555548d>
90000a7e:	952e                	add	a0,a0,a1
90000a80:	1ca0aa23          	sw	a0,468(ra)

90000a84 <inst_141>:
90000a84:	555555b7          	lui	a1,0x55555
90000a88:	55658593          	addi	a1,a1,1366 # 55555556 <offset+0x5555548e>
90000a8c:	55555537          	lui	a0,0x55555
90000a90:	55550513          	addi	a0,a0,1365 # 55555555 <offset+0x5555548d>
90000a94:	952e                	add	a0,a0,a1
90000a96:	1ca0ac23          	sw	a0,472(ra)

90000a9a <inst_142>:
90000a9a:	aaaab5b7          	lui	a1,0xaaaab
90000a9e:	aab58593          	addi	a1,a1,-1365 # aaaaaaab <_end+0x1aaa5fa7>
90000aa2:	55555537          	lui	a0,0x55555
90000aa6:	55550513          	addi	a0,a0,1365 # 55555555 <offset+0x5555548d>
90000aaa:	952e                	add	a0,a0,a1
90000aac:	1ca0ae23          	sw	a0,476(ra)

90000ab0 <inst_143>:
90000ab0:	00600593          	li	a1,6
90000ab4:	55555537          	lui	a0,0x55555
90000ab8:	55550513          	addi	a0,a0,1365 # 55555555 <offset+0x5555548d>
90000abc:	952e                	add	a0,a0,a1
90000abe:	1ea0a023          	sw	a0,480(ra)

90000ac2 <inst_144>:
90000ac2:	333335b7          	lui	a1,0x33333
90000ac6:	33458593          	addi	a1,a1,820 # 33333334 <offset+0x3333326c>
90000aca:	55555537          	lui	a0,0x55555
90000ace:	55550513          	addi	a0,a0,1365 # 55555555 <offset+0x5555548d>
90000ad2:	952e                	add	a0,a0,a1
90000ad4:	1ea0a223          	sw	a0,484(ra)

90000ad8 <inst_145>:
90000ad8:	666665b7          	lui	a1,0x66666
90000adc:	66758593          	addi	a1,a1,1639 # 66666667 <offset+0x6666659f>
90000ae0:	55555537          	lui	a0,0x55555
90000ae4:	55550513          	addi	a0,a0,1365 # 55555555 <offset+0x5555548d>
90000ae8:	952e                	add	a0,a0,a1
90000aea:	1ea0a423          	sw	a0,488(ra)

90000aee <inst_146>:
90000aee:	ffff55b7          	lui	a1,0xffff5
90000af2:	afd58593          	addi	a1,a1,-1283 # ffff4afd <_end+0x6ffefff9>
90000af6:	55555537          	lui	a0,0x55555
90000afa:	55550513          	addi	a0,a0,1365 # 55555555 <offset+0x5555548d>
90000afe:	952e                	add	a0,a0,a1
90000b00:	1ea0a623          	sw	a0,492(ra)

90000b04 <inst_147>:
90000b04:	0000b5b7          	lui	a1,0xb
90000b08:	50558593          	addi	a1,a1,1285 # b505 <offset+0xb43d>
90000b0c:	55555537          	lui	a0,0x55555
90000b10:	55550513          	addi	a0,a0,1365 # 55555555 <offset+0x5555548d>
90000b14:	952e                	add	a0,a0,a1
90000b16:	1ea0a823          	sw	a0,496(ra)

90000b1a <inst_148>:
90000b1a:	00300593          	li	a1,3
90000b1e:	aaaab537          	lui	a0,0xaaaab
90000b22:	aaa50513          	addi	a0,a0,-1366 # aaaaaaaa <_end+0x1aaa5fa6>
90000b26:	952e                	add	a0,a0,a1
90000b28:	1ea0aa23          	sw	a0,500(ra)

90000b2c <inst_149>:
90000b2c:	555555b7          	lui	a1,0x55555
90000b30:	55558593          	addi	a1,a1,1365 # 55555555 <offset+0x5555548d>
90000b34:	aaaab537          	lui	a0,0xaaaab
90000b38:	aaa50513          	addi	a0,a0,-1366 # aaaaaaaa <_end+0x1aaa5fa6>
90000b3c:	952e                	add	a0,a0,a1
90000b3e:	1ea0ac23          	sw	a0,504(ra)

90000b42 <inst_150>:
90000b42:	aaaab5b7          	lui	a1,0xaaaab
90000b46:	aaa58593          	addi	a1,a1,-1366 # aaaaaaaa <_end+0x1aaa5fa6>
90000b4a:	aaaab537          	lui	a0,0xaaaab
90000b4e:	aaa50513          	addi	a0,a0,-1366 # aaaaaaaa <_end+0x1aaa5fa6>
90000b52:	952e                	add	a0,a0,a1
90000b54:	1ea0ae23          	sw	a0,508(ra)

90000b58 <inst_151>:
90000b58:	00500593          	li	a1,5
90000b5c:	aaaab537          	lui	a0,0xaaaab
90000b60:	aaa50513          	addi	a0,a0,-1366 # aaaaaaaa <_end+0x1aaa5fa6>
90000b64:	952e                	add	a0,a0,a1
90000b66:	20a0a023          	sw	a0,512(ra)

90000b6a <inst_152>:
90000b6a:	333335b7          	lui	a1,0x33333
90000b6e:	33358593          	addi	a1,a1,819 # 33333333 <offset+0x3333326b>
90000b72:	aaaab537          	lui	a0,0xaaaab
90000b76:	aaa50513          	addi	a0,a0,-1366 # aaaaaaaa <_end+0x1aaa5fa6>
90000b7a:	952e                	add	a0,a0,a1
90000b7c:	20a0a223          	sw	a0,516(ra)

90000b80 <inst_153>:
90000b80:	666665b7          	lui	a1,0x66666
90000b84:	66658593          	addi	a1,a1,1638 # 66666666 <offset+0x6666659e>
90000b88:	aaaab537          	lui	a0,0xaaaab
90000b8c:	aaa50513          	addi	a0,a0,-1366 # aaaaaaaa <_end+0x1aaa5fa6>
90000b90:	952e                	add	a0,a0,a1
90000b92:	20a0a423          	sw	a0,520(ra)

90000b96 <inst_154>:
90000b96:	ffff55b7          	lui	a1,0xffff5
90000b9a:	afc58593          	addi	a1,a1,-1284 # ffff4afc <_end+0x6ffefff8>
90000b9e:	aaaab537          	lui	a0,0xaaaab
90000ba2:	aaa50513          	addi	a0,a0,-1366 # aaaaaaaa <_end+0x1aaa5fa6>
90000ba6:	952e                	add	a0,a0,a1
90000ba8:	20a0a623          	sw	a0,524(ra)

90000bac <inst_155>:
90000bac:	0000b5b7          	lui	a1,0xb
90000bb0:	50458593          	addi	a1,a1,1284 # b504 <offset+0xb43c>
90000bb4:	aaaab537          	lui	a0,0xaaaab
90000bb8:	aaa50513          	addi	a0,a0,-1366 # aaaaaaaa <_end+0x1aaa5fa6>
90000bbc:	952e                	add	a0,a0,a1
90000bbe:	20a0a823          	sw	a0,528(ra)

90000bc2 <inst_156>:
90000bc2:	00200593          	li	a1,2
90000bc6:	aaaab537          	lui	a0,0xaaaab
90000bca:	aaa50513          	addi	a0,a0,-1366 # aaaaaaaa <_end+0x1aaa5fa6>
90000bce:	952e                	add	a0,a0,a1
90000bd0:	20a0aa23          	sw	a0,532(ra)

90000bd4 <inst_157>:
90000bd4:	555555b7          	lui	a1,0x55555
90000bd8:	55458593          	addi	a1,a1,1364 # 55555554 <offset+0x5555548c>
90000bdc:	aaaab537          	lui	a0,0xaaaab
90000be0:	aaa50513          	addi	a0,a0,-1366 # aaaaaaaa <_end+0x1aaa5fa6>
90000be4:	952e                	add	a0,a0,a1
90000be6:	20a0ac23          	sw	a0,536(ra)

90000bea <inst_158>:
90000bea:	00000593          	li	a1,0
90000bee:	aaaab537          	lui	a0,0xaaaab
90000bf2:	aaa50513          	addi	a0,a0,-1366 # aaaaaaaa <_end+0x1aaa5fa6>
90000bf6:	952e                	add	a0,a0,a1
90000bf8:	20a0ae23          	sw	a0,540(ra)

90000bfc <inst_159>:
90000bfc:	00400593          	li	a1,4
90000c00:	aaaab537          	lui	a0,0xaaaab
90000c04:	aaa50513          	addi	a0,a0,-1366 # aaaaaaaa <_end+0x1aaa5fa6>
90000c08:	952e                	add	a0,a0,a1
90000c0a:	22a0a023          	sw	a0,544(ra)

90000c0e <inst_160>:
90000c0e:	333335b7          	lui	a1,0x33333
90000c12:	33258593          	addi	a1,a1,818 # 33333332 <offset+0x3333326a>
90000c16:	aaaab537          	lui	a0,0xaaaab
90000c1a:	aaa50513          	addi	a0,a0,-1366 # aaaaaaaa <_end+0x1aaa5fa6>
90000c1e:	952e                	add	a0,a0,a1
90000c20:	22a0a223          	sw	a0,548(ra)

90000c24 <inst_161>:
90000c24:	666665b7          	lui	a1,0x66666
90000c28:	66558593          	addi	a1,a1,1637 # 66666665 <offset+0x6666659d>
90000c2c:	aaaab537          	lui	a0,0xaaaab
90000c30:	aaa50513          	addi	a0,a0,-1366 # aaaaaaaa <_end+0x1aaa5fa6>
90000c34:	952e                	add	a0,a0,a1
90000c36:	22a0a423          	sw	a0,552(ra)

90000c3a <inst_162>:
90000c3a:	0000b5b7          	lui	a1,0xb
90000c3e:	50358593          	addi	a1,a1,1283 # b503 <offset+0xb43b>
90000c42:	aaaab537          	lui	a0,0xaaaab
90000c46:	aaa50513          	addi	a0,a0,-1366 # aaaaaaaa <_end+0x1aaa5fa6>
90000c4a:	952e                	add	a0,a0,a1
90000c4c:	22a0a623          	sw	a0,556(ra)

90000c50 <inst_163>:
90000c50:	555555b7          	lui	a1,0x55555
90000c54:	55658593          	addi	a1,a1,1366 # 55555556 <offset+0x5555548e>
90000c58:	aaaab537          	lui	a0,0xaaaab
90000c5c:	aaa50513          	addi	a0,a0,-1366 # aaaaaaaa <_end+0x1aaa5fa6>
90000c60:	952e                	add	a0,a0,a1
90000c62:	22a0a823          	sw	a0,560(ra)

90000c66 <inst_164>:
90000c66:	aaaab5b7          	lui	a1,0xaaaab
90000c6a:	aab58593          	addi	a1,a1,-1365 # aaaaaaab <_end+0x1aaa5fa7>
90000c6e:	aaaab537          	lui	a0,0xaaaab
90000c72:	aaa50513          	addi	a0,a0,-1366 # aaaaaaaa <_end+0x1aaa5fa6>
90000c76:	952e                	add	a0,a0,a1
90000c78:	22a0aa23          	sw	a0,564(ra)

90000c7c <inst_165>:
90000c7c:	00600593          	li	a1,6
90000c80:	aaaab537          	lui	a0,0xaaaab
90000c84:	aaa50513          	addi	a0,a0,-1366 # aaaaaaaa <_end+0x1aaa5fa6>
90000c88:	952e                	add	a0,a0,a1
90000c8a:	22a0ac23          	sw	a0,568(ra)

90000c8e <inst_166>:
90000c8e:	333335b7          	lui	a1,0x33333
90000c92:	33458593          	addi	a1,a1,820 # 33333334 <offset+0x3333326c>
90000c96:	aaaab537          	lui	a0,0xaaaab
90000c9a:	aaa50513          	addi	a0,a0,-1366 # aaaaaaaa <_end+0x1aaa5fa6>
90000c9e:	952e                	add	a0,a0,a1
90000ca0:	22a0ae23          	sw	a0,572(ra)

90000ca4 <inst_167>:
90000ca4:	666665b7          	lui	a1,0x66666
90000ca8:	66758593          	addi	a1,a1,1639 # 66666667 <offset+0x6666659f>
90000cac:	aaaab537          	lui	a0,0xaaaab
90000cb0:	aaa50513          	addi	a0,a0,-1366 # aaaaaaaa <_end+0x1aaa5fa6>
90000cb4:	952e                	add	a0,a0,a1
90000cb6:	24a0a023          	sw	a0,576(ra)

90000cba <inst_168>:
90000cba:	ffff55b7          	lui	a1,0xffff5
90000cbe:	afd58593          	addi	a1,a1,-1283 # ffff4afd <_end+0x6ffefff9>
90000cc2:	aaaab537          	lui	a0,0xaaaab
90000cc6:	aaa50513          	addi	a0,a0,-1366 # aaaaaaaa <_end+0x1aaa5fa6>
90000cca:	952e                	add	a0,a0,a1
90000ccc:	24a0a223          	sw	a0,580(ra)

90000cd0 <inst_169>:
90000cd0:	0000b5b7          	lui	a1,0xb
90000cd4:	50558593          	addi	a1,a1,1285 # b505 <offset+0xb43d>
90000cd8:	aaaab537          	lui	a0,0xaaaab
90000cdc:	aaa50513          	addi	a0,a0,-1366 # aaaaaaaa <_end+0x1aaa5fa6>
90000ce0:	952e                	add	a0,a0,a1
90000ce2:	24a0a423          	sw	a0,584(ra)

90000ce6 <inst_170>:
90000ce6:	00300593          	li	a1,3
90000cea:	00500513          	li	a0,5
90000cee:	952e                	add	a0,a0,a1
90000cf0:	24a0a623          	sw	a0,588(ra)

90000cf4 <inst_171>:
90000cf4:	aaaab5b7          	lui	a1,0xaaaab
90000cf8:	aaa58593          	addi	a1,a1,-1366 # aaaaaaaa <_end+0x1aaa5fa6>
90000cfc:	00500513          	li	a0,5
90000d00:	952e                	add	a0,a0,a1
90000d02:	24a0a823          	sw	a0,592(ra)

90000d06 <inst_172>:
90000d06:	00500593          	li	a1,5
90000d0a:	00500513          	li	a0,5
90000d0e:	952e                	add	a0,a0,a1
90000d10:	24a0aa23          	sw	a0,596(ra)

90000d14 <inst_173>:
90000d14:	333335b7          	lui	a1,0x33333
90000d18:	33358593          	addi	a1,a1,819 # 33333333 <offset+0x3333326b>
90000d1c:	00500513          	li	a0,5
90000d20:	952e                	add	a0,a0,a1
90000d22:	24a0ac23          	sw	a0,600(ra)

90000d26 <inst_174>:
90000d26:	666665b7          	lui	a1,0x66666
90000d2a:	66658593          	addi	a1,a1,1638 # 66666666 <offset+0x6666659e>
90000d2e:	00500513          	li	a0,5
90000d32:	952e                	add	a0,a0,a1
90000d34:	24a0ae23          	sw	a0,604(ra)

90000d38 <inst_175>:
90000d38:	ffff55b7          	lui	a1,0xffff5
90000d3c:	afc58593          	addi	a1,a1,-1284 # ffff4afc <_end+0x6ffefff8>
90000d40:	00500513          	li	a0,5
90000d44:	952e                	add	a0,a0,a1
90000d46:	26a0a023          	sw	a0,608(ra)

90000d4a <inst_176>:
90000d4a:	0000b5b7          	lui	a1,0xb
90000d4e:	50458593          	addi	a1,a1,1284 # b504 <offset+0xb43c>
90000d52:	00500513          	li	a0,5
90000d56:	952e                	add	a0,a0,a1
90000d58:	26a0a223          	sw	a0,612(ra)

90000d5c <inst_177>:
90000d5c:	00200593          	li	a1,2
90000d60:	00500513          	li	a0,5
90000d64:	952e                	add	a0,a0,a1
90000d66:	26a0a423          	sw	a0,616(ra)

90000d6a <inst_178>:
90000d6a:	555555b7          	lui	a1,0x55555
90000d6e:	55458593          	addi	a1,a1,1364 # 55555554 <offset+0x5555548c>
90000d72:	00500513          	li	a0,5
90000d76:	952e                	add	a0,a0,a1
90000d78:	26a0a623          	sw	a0,620(ra)

90000d7c <inst_179>:
90000d7c:	00000593          	li	a1,0
90000d80:	00500513          	li	a0,5
90000d84:	952e                	add	a0,a0,a1
90000d86:	26a0a823          	sw	a0,624(ra)

90000d8a <inst_180>:
90000d8a:	00400593          	li	a1,4
90000d8e:	00500513          	li	a0,5
90000d92:	952e                	add	a0,a0,a1
90000d94:	26a0aa23          	sw	a0,628(ra)

90000d98 <inst_181>:
90000d98:	333335b7          	lui	a1,0x33333
90000d9c:	33258593          	addi	a1,a1,818 # 33333332 <offset+0x3333326a>
90000da0:	00500513          	li	a0,5
90000da4:	952e                	add	a0,a0,a1
90000da6:	26a0ac23          	sw	a0,632(ra)

90000daa <inst_182>:
90000daa:	666665b7          	lui	a1,0x66666
90000dae:	66558593          	addi	a1,a1,1637 # 66666665 <offset+0x6666659d>
90000db2:	00500513          	li	a0,5
90000db6:	952e                	add	a0,a0,a1
90000db8:	26a0ae23          	sw	a0,636(ra)

90000dbc <inst_183>:
90000dbc:	0000b5b7          	lui	a1,0xb
90000dc0:	50358593          	addi	a1,a1,1283 # b503 <offset+0xb43b>
90000dc4:	00500513          	li	a0,5
90000dc8:	952e                	add	a0,a0,a1
90000dca:	28a0a023          	sw	a0,640(ra)

90000dce <inst_184>:
90000dce:	555555b7          	lui	a1,0x55555
90000dd2:	55658593          	addi	a1,a1,1366 # 55555556 <offset+0x5555548e>
90000dd6:	00500513          	li	a0,5
90000dda:	952e                	add	a0,a0,a1
90000ddc:	28a0a223          	sw	a0,644(ra)

90000de0 <inst_185>:
90000de0:	aaaab5b7          	lui	a1,0xaaaab
90000de4:	aab58593          	addi	a1,a1,-1365 # aaaaaaab <_end+0x1aaa5fa7>
90000de8:	00500513          	li	a0,5
90000dec:	952e                	add	a0,a0,a1
90000dee:	28a0a423          	sw	a0,648(ra)

90000df2 <inst_186>:
90000df2:	00600593          	li	a1,6
90000df6:	00500513          	li	a0,5
90000dfa:	952e                	add	a0,a0,a1
90000dfc:	28a0a623          	sw	a0,652(ra)

90000e00 <inst_187>:
90000e00:	333335b7          	lui	a1,0x33333
90000e04:	33458593          	addi	a1,a1,820 # 33333334 <offset+0x3333326c>
90000e08:	00500513          	li	a0,5
90000e0c:	952e                	add	a0,a0,a1
90000e0e:	28a0a823          	sw	a0,656(ra)

90000e12 <inst_188>:
90000e12:	666665b7          	lui	a1,0x66666
90000e16:	66758593          	addi	a1,a1,1639 # 66666667 <offset+0x6666659f>
90000e1a:	00500513          	li	a0,5
90000e1e:	952e                	add	a0,a0,a1
90000e20:	28a0aa23          	sw	a0,660(ra)

90000e24 <inst_189>:
90000e24:	ffff55b7          	lui	a1,0xffff5
90000e28:	afd58593          	addi	a1,a1,-1283 # ffff4afd <_end+0x6ffefff9>
90000e2c:	00500513          	li	a0,5
90000e30:	952e                	add	a0,a0,a1
90000e32:	28a0ac23          	sw	a0,664(ra)

90000e36 <inst_190>:
90000e36:	0000b5b7          	lui	a1,0xb
90000e3a:	50558593          	addi	a1,a1,1285 # b505 <offset+0xb43d>
90000e3e:	00500513          	li	a0,5
90000e42:	952e                	add	a0,a0,a1
90000e44:	28a0ae23          	sw	a0,668(ra)

90000e48 <inst_191>:
90000e48:	00300593          	li	a1,3
90000e4c:	33333537          	lui	a0,0x33333
90000e50:	33350513          	addi	a0,a0,819 # 33333333 <offset+0x3333326b>
90000e54:	952e                	add	a0,a0,a1
90000e56:	2aa0a023          	sw	a0,672(ra)

90000e5a <inst_192>:
90000e5a:	555555b7          	lui	a1,0x55555
90000e5e:	55558593          	addi	a1,a1,1365 # 55555555 <offset+0x5555548d>
90000e62:	33333537          	lui	a0,0x33333
90000e66:	33350513          	addi	a0,a0,819 # 33333333 <offset+0x3333326b>
90000e6a:	952e                	add	a0,a0,a1
90000e6c:	2aa0a223          	sw	a0,676(ra)

90000e70 <inst_193>:
90000e70:	aaaab5b7          	lui	a1,0xaaaab
90000e74:	aaa58593          	addi	a1,a1,-1366 # aaaaaaaa <_end+0x1aaa5fa6>
90000e78:	33333537          	lui	a0,0x33333
90000e7c:	33350513          	addi	a0,a0,819 # 33333333 <offset+0x3333326b>
90000e80:	952e                	add	a0,a0,a1
90000e82:	2aa0a423          	sw	a0,680(ra)

90000e86 <inst_194>:
90000e86:	00500593          	li	a1,5
90000e8a:	33333537          	lui	a0,0x33333
90000e8e:	33350513          	addi	a0,a0,819 # 33333333 <offset+0x3333326b>
90000e92:	952e                	add	a0,a0,a1
90000e94:	2aa0a623          	sw	a0,684(ra)

90000e98 <inst_195>:
90000e98:	333335b7          	lui	a1,0x33333
90000e9c:	33358593          	addi	a1,a1,819 # 33333333 <offset+0x3333326b>
90000ea0:	33333537          	lui	a0,0x33333
90000ea4:	33350513          	addi	a0,a0,819 # 33333333 <offset+0x3333326b>
90000ea8:	952e                	add	a0,a0,a1
90000eaa:	2aa0a823          	sw	a0,688(ra)

90000eae <inst_196>:
90000eae:	666665b7          	lui	a1,0x66666
90000eb2:	66658593          	addi	a1,a1,1638 # 66666666 <offset+0x6666659e>
90000eb6:	33333537          	lui	a0,0x33333
90000eba:	33350513          	addi	a0,a0,819 # 33333333 <offset+0x3333326b>
90000ebe:	952e                	add	a0,a0,a1
90000ec0:	2aa0aa23          	sw	a0,692(ra)

90000ec4 <inst_197>:
90000ec4:	ffff55b7          	lui	a1,0xffff5
90000ec8:	afc58593          	addi	a1,a1,-1284 # ffff4afc <_end+0x6ffefff8>
90000ecc:	33333537          	lui	a0,0x33333
90000ed0:	33350513          	addi	a0,a0,819 # 33333333 <offset+0x3333326b>
90000ed4:	952e                	add	a0,a0,a1
90000ed6:	2aa0ac23          	sw	a0,696(ra)

90000eda <inst_198>:
90000eda:	0000b5b7          	lui	a1,0xb
90000ede:	50458593          	addi	a1,a1,1284 # b504 <offset+0xb43c>
90000ee2:	33333537          	lui	a0,0x33333
90000ee6:	33350513          	addi	a0,a0,819 # 33333333 <offset+0x3333326b>
90000eea:	952e                	add	a0,a0,a1
90000eec:	2aa0ae23          	sw	a0,700(ra)

90000ef0 <inst_199>:
90000ef0:	00200593          	li	a1,2
90000ef4:	33333537          	lui	a0,0x33333
90000ef8:	33350513          	addi	a0,a0,819 # 33333333 <offset+0x3333326b>
90000efc:	952e                	add	a0,a0,a1
90000efe:	2ca0a023          	sw	a0,704(ra)

90000f02 <inst_200>:
90000f02:	555555b7          	lui	a1,0x55555
90000f06:	55458593          	addi	a1,a1,1364 # 55555554 <offset+0x5555548c>
90000f0a:	33333537          	lui	a0,0x33333
90000f0e:	33350513          	addi	a0,a0,819 # 33333333 <offset+0x3333326b>
90000f12:	952e                	add	a0,a0,a1
90000f14:	2ca0a223          	sw	a0,708(ra)

90000f18 <inst_201>:
90000f18:	00000593          	li	a1,0
90000f1c:	33333537          	lui	a0,0x33333
90000f20:	33350513          	addi	a0,a0,819 # 33333333 <offset+0x3333326b>
90000f24:	952e                	add	a0,a0,a1
90000f26:	2ca0a423          	sw	a0,712(ra)

90000f2a <inst_202>:
90000f2a:	333335b7          	lui	a1,0x33333
90000f2e:	33258593          	addi	a1,a1,818 # 33333332 <offset+0x3333326a>
90000f32:	33333537          	lui	a0,0x33333
90000f36:	33350513          	addi	a0,a0,819 # 33333333 <offset+0x3333326b>
90000f3a:	952e                	add	a0,a0,a1
90000f3c:	2ca0a623          	sw	a0,716(ra)

90000f40 <inst_203>:
90000f40:	666665b7          	lui	a1,0x66666
90000f44:	66558593          	addi	a1,a1,1637 # 66666665 <offset+0x6666659d>
90000f48:	33333537          	lui	a0,0x33333
90000f4c:	33350513          	addi	a0,a0,819 # 33333333 <offset+0x3333326b>
90000f50:	952e                	add	a0,a0,a1
90000f52:	2ca0a823          	sw	a0,720(ra)

90000f56 <inst_204>:
90000f56:	0000b5b7          	lui	a1,0xb
90000f5a:	50358593          	addi	a1,a1,1283 # b503 <offset+0xb43b>
90000f5e:	33333537          	lui	a0,0x33333
90000f62:	33350513          	addi	a0,a0,819 # 33333333 <offset+0x3333326b>
90000f66:	952e                	add	a0,a0,a1
90000f68:	2ca0aa23          	sw	a0,724(ra)

90000f6c <inst_205>:
90000f6c:	555555b7          	lui	a1,0x55555
90000f70:	55658593          	addi	a1,a1,1366 # 55555556 <offset+0x5555548e>
90000f74:	33333537          	lui	a0,0x33333
90000f78:	33350513          	addi	a0,a0,819 # 33333333 <offset+0x3333326b>
90000f7c:	952e                	add	a0,a0,a1
90000f7e:	2ca0ac23          	sw	a0,728(ra)

90000f82 <inst_206>:
90000f82:	aaaab5b7          	lui	a1,0xaaaab
90000f86:	aab58593          	addi	a1,a1,-1365 # aaaaaaab <_end+0x1aaa5fa7>
90000f8a:	33333537          	lui	a0,0x33333
90000f8e:	33350513          	addi	a0,a0,819 # 33333333 <offset+0x3333326b>
90000f92:	952e                	add	a0,a0,a1
90000f94:	2ca0ae23          	sw	a0,732(ra)

90000f98 <inst_207>:
90000f98:	00600593          	li	a1,6
90000f9c:	33333537          	lui	a0,0x33333
90000fa0:	33350513          	addi	a0,a0,819 # 33333333 <offset+0x3333326b>
90000fa4:	952e                	add	a0,a0,a1
90000fa6:	2ea0a023          	sw	a0,736(ra)

90000faa <inst_208>:
90000faa:	333335b7          	lui	a1,0x33333
90000fae:	33458593          	addi	a1,a1,820 # 33333334 <offset+0x3333326c>
90000fb2:	33333537          	lui	a0,0x33333
90000fb6:	33350513          	addi	a0,a0,819 # 33333333 <offset+0x3333326b>
90000fba:	952e                	add	a0,a0,a1
90000fbc:	2ea0a223          	sw	a0,740(ra)

90000fc0 <inst_209>:
90000fc0:	666665b7          	lui	a1,0x66666
90000fc4:	66758593          	addi	a1,a1,1639 # 66666667 <offset+0x6666659f>
90000fc8:	33333537          	lui	a0,0x33333
90000fcc:	33350513          	addi	a0,a0,819 # 33333333 <offset+0x3333326b>
90000fd0:	952e                	add	a0,a0,a1
90000fd2:	2ea0a423          	sw	a0,744(ra)

90000fd6 <inst_210>:
90000fd6:	ffff55b7          	lui	a1,0xffff5
90000fda:	afd58593          	addi	a1,a1,-1283 # ffff4afd <_end+0x6ffefff9>
90000fde:	33333537          	lui	a0,0x33333
90000fe2:	33350513          	addi	a0,a0,819 # 33333333 <offset+0x3333326b>
90000fe6:	952e                	add	a0,a0,a1
90000fe8:	2ea0a623          	sw	a0,748(ra)

90000fec <inst_211>:
90000fec:	0000b5b7          	lui	a1,0xb
90000ff0:	50558593          	addi	a1,a1,1285 # b505 <offset+0xb43d>
90000ff4:	33333537          	lui	a0,0x33333
90000ff8:	33350513          	addi	a0,a0,819 # 33333333 <offset+0x3333326b>
90000ffc:	952e                	add	a0,a0,a1
90000ffe:	2ea0a823          	sw	a0,752(ra)

90001002 <inst_212>:
90001002:	00300593          	li	a1,3
90001006:	66666537          	lui	a0,0x66666
9000100a:	66650513          	addi	a0,a0,1638 # 66666666 <offset+0x6666659e>
9000100e:	952e                	add	a0,a0,a1
90001010:	2ea0aa23          	sw	a0,756(ra)

90001014 <inst_213>:
90001014:	555555b7          	lui	a1,0x55555
90001018:	55558593          	addi	a1,a1,1365 # 55555555 <offset+0x5555548d>
9000101c:	66666537          	lui	a0,0x66666
90001020:	66650513          	addi	a0,a0,1638 # 66666666 <offset+0x6666659e>
90001024:	952e                	add	a0,a0,a1
90001026:	2ea0ac23          	sw	a0,760(ra)

9000102a <inst_214>:
9000102a:	aaaab5b7          	lui	a1,0xaaaab
9000102e:	aaa58593          	addi	a1,a1,-1366 # aaaaaaaa <_end+0x1aaa5fa6>
90001032:	66666537          	lui	a0,0x66666
90001036:	66650513          	addi	a0,a0,1638 # 66666666 <offset+0x6666659e>
9000103a:	952e                	add	a0,a0,a1
9000103c:	2ea0ae23          	sw	a0,764(ra)

90001040 <inst_215>:
90001040:	00500593          	li	a1,5
90001044:	66666537          	lui	a0,0x66666
90001048:	66650513          	addi	a0,a0,1638 # 66666666 <offset+0x6666659e>
9000104c:	952e                	add	a0,a0,a1
9000104e:	30a0a023          	sw	a0,768(ra)

90001052 <inst_216>:
90001052:	333335b7          	lui	a1,0x33333
90001056:	33358593          	addi	a1,a1,819 # 33333333 <offset+0x3333326b>
9000105a:	66666537          	lui	a0,0x66666
9000105e:	66650513          	addi	a0,a0,1638 # 66666666 <offset+0x6666659e>
90001062:	952e                	add	a0,a0,a1
90001064:	30a0a223          	sw	a0,772(ra)

90001068 <inst_217>:
90001068:	666665b7          	lui	a1,0x66666
9000106c:	66658593          	addi	a1,a1,1638 # 66666666 <offset+0x6666659e>
90001070:	66666537          	lui	a0,0x66666
90001074:	66650513          	addi	a0,a0,1638 # 66666666 <offset+0x6666659e>
90001078:	952e                	add	a0,a0,a1
9000107a:	30a0a423          	sw	a0,776(ra)

9000107e <inst_218>:
9000107e:	ffff55b7          	lui	a1,0xffff5
90001082:	afc58593          	addi	a1,a1,-1284 # ffff4afc <_end+0x6ffefff8>
90001086:	66666537          	lui	a0,0x66666
9000108a:	66650513          	addi	a0,a0,1638 # 66666666 <offset+0x6666659e>
9000108e:	952e                	add	a0,a0,a1
90001090:	30a0a623          	sw	a0,780(ra)

90001094 <inst_219>:
90001094:	0000b5b7          	lui	a1,0xb
90001098:	50458593          	addi	a1,a1,1284 # b504 <offset+0xb43c>
9000109c:	66666537          	lui	a0,0x66666
900010a0:	66650513          	addi	a0,a0,1638 # 66666666 <offset+0x6666659e>
900010a4:	952e                	add	a0,a0,a1
900010a6:	30a0a823          	sw	a0,784(ra)

900010aa <inst_220>:
900010aa:	00200593          	li	a1,2
900010ae:	66666537          	lui	a0,0x66666
900010b2:	66650513          	addi	a0,a0,1638 # 66666666 <offset+0x6666659e>
900010b6:	952e                	add	a0,a0,a1
900010b8:	30a0aa23          	sw	a0,788(ra)

900010bc <inst_221>:
900010bc:	555555b7          	lui	a1,0x55555
900010c0:	55458593          	addi	a1,a1,1364 # 55555554 <offset+0x5555548c>
900010c4:	66666537          	lui	a0,0x66666
900010c8:	66650513          	addi	a0,a0,1638 # 66666666 <offset+0x6666659e>
900010cc:	952e                	add	a0,a0,a1
900010ce:	30a0ac23          	sw	a0,792(ra)

900010d2 <inst_222>:
900010d2:	00000593          	li	a1,0
900010d6:	66666537          	lui	a0,0x66666
900010da:	66650513          	addi	a0,a0,1638 # 66666666 <offset+0x6666659e>
900010de:	952e                	add	a0,a0,a1
900010e0:	30a0ae23          	sw	a0,796(ra)

900010e4 <inst_223>:
900010e4:	00400593          	li	a1,4
900010e8:	66666537          	lui	a0,0x66666
900010ec:	66650513          	addi	a0,a0,1638 # 66666666 <offset+0x6666659e>
900010f0:	952e                	add	a0,a0,a1
900010f2:	32a0a023          	sw	a0,800(ra)

900010f6 <inst_224>:
900010f6:	333335b7          	lui	a1,0x33333
900010fa:	33258593          	addi	a1,a1,818 # 33333332 <offset+0x3333326a>
900010fe:	66666537          	lui	a0,0x66666
90001102:	66650513          	addi	a0,a0,1638 # 66666666 <offset+0x6666659e>
90001106:	952e                	add	a0,a0,a1
90001108:	32a0a223          	sw	a0,804(ra)

9000110c <inst_225>:
9000110c:	666665b7          	lui	a1,0x66666
90001110:	66558593          	addi	a1,a1,1637 # 66666665 <offset+0x6666659d>
90001114:	66666537          	lui	a0,0x66666
90001118:	66650513          	addi	a0,a0,1638 # 66666666 <offset+0x6666659e>
9000111c:	952e                	add	a0,a0,a1
9000111e:	32a0a423          	sw	a0,808(ra)

90001122 <inst_226>:
90001122:	0000b5b7          	lui	a1,0xb
90001126:	50358593          	addi	a1,a1,1283 # b503 <offset+0xb43b>
9000112a:	66666537          	lui	a0,0x66666
9000112e:	66650513          	addi	a0,a0,1638 # 66666666 <offset+0x6666659e>
90001132:	952e                	add	a0,a0,a1
90001134:	32a0a623          	sw	a0,812(ra)

90001138 <inst_227>:
90001138:	555555b7          	lui	a1,0x55555
9000113c:	55658593          	addi	a1,a1,1366 # 55555556 <offset+0x5555548e>
90001140:	66666537          	lui	a0,0x66666
90001144:	66650513          	addi	a0,a0,1638 # 66666666 <offset+0x6666659e>
90001148:	952e                	add	a0,a0,a1
9000114a:	32a0a823          	sw	a0,816(ra)

9000114e <inst_228>:
9000114e:	aaaab5b7          	lui	a1,0xaaaab
90001152:	aab58593          	addi	a1,a1,-1365 # aaaaaaab <_end+0x1aaa5fa7>
90001156:	66666537          	lui	a0,0x66666
9000115a:	66650513          	addi	a0,a0,1638 # 66666666 <offset+0x6666659e>
9000115e:	952e                	add	a0,a0,a1
90001160:	32a0aa23          	sw	a0,820(ra)

90001164 <inst_229>:
90001164:	00600593          	li	a1,6
90001168:	66666537          	lui	a0,0x66666
9000116c:	66650513          	addi	a0,a0,1638 # 66666666 <offset+0x6666659e>
90001170:	952e                	add	a0,a0,a1
90001172:	32a0ac23          	sw	a0,824(ra)

90001176 <inst_230>:
90001176:	333335b7          	lui	a1,0x33333
9000117a:	33458593          	addi	a1,a1,820 # 33333334 <offset+0x3333326c>
9000117e:	66666537          	lui	a0,0x66666
90001182:	66650513          	addi	a0,a0,1638 # 66666666 <offset+0x6666659e>
90001186:	952e                	add	a0,a0,a1
90001188:	32a0ae23          	sw	a0,828(ra)

9000118c <inst_231>:
9000118c:	666665b7          	lui	a1,0x66666
90001190:	66758593          	addi	a1,a1,1639 # 66666667 <offset+0x6666659f>
90001194:	66666537          	lui	a0,0x66666
90001198:	66650513          	addi	a0,a0,1638 # 66666666 <offset+0x6666659e>
9000119c:	952e                	add	a0,a0,a1
9000119e:	34a0a023          	sw	a0,832(ra)

900011a2 <inst_232>:
900011a2:	ffff55b7          	lui	a1,0xffff5
900011a6:	afd58593          	addi	a1,a1,-1283 # ffff4afd <_end+0x6ffefff9>
900011aa:	66666537          	lui	a0,0x66666
900011ae:	66650513          	addi	a0,a0,1638 # 66666666 <offset+0x6666659e>
900011b2:	952e                	add	a0,a0,a1
900011b4:	34a0a223          	sw	a0,836(ra)

900011b8 <inst_233>:
900011b8:	0000b5b7          	lui	a1,0xb
900011bc:	50558593          	addi	a1,a1,1285 # b505 <offset+0xb43d>
900011c0:	66666537          	lui	a0,0x66666
900011c4:	66650513          	addi	a0,a0,1638 # 66666666 <offset+0x6666659e>
900011c8:	952e                	add	a0,a0,a1
900011ca:	34a0a423          	sw	a0,840(ra)

900011ce <inst_234>:
900011ce:	00300593          	li	a1,3
900011d2:	ffff5537          	lui	a0,0xffff5
900011d6:	afc50513          	addi	a0,a0,-1284 # ffff4afc <_end+0x6ffefff8>
900011da:	952e                	add	a0,a0,a1
900011dc:	34a0a623          	sw	a0,844(ra)

900011e0 <inst_235>:
900011e0:	555555b7          	lui	a1,0x55555
900011e4:	55558593          	addi	a1,a1,1365 # 55555555 <offset+0x5555548d>
900011e8:	ffff5537          	lui	a0,0xffff5
900011ec:	afc50513          	addi	a0,a0,-1284 # ffff4afc <_end+0x6ffefff8>
900011f0:	952e                	add	a0,a0,a1
900011f2:	34a0a823          	sw	a0,848(ra)

900011f6 <inst_236>:
900011f6:	00500593          	li	a1,5
900011fa:	ffff5537          	lui	a0,0xffff5
900011fe:	afc50513          	addi	a0,a0,-1284 # ffff4afc <_end+0x6ffefff8>
90001202:	952e                	add	a0,a0,a1
90001204:	34a0aa23          	sw	a0,852(ra)

90001208 <inst_237>:
90001208:	333335b7          	lui	a1,0x33333
9000120c:	33358593          	addi	a1,a1,819 # 33333333 <offset+0x3333326b>
90001210:	ffff5537          	lui	a0,0xffff5
90001214:	afc50513          	addi	a0,a0,-1284 # ffff4afc <_end+0x6ffefff8>
90001218:	952e                	add	a0,a0,a1
9000121a:	34a0ac23          	sw	a0,856(ra)

9000121e <inst_238>:
9000121e:	666665b7          	lui	a1,0x66666
90001222:	66658593          	addi	a1,a1,1638 # 66666666 <offset+0x6666659e>
90001226:	ffff5537          	lui	a0,0xffff5
9000122a:	afc50513          	addi	a0,a0,-1284 # ffff4afc <_end+0x6ffefff8>
9000122e:	952e                	add	a0,a0,a1
90001230:	34a0ae23          	sw	a0,860(ra)

90001234 <inst_239>:
90001234:	ffff55b7          	lui	a1,0xffff5
90001238:	afc58593          	addi	a1,a1,-1284 # ffff4afc <_end+0x6ffefff8>
9000123c:	ffff5537          	lui	a0,0xffff5
90001240:	afc50513          	addi	a0,a0,-1284 # ffff4afc <_end+0x6ffefff8>
90001244:	952e                	add	a0,a0,a1
90001246:	36a0a023          	sw	a0,864(ra)

9000124a <inst_240>:
9000124a:	0000b5b7          	lui	a1,0xb
9000124e:	50458593          	addi	a1,a1,1284 # b504 <offset+0xb43c>
90001252:	ffff5537          	lui	a0,0xffff5
90001256:	afc50513          	addi	a0,a0,-1284 # ffff4afc <_end+0x6ffefff8>
9000125a:	952e                	add	a0,a0,a1
9000125c:	36a0a223          	sw	a0,868(ra)

90001260 <inst_241>:
90001260:	00200593          	li	a1,2
90001264:	ffff5537          	lui	a0,0xffff5
90001268:	afc50513          	addi	a0,a0,-1284 # ffff4afc <_end+0x6ffefff8>
9000126c:	952e                	add	a0,a0,a1
9000126e:	36a0a423          	sw	a0,872(ra)

90001272 <inst_242>:
90001272:	555555b7          	lui	a1,0x55555
90001276:	55458593          	addi	a1,a1,1364 # 55555554 <offset+0x5555548c>
9000127a:	ffff5537          	lui	a0,0xffff5
9000127e:	afc50513          	addi	a0,a0,-1284 # ffff4afc <_end+0x6ffefff8>
90001282:	952e                	add	a0,a0,a1
90001284:	36a0a623          	sw	a0,876(ra)

90001288 <inst_243>:
90001288:	00000593          	li	a1,0
9000128c:	ffff5537          	lui	a0,0xffff5
90001290:	afc50513          	addi	a0,a0,-1284 # ffff4afc <_end+0x6ffefff8>
90001294:	952e                	add	a0,a0,a1
90001296:	36a0a823          	sw	a0,880(ra)

9000129a <inst_244>:
9000129a:	00400593          	li	a1,4
9000129e:	ffff5537          	lui	a0,0xffff5
900012a2:	afc50513          	addi	a0,a0,-1284 # ffff4afc <_end+0x6ffefff8>
900012a6:	952e                	add	a0,a0,a1
900012a8:	36a0aa23          	sw	a0,884(ra)

900012ac <inst_245>:
900012ac:	333335b7          	lui	a1,0x33333
900012b0:	33258593          	addi	a1,a1,818 # 33333332 <offset+0x3333326a>
900012b4:	ffff5537          	lui	a0,0xffff5
900012b8:	afc50513          	addi	a0,a0,-1284 # ffff4afc <_end+0x6ffefff8>
900012bc:	952e                	add	a0,a0,a1
900012be:	36a0ac23          	sw	a0,888(ra)

900012c2 <inst_246>:
900012c2:	666665b7          	lui	a1,0x66666
900012c6:	66558593          	addi	a1,a1,1637 # 66666665 <offset+0x6666659d>
900012ca:	ffff5537          	lui	a0,0xffff5
900012ce:	afc50513          	addi	a0,a0,-1284 # ffff4afc <_end+0x6ffefff8>
900012d2:	952e                	add	a0,a0,a1
900012d4:	36a0ae23          	sw	a0,892(ra)

900012d8 <inst_247>:
900012d8:	0000b5b7          	lui	a1,0xb
900012dc:	50358593          	addi	a1,a1,1283 # b503 <offset+0xb43b>
900012e0:	ffff5537          	lui	a0,0xffff5
900012e4:	afc50513          	addi	a0,a0,-1284 # ffff4afc <_end+0x6ffefff8>
900012e8:	952e                	add	a0,a0,a1
900012ea:	38a0a023          	sw	a0,896(ra)

900012ee <inst_248>:
900012ee:	555555b7          	lui	a1,0x55555
900012f2:	55658593          	addi	a1,a1,1366 # 55555556 <offset+0x5555548e>
900012f6:	ffff5537          	lui	a0,0xffff5
900012fa:	afc50513          	addi	a0,a0,-1284 # ffff4afc <_end+0x6ffefff8>
900012fe:	952e                	add	a0,a0,a1
90001300:	38a0a223          	sw	a0,900(ra)

90001304 <inst_249>:
90001304:	aaaab5b7          	lui	a1,0xaaaab
90001308:	aab58593          	addi	a1,a1,-1365 # aaaaaaab <_end+0x1aaa5fa7>
9000130c:	ffff5537          	lui	a0,0xffff5
90001310:	afc50513          	addi	a0,a0,-1284 # ffff4afc <_end+0x6ffefff8>
90001314:	952e                	add	a0,a0,a1
90001316:	38a0a423          	sw	a0,904(ra)

9000131a <inst_250>:
9000131a:	00600593          	li	a1,6
9000131e:	ffff5537          	lui	a0,0xffff5
90001322:	afc50513          	addi	a0,a0,-1284 # ffff4afc <_end+0x6ffefff8>
90001326:	952e                	add	a0,a0,a1
90001328:	38a0a623          	sw	a0,908(ra)

9000132c <inst_251>:
9000132c:	333335b7          	lui	a1,0x33333
90001330:	33458593          	addi	a1,a1,820 # 33333334 <offset+0x3333326c>
90001334:	ffff5537          	lui	a0,0xffff5
90001338:	afc50513          	addi	a0,a0,-1284 # ffff4afc <_end+0x6ffefff8>
9000133c:	952e                	add	a0,a0,a1
9000133e:	38a0a823          	sw	a0,912(ra)

90001342 <inst_252>:
90001342:	666665b7          	lui	a1,0x66666
90001346:	66758593          	addi	a1,a1,1639 # 66666667 <offset+0x6666659f>
9000134a:	ffff5537          	lui	a0,0xffff5
9000134e:	afc50513          	addi	a0,a0,-1284 # ffff4afc <_end+0x6ffefff8>
90001352:	952e                	add	a0,a0,a1
90001354:	38a0aa23          	sw	a0,916(ra)

90001358 <inst_253>:
90001358:	ffff55b7          	lui	a1,0xffff5
9000135c:	afd58593          	addi	a1,a1,-1283 # ffff4afd <_end+0x6ffefff9>
90001360:	ffff5537          	lui	a0,0xffff5
90001364:	afc50513          	addi	a0,a0,-1284 # ffff4afc <_end+0x6ffefff8>
90001368:	952e                	add	a0,a0,a1
9000136a:	38a0ac23          	sw	a0,920(ra)

9000136e <inst_254>:
9000136e:	0000b5b7          	lui	a1,0xb
90001372:	50558593          	addi	a1,a1,1285 # b505 <offset+0xb43d>
90001376:	ffff5537          	lui	a0,0xffff5
9000137a:	afc50513          	addi	a0,a0,-1284 # ffff4afc <_end+0x6ffefff8>
9000137e:	952e                	add	a0,a0,a1
90001380:	38a0ae23          	sw	a0,924(ra)

90001384 <inst_255>:
90001384:	00300593          	li	a1,3
90001388:	0000b537          	lui	a0,0xb
9000138c:	50450513          	addi	a0,a0,1284 # b504 <offset+0xb43c>
90001390:	952e                	add	a0,a0,a1
90001392:	3aa0a023          	sw	a0,928(ra)

90001396 <inst_256>:
90001396:	555555b7          	lui	a1,0x55555
9000139a:	55558593          	addi	a1,a1,1365 # 55555555 <offset+0x5555548d>
9000139e:	0000b537          	lui	a0,0xb
900013a2:	50450513          	addi	a0,a0,1284 # b504 <offset+0xb43c>
900013a6:	952e                	add	a0,a0,a1
900013a8:	3aa0a223          	sw	a0,932(ra)

900013ac <inst_257>:
900013ac:	aaaab5b7          	lui	a1,0xaaaab
900013b0:	aaa58593          	addi	a1,a1,-1366 # aaaaaaaa <_end+0x1aaa5fa6>
900013b4:	0000b537          	lui	a0,0xb
900013b8:	50450513          	addi	a0,a0,1284 # b504 <offset+0xb43c>
900013bc:	952e                	add	a0,a0,a1
900013be:	3aa0a423          	sw	a0,936(ra)

900013c2 <inst_258>:
900013c2:	00500593          	li	a1,5
900013c6:	0000b537          	lui	a0,0xb
900013ca:	50450513          	addi	a0,a0,1284 # b504 <offset+0xb43c>
900013ce:	952e                	add	a0,a0,a1
900013d0:	3aa0a623          	sw	a0,940(ra)

900013d4 <inst_259>:
900013d4:	333335b7          	lui	a1,0x33333
900013d8:	33358593          	addi	a1,a1,819 # 33333333 <offset+0x3333326b>
900013dc:	0000b537          	lui	a0,0xb
900013e0:	50450513          	addi	a0,a0,1284 # b504 <offset+0xb43c>
900013e4:	952e                	add	a0,a0,a1
900013e6:	3aa0a823          	sw	a0,944(ra)

900013ea <inst_260>:
900013ea:	666665b7          	lui	a1,0x66666
900013ee:	66658593          	addi	a1,a1,1638 # 66666666 <offset+0x6666659e>
900013f2:	0000b537          	lui	a0,0xb
900013f6:	50450513          	addi	a0,a0,1284 # b504 <offset+0xb43c>
900013fa:	952e                	add	a0,a0,a1
900013fc:	3aa0aa23          	sw	a0,948(ra)

90001400 <inst_261>:
90001400:	ffff55b7          	lui	a1,0xffff5
90001404:	afc58593          	addi	a1,a1,-1284 # ffff4afc <_end+0x6ffefff8>
90001408:	0000b537          	lui	a0,0xb
9000140c:	50450513          	addi	a0,a0,1284 # b504 <offset+0xb43c>
90001410:	952e                	add	a0,a0,a1
90001412:	3aa0ac23          	sw	a0,952(ra)

90001416 <inst_262>:
90001416:	0000b5b7          	lui	a1,0xb
9000141a:	50458593          	addi	a1,a1,1284 # b504 <offset+0xb43c>
9000141e:	0000b537          	lui	a0,0xb
90001422:	50450513          	addi	a0,a0,1284 # b504 <offset+0xb43c>
90001426:	952e                	add	a0,a0,a1
90001428:	3aa0ae23          	sw	a0,956(ra)

9000142c <inst_263>:
9000142c:	00200593          	li	a1,2
90001430:	0000b537          	lui	a0,0xb
90001434:	50450513          	addi	a0,a0,1284 # b504 <offset+0xb43c>
90001438:	952e                	add	a0,a0,a1
9000143a:	3ca0a023          	sw	a0,960(ra)

9000143e <inst_264>:
9000143e:	555555b7          	lui	a1,0x55555
90001442:	55458593          	addi	a1,a1,1364 # 55555554 <offset+0x5555548c>
90001446:	0000b537          	lui	a0,0xb
9000144a:	50450513          	addi	a0,a0,1284 # b504 <offset+0xb43c>
9000144e:	952e                	add	a0,a0,a1
90001450:	3ca0a223          	sw	a0,964(ra)

90001454 <inst_265>:
90001454:	00000593          	li	a1,0
90001458:	0000b537          	lui	a0,0xb
9000145c:	50450513          	addi	a0,a0,1284 # b504 <offset+0xb43c>
90001460:	952e                	add	a0,a0,a1
90001462:	3ca0a423          	sw	a0,968(ra)

90001466 <inst_266>:
90001466:	00400593          	li	a1,4
9000146a:	0000b537          	lui	a0,0xb
9000146e:	50450513          	addi	a0,a0,1284 # b504 <offset+0xb43c>
90001472:	952e                	add	a0,a0,a1
90001474:	3ca0a623          	sw	a0,972(ra)

90001478 <inst_267>:
90001478:	333335b7          	lui	a1,0x33333
9000147c:	33258593          	addi	a1,a1,818 # 33333332 <offset+0x3333326a>
90001480:	0000b537          	lui	a0,0xb
90001484:	50450513          	addi	a0,a0,1284 # b504 <offset+0xb43c>
90001488:	952e                	add	a0,a0,a1
9000148a:	3ca0a823          	sw	a0,976(ra)

9000148e <inst_268>:
9000148e:	666665b7          	lui	a1,0x66666
90001492:	66558593          	addi	a1,a1,1637 # 66666665 <offset+0x6666659d>
90001496:	0000b537          	lui	a0,0xb
9000149a:	50450513          	addi	a0,a0,1284 # b504 <offset+0xb43c>
9000149e:	952e                	add	a0,a0,a1
900014a0:	3ca0aa23          	sw	a0,980(ra)

900014a4 <inst_269>:
900014a4:	0000b5b7          	lui	a1,0xb
900014a8:	50358593          	addi	a1,a1,1283 # b503 <offset+0xb43b>
900014ac:	0000b537          	lui	a0,0xb
900014b0:	50450513          	addi	a0,a0,1284 # b504 <offset+0xb43c>
900014b4:	952e                	add	a0,a0,a1
900014b6:	3ca0ac23          	sw	a0,984(ra)

900014ba <inst_270>:
900014ba:	555555b7          	lui	a1,0x55555
900014be:	55658593          	addi	a1,a1,1366 # 55555556 <offset+0x5555548e>
900014c2:	0000b537          	lui	a0,0xb
900014c6:	50450513          	addi	a0,a0,1284 # b504 <offset+0xb43c>
900014ca:	952e                	add	a0,a0,a1
900014cc:	3ca0ae23          	sw	a0,988(ra)

900014d0 <inst_271>:
900014d0:	aaaab5b7          	lui	a1,0xaaaab
900014d4:	aab58593          	addi	a1,a1,-1365 # aaaaaaab <_end+0x1aaa5fa7>
900014d8:	0000b537          	lui	a0,0xb
900014dc:	50450513          	addi	a0,a0,1284 # b504 <offset+0xb43c>
900014e0:	952e                	add	a0,a0,a1
900014e2:	3ea0a023          	sw	a0,992(ra)

900014e6 <inst_272>:
900014e6:	00600593          	li	a1,6
900014ea:	0000b537          	lui	a0,0xb
900014ee:	50450513          	addi	a0,a0,1284 # b504 <offset+0xb43c>
900014f2:	952e                	add	a0,a0,a1
900014f4:	3ea0a223          	sw	a0,996(ra)

900014f8 <inst_273>:
900014f8:	333335b7          	lui	a1,0x33333
900014fc:	33458593          	addi	a1,a1,820 # 33333334 <offset+0x3333326c>
90001500:	0000b537          	lui	a0,0xb
90001504:	50450513          	addi	a0,a0,1284 # b504 <offset+0xb43c>
90001508:	952e                	add	a0,a0,a1
9000150a:	3ea0a423          	sw	a0,1000(ra)

9000150e <inst_274>:
9000150e:	666665b7          	lui	a1,0x66666
90001512:	66758593          	addi	a1,a1,1639 # 66666667 <offset+0x6666659f>
90001516:	0000b537          	lui	a0,0xb
9000151a:	50450513          	addi	a0,a0,1284 # b504 <offset+0xb43c>
9000151e:	952e                	add	a0,a0,a1
90001520:	3ea0a623          	sw	a0,1004(ra)

90001524 <inst_275>:
90001524:	ffff55b7          	lui	a1,0xffff5
90001528:	afd58593          	addi	a1,a1,-1283 # ffff4afd <_end+0x6ffefff9>
9000152c:	0000b537          	lui	a0,0xb
90001530:	50450513          	addi	a0,a0,1284 # b504 <offset+0xb43c>
90001534:	952e                	add	a0,a0,a1
90001536:	3ea0a823          	sw	a0,1008(ra)

9000153a <inst_276>:
9000153a:	0000b5b7          	lui	a1,0xb
9000153e:	50558593          	addi	a1,a1,1285 # b505 <offset+0xb43d>
90001542:	0000b537          	lui	a0,0xb
90001546:	50450513          	addi	a0,a0,1284 # b504 <offset+0xb43c>
9000154a:	952e                	add	a0,a0,a1
9000154c:	3ea0aa23          	sw	a0,1012(ra)

90001550 <inst_277>:
90001550:	00300593          	li	a1,3
90001554:	00200513          	li	a0,2
90001558:	952e                	add	a0,a0,a1
9000155a:	3ea0ac23          	sw	a0,1016(ra)

9000155e <inst_278>:
9000155e:	555555b7          	lui	a1,0x55555
90001562:	55558593          	addi	a1,a1,1365 # 55555555 <offset+0x5555548d>
90001566:	00200513          	li	a0,2
9000156a:	952e                	add	a0,a0,a1
9000156c:	3ea0ae23          	sw	a0,1020(ra)

90001570 <inst_279>:
90001570:	aaaab5b7          	lui	a1,0xaaaab
90001574:	aaa58593          	addi	a1,a1,-1366 # aaaaaaaa <_end+0x1aaa5fa6>
90001578:	00200513          	li	a0,2
9000157c:	952e                	add	a0,a0,a1
9000157e:	40a0a023          	sw	a0,1024(ra)

90001582 <inst_280>:
90001582:	00500593          	li	a1,5
90001586:	00200513          	li	a0,2
9000158a:	952e                	add	a0,a0,a1
9000158c:	40a0a223          	sw	a0,1028(ra)

90001590 <inst_281>:
90001590:	333335b7          	lui	a1,0x33333
90001594:	33358593          	addi	a1,a1,819 # 33333333 <offset+0x3333326b>
90001598:	00200513          	li	a0,2
9000159c:	952e                	add	a0,a0,a1
9000159e:	40a0a423          	sw	a0,1032(ra)

900015a2 <inst_282>:
900015a2:	666665b7          	lui	a1,0x66666
900015a6:	66658593          	addi	a1,a1,1638 # 66666666 <offset+0x6666659e>
900015aa:	00200513          	li	a0,2
900015ae:	952e                	add	a0,a0,a1
900015b0:	40a0a623          	sw	a0,1036(ra)

900015b4 <inst_283>:
900015b4:	ffff55b7          	lui	a1,0xffff5
900015b8:	afc58593          	addi	a1,a1,-1284 # ffff4afc <_end+0x6ffefff8>
900015bc:	00200513          	li	a0,2
900015c0:	952e                	add	a0,a0,a1
900015c2:	40a0a823          	sw	a0,1040(ra)

900015c6 <inst_284>:
900015c6:	0000b5b7          	lui	a1,0xb
900015ca:	50458593          	addi	a1,a1,1284 # b504 <offset+0xb43c>
900015ce:	00200513          	li	a0,2
900015d2:	952e                	add	a0,a0,a1
900015d4:	40a0aa23          	sw	a0,1044(ra)

900015d8 <inst_285>:
900015d8:	00200593          	li	a1,2
900015dc:	00200513          	li	a0,2
900015e0:	952e                	add	a0,a0,a1
900015e2:	40a0ac23          	sw	a0,1048(ra)

900015e6 <inst_286>:
900015e6:	555555b7          	lui	a1,0x55555
900015ea:	55458593          	addi	a1,a1,1364 # 55555554 <offset+0x5555548c>
900015ee:	00200513          	li	a0,2
900015f2:	952e                	add	a0,a0,a1
900015f4:	40a0ae23          	sw	a0,1052(ra)

900015f8 <inst_287>:
900015f8:	00000593          	li	a1,0
900015fc:	00200513          	li	a0,2
90001600:	952e                	add	a0,a0,a1
90001602:	42a0a023          	sw	a0,1056(ra)

90001606 <inst_288>:
90001606:	00400593          	li	a1,4
9000160a:	00200513          	li	a0,2
9000160e:	952e                	add	a0,a0,a1
90001610:	42a0a223          	sw	a0,1060(ra)

90001614 <inst_289>:
90001614:	333335b7          	lui	a1,0x33333
90001618:	33258593          	addi	a1,a1,818 # 33333332 <offset+0x3333326a>
9000161c:	00200513          	li	a0,2
90001620:	952e                	add	a0,a0,a1
90001622:	42a0a423          	sw	a0,1064(ra)

90001626 <inst_290>:
90001626:	666665b7          	lui	a1,0x66666
9000162a:	66558593          	addi	a1,a1,1637 # 66666665 <offset+0x6666659d>
9000162e:	00200513          	li	a0,2
90001632:	952e                	add	a0,a0,a1
90001634:	42a0a623          	sw	a0,1068(ra)

90001638 <inst_291>:
90001638:	0000b5b7          	lui	a1,0xb
9000163c:	50358593          	addi	a1,a1,1283 # b503 <offset+0xb43b>
90001640:	00200513          	li	a0,2
90001644:	952e                	add	a0,a0,a1
90001646:	42a0a823          	sw	a0,1072(ra)

9000164a <inst_292>:
9000164a:	555555b7          	lui	a1,0x55555
9000164e:	55658593          	addi	a1,a1,1366 # 55555556 <offset+0x5555548e>
90001652:	00200513          	li	a0,2
90001656:	952e                	add	a0,a0,a1
90001658:	42a0aa23          	sw	a0,1076(ra)

9000165c <inst_293>:
9000165c:	aaaab5b7          	lui	a1,0xaaaab
90001660:	aab58593          	addi	a1,a1,-1365 # aaaaaaab <_end+0x1aaa5fa7>
90001664:	00200513          	li	a0,2
90001668:	952e                	add	a0,a0,a1
9000166a:	42a0ac23          	sw	a0,1080(ra)

9000166e <inst_294>:
9000166e:	00600593          	li	a1,6
90001672:	00200513          	li	a0,2
90001676:	952e                	add	a0,a0,a1
90001678:	42a0ae23          	sw	a0,1084(ra)

9000167c <inst_295>:
9000167c:	333335b7          	lui	a1,0x33333
90001680:	33458593          	addi	a1,a1,820 # 33333334 <offset+0x3333326c>
90001684:	00200513          	li	a0,2
90001688:	952e                	add	a0,a0,a1
9000168a:	44a0a023          	sw	a0,1088(ra)

9000168e <inst_296>:
9000168e:	666665b7          	lui	a1,0x66666
90001692:	66758593          	addi	a1,a1,1639 # 66666667 <offset+0x6666659f>
90001696:	00200513          	li	a0,2
9000169a:	952e                	add	a0,a0,a1
9000169c:	44a0a223          	sw	a0,1092(ra)

900016a0 <inst_297>:
900016a0:	ffff55b7          	lui	a1,0xffff5
900016a4:	afd58593          	addi	a1,a1,-1283 # ffff4afd <_end+0x6ffefff9>
900016a8:	00200513          	li	a0,2
900016ac:	952e                	add	a0,a0,a1
900016ae:	44a0a423          	sw	a0,1096(ra)

900016b2 <inst_298>:
900016b2:	0000b5b7          	lui	a1,0xb
900016b6:	50558593          	addi	a1,a1,1285 # b505 <offset+0xb43d>
900016ba:	00200513          	li	a0,2
900016be:	952e                	add	a0,a0,a1
900016c0:	44a0a623          	sw	a0,1100(ra)

900016c4 <inst_299>:
900016c4:	00300593          	li	a1,3
900016c8:	55555537          	lui	a0,0x55555
900016cc:	55450513          	addi	a0,a0,1364 # 55555554 <offset+0x5555548c>
900016d0:	952e                	add	a0,a0,a1
900016d2:	44a0a823          	sw	a0,1104(ra)

900016d6 <inst_300>:
900016d6:	555555b7          	lui	a1,0x55555
900016da:	55558593          	addi	a1,a1,1365 # 55555555 <offset+0x5555548d>
900016de:	55555537          	lui	a0,0x55555
900016e2:	55450513          	addi	a0,a0,1364 # 55555554 <offset+0x5555548c>
900016e6:	952e                	add	a0,a0,a1
900016e8:	44a0aa23          	sw	a0,1108(ra)

900016ec <inst_301>:
900016ec:	aaaab5b7          	lui	a1,0xaaaab
900016f0:	aaa58593          	addi	a1,a1,-1366 # aaaaaaaa <_end+0x1aaa5fa6>
900016f4:	55555537          	lui	a0,0x55555
900016f8:	55450513          	addi	a0,a0,1364 # 55555554 <offset+0x5555548c>
900016fc:	952e                	add	a0,a0,a1
900016fe:	44a0ac23          	sw	a0,1112(ra)

90001702 <inst_302>:
90001702:	00500593          	li	a1,5
90001706:	55555537          	lui	a0,0x55555
9000170a:	55450513          	addi	a0,a0,1364 # 55555554 <offset+0x5555548c>
9000170e:	952e                	add	a0,a0,a1
90001710:	44a0ae23          	sw	a0,1116(ra)

90001714 <inst_303>:
90001714:	333335b7          	lui	a1,0x33333
90001718:	33358593          	addi	a1,a1,819 # 33333333 <offset+0x3333326b>
9000171c:	55555537          	lui	a0,0x55555
90001720:	55450513          	addi	a0,a0,1364 # 55555554 <offset+0x5555548c>
90001724:	952e                	add	a0,a0,a1
90001726:	46a0a023          	sw	a0,1120(ra)

9000172a <inst_304>:
9000172a:	666665b7          	lui	a1,0x66666
9000172e:	66658593          	addi	a1,a1,1638 # 66666666 <offset+0x6666659e>
90001732:	55555537          	lui	a0,0x55555
90001736:	55450513          	addi	a0,a0,1364 # 55555554 <offset+0x5555548c>
9000173a:	952e                	add	a0,a0,a1
9000173c:	46a0a223          	sw	a0,1124(ra)

90001740 <inst_305>:
90001740:	ffff55b7          	lui	a1,0xffff5
90001744:	afc58593          	addi	a1,a1,-1284 # ffff4afc <_end+0x6ffefff8>
90001748:	55555537          	lui	a0,0x55555
9000174c:	55450513          	addi	a0,a0,1364 # 55555554 <offset+0x5555548c>
90001750:	952e                	add	a0,a0,a1
90001752:	46a0a423          	sw	a0,1128(ra)

90001756 <inst_306>:
90001756:	0000b5b7          	lui	a1,0xb
9000175a:	50458593          	addi	a1,a1,1284 # b504 <offset+0xb43c>
9000175e:	55555537          	lui	a0,0x55555
90001762:	55450513          	addi	a0,a0,1364 # 55555554 <offset+0x5555548c>
90001766:	952e                	add	a0,a0,a1
90001768:	46a0a623          	sw	a0,1132(ra)

9000176c <inst_307>:
9000176c:	00200593          	li	a1,2
90001770:	55555537          	lui	a0,0x55555
90001774:	55450513          	addi	a0,a0,1364 # 55555554 <offset+0x5555548c>
90001778:	952e                	add	a0,a0,a1
9000177a:	46a0a823          	sw	a0,1136(ra)

9000177e <inst_308>:
9000177e:	555555b7          	lui	a1,0x55555
90001782:	55458593          	addi	a1,a1,1364 # 55555554 <offset+0x5555548c>
90001786:	55555537          	lui	a0,0x55555
9000178a:	55450513          	addi	a0,a0,1364 # 55555554 <offset+0x5555548c>
9000178e:	952e                	add	a0,a0,a1
90001790:	46a0aa23          	sw	a0,1140(ra)

90001794 <inst_309>:
90001794:	00000593          	li	a1,0
90001798:	55555537          	lui	a0,0x55555
9000179c:	55450513          	addi	a0,a0,1364 # 55555554 <offset+0x5555548c>
900017a0:	952e                	add	a0,a0,a1
900017a2:	46a0ac23          	sw	a0,1144(ra)

900017a6 <inst_310>:
900017a6:	00400593          	li	a1,4
900017aa:	55555537          	lui	a0,0x55555
900017ae:	55450513          	addi	a0,a0,1364 # 55555554 <offset+0x5555548c>
900017b2:	952e                	add	a0,a0,a1
900017b4:	46a0ae23          	sw	a0,1148(ra)

900017b8 <inst_311>:
900017b8:	333335b7          	lui	a1,0x33333
900017bc:	33258593          	addi	a1,a1,818 # 33333332 <offset+0x3333326a>
900017c0:	55555537          	lui	a0,0x55555
900017c4:	55450513          	addi	a0,a0,1364 # 55555554 <offset+0x5555548c>
900017c8:	952e                	add	a0,a0,a1
900017ca:	48a0a023          	sw	a0,1152(ra)

900017ce <inst_312>:
900017ce:	666665b7          	lui	a1,0x66666
900017d2:	66558593          	addi	a1,a1,1637 # 66666665 <offset+0x6666659d>
900017d6:	55555537          	lui	a0,0x55555
900017da:	55450513          	addi	a0,a0,1364 # 55555554 <offset+0x5555548c>
900017de:	952e                	add	a0,a0,a1
900017e0:	48a0a223          	sw	a0,1156(ra)

900017e4 <inst_313>:
900017e4:	0000b5b7          	lui	a1,0xb
900017e8:	50358593          	addi	a1,a1,1283 # b503 <offset+0xb43b>
900017ec:	55555537          	lui	a0,0x55555
900017f0:	55450513          	addi	a0,a0,1364 # 55555554 <offset+0x5555548c>
900017f4:	952e                	add	a0,a0,a1
900017f6:	48a0a423          	sw	a0,1160(ra)

900017fa <inst_314>:
900017fa:	555555b7          	lui	a1,0x55555
900017fe:	55658593          	addi	a1,a1,1366 # 55555556 <offset+0x5555548e>
90001802:	55555537          	lui	a0,0x55555
90001806:	55450513          	addi	a0,a0,1364 # 55555554 <offset+0x5555548c>
9000180a:	952e                	add	a0,a0,a1
9000180c:	48a0a623          	sw	a0,1164(ra)

90001810 <inst_315>:
90001810:	aaaab5b7          	lui	a1,0xaaaab
90001814:	aab58593          	addi	a1,a1,-1365 # aaaaaaab <_end+0x1aaa5fa7>
90001818:	55555537          	lui	a0,0x55555
9000181c:	55450513          	addi	a0,a0,1364 # 55555554 <offset+0x5555548c>
90001820:	952e                	add	a0,a0,a1
90001822:	48a0a823          	sw	a0,1168(ra)

90001826 <inst_316>:
90001826:	00600593          	li	a1,6
9000182a:	55555537          	lui	a0,0x55555
9000182e:	55450513          	addi	a0,a0,1364 # 55555554 <offset+0x5555548c>
90001832:	952e                	add	a0,a0,a1
90001834:	48a0aa23          	sw	a0,1172(ra)

90001838 <inst_317>:
90001838:	333335b7          	lui	a1,0x33333
9000183c:	33458593          	addi	a1,a1,820 # 33333334 <offset+0x3333326c>
90001840:	55555537          	lui	a0,0x55555
90001844:	55450513          	addi	a0,a0,1364 # 55555554 <offset+0x5555548c>
90001848:	952e                	add	a0,a0,a1
9000184a:	48a0ac23          	sw	a0,1176(ra)

9000184e <inst_318>:
9000184e:	666665b7          	lui	a1,0x66666
90001852:	66758593          	addi	a1,a1,1639 # 66666667 <offset+0x6666659f>
90001856:	55555537          	lui	a0,0x55555
9000185a:	55450513          	addi	a0,a0,1364 # 55555554 <offset+0x5555548c>
9000185e:	952e                	add	a0,a0,a1
90001860:	48a0ae23          	sw	a0,1180(ra)

90001864 <inst_319>:
90001864:	ffff55b7          	lui	a1,0xffff5
90001868:	afd58593          	addi	a1,a1,-1283 # ffff4afd <_end+0x6ffefff9>
9000186c:	55555537          	lui	a0,0x55555
90001870:	55450513          	addi	a0,a0,1364 # 55555554 <offset+0x5555548c>
90001874:	952e                	add	a0,a0,a1
90001876:	4aa0a023          	sw	a0,1184(ra)

9000187a <inst_320>:
9000187a:	0000b5b7          	lui	a1,0xb
9000187e:	50558593          	addi	a1,a1,1285 # b505 <offset+0xb43d>
90001882:	55555537          	lui	a0,0x55555
90001886:	55450513          	addi	a0,a0,1364 # 55555554 <offset+0x5555548c>
9000188a:	952e                	add	a0,a0,a1
9000188c:	4aa0a223          	sw	a0,1188(ra)

90001890 <inst_321>:
90001890:	00300593          	li	a1,3
90001894:	00000513          	li	a0,0
90001898:	952e                	add	a0,a0,a1
9000189a:	4aa0a423          	sw	a0,1192(ra)

9000189e <inst_322>:
9000189e:	555555b7          	lui	a1,0x55555
900018a2:	55558593          	addi	a1,a1,1365 # 55555555 <offset+0x5555548d>
900018a6:	00000513          	li	a0,0
900018aa:	952e                	add	a0,a0,a1
900018ac:	4aa0a623          	sw	a0,1196(ra)

900018b0 <inst_323>:
900018b0:	aaaab5b7          	lui	a1,0xaaaab
900018b4:	aaa58593          	addi	a1,a1,-1366 # aaaaaaaa <_end+0x1aaa5fa6>
900018b8:	00000513          	li	a0,0
900018bc:	952e                	add	a0,a0,a1
900018be:	4aa0a823          	sw	a0,1200(ra)

900018c2 <inst_324>:
900018c2:	00500593          	li	a1,5
900018c6:	00000513          	li	a0,0
900018ca:	952e                	add	a0,a0,a1
900018cc:	4aa0aa23          	sw	a0,1204(ra)

900018d0 <inst_325>:
900018d0:	333335b7          	lui	a1,0x33333
900018d4:	33358593          	addi	a1,a1,819 # 33333333 <offset+0x3333326b>
900018d8:	00000513          	li	a0,0
900018dc:	952e                	add	a0,a0,a1
900018de:	4aa0ac23          	sw	a0,1208(ra)

900018e2 <inst_326>:
900018e2:	666665b7          	lui	a1,0x66666
900018e6:	66658593          	addi	a1,a1,1638 # 66666666 <offset+0x6666659e>
900018ea:	00000513          	li	a0,0
900018ee:	952e                	add	a0,a0,a1
900018f0:	4aa0ae23          	sw	a0,1212(ra)

900018f4 <inst_327>:
900018f4:	ffff55b7          	lui	a1,0xffff5
900018f8:	afc58593          	addi	a1,a1,-1284 # ffff4afc <_end+0x6ffefff8>
900018fc:	00000513          	li	a0,0
90001900:	952e                	add	a0,a0,a1
90001902:	4ca0a023          	sw	a0,1216(ra)

90001906 <inst_328>:
90001906:	0000b5b7          	lui	a1,0xb
9000190a:	50458593          	addi	a1,a1,1284 # b504 <offset+0xb43c>
9000190e:	00000513          	li	a0,0
90001912:	952e                	add	a0,a0,a1
90001914:	4ca0a223          	sw	a0,1220(ra)

90001918 <inst_329>:
90001918:	00200593          	li	a1,2
9000191c:	00000513          	li	a0,0
90001920:	952e                	add	a0,a0,a1
90001922:	4ca0a423          	sw	a0,1224(ra)

90001926 <inst_330>:
90001926:	ffff55b7          	lui	a1,0xffff5
9000192a:	afd58593          	addi	a1,a1,-1283 # ffff4afd <_end+0x6ffefff9>
9000192e:	aaaab537          	lui	a0,0xaaaab
90001932:	aab50513          	addi	a0,a0,-1365 # aaaaaaab <_end+0x1aaa5fa7>
90001936:	952e                	add	a0,a0,a1
90001938:	4ca0a623          	sw	a0,1228(ra)

9000193c <inst_331>:
9000193c:	0000b5b7          	lui	a1,0xb
90001940:	50558593          	addi	a1,a1,1285 # b505 <offset+0xb43d>
90001944:	aaaab537          	lui	a0,0xaaaab
90001948:	aab50513          	addi	a0,a0,-1365 # aaaaaaab <_end+0x1aaa5fa7>
9000194c:	952e                	add	a0,a0,a1
9000194e:	4ca0a823          	sw	a0,1232(ra)

90001952 <inst_332>:
90001952:	00300593          	li	a1,3
90001956:	00600513          	li	a0,6
9000195a:	952e                	add	a0,a0,a1
9000195c:	4ca0aa23          	sw	a0,1236(ra)

90001960 <inst_333>:
90001960:	555555b7          	lui	a1,0x55555
90001964:	55558593          	addi	a1,a1,1365 # 55555555 <offset+0x5555548d>
90001968:	00600513          	li	a0,6
9000196c:	952e                	add	a0,a0,a1
9000196e:	4ca0ac23          	sw	a0,1240(ra)

90001972 <inst_334>:
90001972:	aaaab5b7          	lui	a1,0xaaaab
90001976:	aaa58593          	addi	a1,a1,-1366 # aaaaaaaa <_end+0x1aaa5fa6>
9000197a:	00600513          	li	a0,6
9000197e:	952e                	add	a0,a0,a1
90001980:	4ca0ae23          	sw	a0,1244(ra)

90001984 <inst_335>:
90001984:	00500593          	li	a1,5
90001988:	00600513          	li	a0,6
9000198c:	952e                	add	a0,a0,a1
9000198e:	4ea0a023          	sw	a0,1248(ra)

90001992 <inst_336>:
90001992:	333335b7          	lui	a1,0x33333
90001996:	33358593          	addi	a1,a1,819 # 33333333 <offset+0x3333326b>
9000199a:	00600513          	li	a0,6
9000199e:	952e                	add	a0,a0,a1
900019a0:	4ea0a223          	sw	a0,1252(ra)

900019a4 <inst_337>:
900019a4:	666665b7          	lui	a1,0x66666
900019a8:	66658593          	addi	a1,a1,1638 # 66666666 <offset+0x6666659e>
900019ac:	00600513          	li	a0,6
900019b0:	952e                	add	a0,a0,a1
900019b2:	4ea0a423          	sw	a0,1256(ra)

900019b6 <inst_338>:
900019b6:	ffff55b7          	lui	a1,0xffff5
900019ba:	afc58593          	addi	a1,a1,-1284 # ffff4afc <_end+0x6ffefff8>
900019be:	00600513          	li	a0,6
900019c2:	952e                	add	a0,a0,a1
900019c4:	4ea0a623          	sw	a0,1260(ra)

900019c8 <inst_339>:
900019c8:	0000b5b7          	lui	a1,0xb
900019cc:	50458593          	addi	a1,a1,1284 # b504 <offset+0xb43c>
900019d0:	00600513          	li	a0,6
900019d4:	952e                	add	a0,a0,a1
900019d6:	4ea0a823          	sw	a0,1264(ra)

900019da <inst_340>:
900019da:	00200593          	li	a1,2
900019de:	00600513          	li	a0,6
900019e2:	952e                	add	a0,a0,a1
900019e4:	4ea0aa23          	sw	a0,1268(ra)

900019e8 <inst_341>:
900019e8:	555555b7          	lui	a1,0x55555
900019ec:	55458593          	addi	a1,a1,1364 # 55555554 <offset+0x5555548c>
900019f0:	00600513          	li	a0,6
900019f4:	952e                	add	a0,a0,a1
900019f6:	4ea0ac23          	sw	a0,1272(ra)

900019fa <inst_342>:
900019fa:	00000593          	li	a1,0
900019fe:	00600513          	li	a0,6
90001a02:	952e                	add	a0,a0,a1
90001a04:	4ea0ae23          	sw	a0,1276(ra)

90001a08 <inst_343>:
90001a08:	00400593          	li	a1,4
90001a0c:	00600513          	li	a0,6
90001a10:	952e                	add	a0,a0,a1
90001a12:	50a0a023          	sw	a0,1280(ra)

90001a16 <inst_344>:
90001a16:	333335b7          	lui	a1,0x33333
90001a1a:	33258593          	addi	a1,a1,818 # 33333332 <offset+0x3333326a>
90001a1e:	00600513          	li	a0,6
90001a22:	952e                	add	a0,a0,a1
90001a24:	50a0a223          	sw	a0,1284(ra)

90001a28 <inst_345>:
90001a28:	666665b7          	lui	a1,0x66666
90001a2c:	66558593          	addi	a1,a1,1637 # 66666665 <offset+0x6666659d>
90001a30:	00600513          	li	a0,6
90001a34:	952e                	add	a0,a0,a1
90001a36:	50a0a423          	sw	a0,1288(ra)

90001a3a <inst_346>:
90001a3a:	0000b5b7          	lui	a1,0xb
90001a3e:	50358593          	addi	a1,a1,1283 # b503 <offset+0xb43b>
90001a42:	00600513          	li	a0,6
90001a46:	952e                	add	a0,a0,a1
90001a48:	50a0a623          	sw	a0,1292(ra)

90001a4c <inst_347>:
90001a4c:	555555b7          	lui	a1,0x55555
90001a50:	55658593          	addi	a1,a1,1366 # 55555556 <offset+0x5555548e>
90001a54:	00600513          	li	a0,6
90001a58:	952e                	add	a0,a0,a1
90001a5a:	50a0a823          	sw	a0,1296(ra)

90001a5e <inst_348>:
90001a5e:	aaaab5b7          	lui	a1,0xaaaab
90001a62:	aab58593          	addi	a1,a1,-1365 # aaaaaaab <_end+0x1aaa5fa7>
90001a66:	00600513          	li	a0,6
90001a6a:	952e                	add	a0,a0,a1
90001a6c:	50a0aa23          	sw	a0,1300(ra)

90001a70 <inst_349>:
90001a70:	00600593          	li	a1,6
90001a74:	00600513          	li	a0,6
90001a78:	952e                	add	a0,a0,a1
90001a7a:	50a0ac23          	sw	a0,1304(ra)

90001a7e <inst_350>:
90001a7e:	333335b7          	lui	a1,0x33333
90001a82:	33458593          	addi	a1,a1,820 # 33333334 <offset+0x3333326c>
90001a86:	00600513          	li	a0,6
90001a8a:	952e                	add	a0,a0,a1
90001a8c:	50a0ae23          	sw	a0,1308(ra)

90001a90 <inst_351>:
90001a90:	666665b7          	lui	a1,0x66666
90001a94:	66758593          	addi	a1,a1,1639 # 66666667 <offset+0x6666659f>
90001a98:	00600513          	li	a0,6
90001a9c:	952e                	add	a0,a0,a1
90001a9e:	52a0a023          	sw	a0,1312(ra)

90001aa2 <inst_352>:
90001aa2:	ffff55b7          	lui	a1,0xffff5
90001aa6:	afd58593          	addi	a1,a1,-1283 # ffff4afd <_end+0x6ffefff9>
90001aaa:	00600513          	li	a0,6
90001aae:	952e                	add	a0,a0,a1
90001ab0:	52a0a223          	sw	a0,1316(ra)

90001ab4 <inst_353>:
90001ab4:	0000b5b7          	lui	a1,0xb
90001ab8:	50558593          	addi	a1,a1,1285 # b505 <offset+0xb43d>
90001abc:	00600513          	li	a0,6
90001ac0:	952e                	add	a0,a0,a1
90001ac2:	52a0a423          	sw	a0,1320(ra)

90001ac6 <inst_354>:
90001ac6:	00300593          	li	a1,3
90001aca:	33333537          	lui	a0,0x33333
90001ace:	33450513          	addi	a0,a0,820 # 33333334 <offset+0x3333326c>
90001ad2:	952e                	add	a0,a0,a1
90001ad4:	52a0a623          	sw	a0,1324(ra)

90001ad8 <inst_355>:
90001ad8:	555555b7          	lui	a1,0x55555
90001adc:	55558593          	addi	a1,a1,1365 # 55555555 <offset+0x5555548d>
90001ae0:	33333537          	lui	a0,0x33333
90001ae4:	33450513          	addi	a0,a0,820 # 33333334 <offset+0x3333326c>
90001ae8:	952e                	add	a0,a0,a1
90001aea:	52a0a823          	sw	a0,1328(ra)

90001aee <inst_356>:
90001aee:	aaaab5b7          	lui	a1,0xaaaab
90001af2:	aaa58593          	addi	a1,a1,-1366 # aaaaaaaa <_end+0x1aaa5fa6>
90001af6:	33333537          	lui	a0,0x33333
90001afa:	33450513          	addi	a0,a0,820 # 33333334 <offset+0x3333326c>
90001afe:	952e                	add	a0,a0,a1
90001b00:	52a0aa23          	sw	a0,1332(ra)

90001b04 <inst_357>:
90001b04:	00500593          	li	a1,5
90001b08:	33333537          	lui	a0,0x33333
90001b0c:	33450513          	addi	a0,a0,820 # 33333334 <offset+0x3333326c>
90001b10:	952e                	add	a0,a0,a1
90001b12:	52a0ac23          	sw	a0,1336(ra)

90001b16 <inst_358>:
90001b16:	333335b7          	lui	a1,0x33333
90001b1a:	33358593          	addi	a1,a1,819 # 33333333 <offset+0x3333326b>
90001b1e:	33333537          	lui	a0,0x33333
90001b22:	33450513          	addi	a0,a0,820 # 33333334 <offset+0x3333326c>
90001b26:	952e                	add	a0,a0,a1
90001b28:	52a0ae23          	sw	a0,1340(ra)

90001b2c <inst_359>:
90001b2c:	666665b7          	lui	a1,0x66666
90001b30:	66658593          	addi	a1,a1,1638 # 66666666 <offset+0x6666659e>
90001b34:	33333537          	lui	a0,0x33333
90001b38:	33450513          	addi	a0,a0,820 # 33333334 <offset+0x3333326c>
90001b3c:	952e                	add	a0,a0,a1
90001b3e:	54a0a023          	sw	a0,1344(ra)

90001b42 <inst_360>:
90001b42:	ffff55b7          	lui	a1,0xffff5
90001b46:	afc58593          	addi	a1,a1,-1284 # ffff4afc <_end+0x6ffefff8>
90001b4a:	33333537          	lui	a0,0x33333
90001b4e:	33450513          	addi	a0,a0,820 # 33333334 <offset+0x3333326c>
90001b52:	952e                	add	a0,a0,a1
90001b54:	54a0a223          	sw	a0,1348(ra)

90001b58 <inst_361>:
90001b58:	0000b5b7          	lui	a1,0xb
90001b5c:	50458593          	addi	a1,a1,1284 # b504 <offset+0xb43c>
90001b60:	33333537          	lui	a0,0x33333
90001b64:	33450513          	addi	a0,a0,820 # 33333334 <offset+0x3333326c>
90001b68:	952e                	add	a0,a0,a1
90001b6a:	54a0a423          	sw	a0,1352(ra)

90001b6e <inst_362>:
90001b6e:	00200593          	li	a1,2
90001b72:	33333537          	lui	a0,0x33333
90001b76:	33450513          	addi	a0,a0,820 # 33333334 <offset+0x3333326c>
90001b7a:	952e                	add	a0,a0,a1
90001b7c:	54a0a623          	sw	a0,1356(ra)

90001b80 <inst_363>:
90001b80:	555555b7          	lui	a1,0x55555
90001b84:	55458593          	addi	a1,a1,1364 # 55555554 <offset+0x5555548c>
90001b88:	33333537          	lui	a0,0x33333
90001b8c:	33450513          	addi	a0,a0,820 # 33333334 <offset+0x3333326c>
90001b90:	952e                	add	a0,a0,a1
90001b92:	54a0a823          	sw	a0,1360(ra)

90001b96 <inst_364>:
90001b96:	00000593          	li	a1,0
90001b9a:	33333537          	lui	a0,0x33333
90001b9e:	33450513          	addi	a0,a0,820 # 33333334 <offset+0x3333326c>
90001ba2:	952e                	add	a0,a0,a1
90001ba4:	54a0aa23          	sw	a0,1364(ra)

90001ba8 <inst_365>:
90001ba8:	00400593          	li	a1,4
90001bac:	33333537          	lui	a0,0x33333
90001bb0:	33450513          	addi	a0,a0,820 # 33333334 <offset+0x3333326c>
90001bb4:	952e                	add	a0,a0,a1
90001bb6:	54a0ac23          	sw	a0,1368(ra)

90001bba <inst_366>:
90001bba:	333335b7          	lui	a1,0x33333
90001bbe:	33258593          	addi	a1,a1,818 # 33333332 <offset+0x3333326a>
90001bc2:	33333537          	lui	a0,0x33333
90001bc6:	33450513          	addi	a0,a0,820 # 33333334 <offset+0x3333326c>
90001bca:	952e                	add	a0,a0,a1
90001bcc:	54a0ae23          	sw	a0,1372(ra)

90001bd0 <inst_367>:
90001bd0:	666665b7          	lui	a1,0x66666
90001bd4:	66558593          	addi	a1,a1,1637 # 66666665 <offset+0x6666659d>
90001bd8:	33333537          	lui	a0,0x33333
90001bdc:	33450513          	addi	a0,a0,820 # 33333334 <offset+0x3333326c>
90001be0:	952e                	add	a0,a0,a1
90001be2:	56a0a023          	sw	a0,1376(ra)

90001be6 <inst_368>:
90001be6:	0000b5b7          	lui	a1,0xb
90001bea:	50358593          	addi	a1,a1,1283 # b503 <offset+0xb43b>
90001bee:	33333537          	lui	a0,0x33333
90001bf2:	33450513          	addi	a0,a0,820 # 33333334 <offset+0x3333326c>
90001bf6:	952e                	add	a0,a0,a1
90001bf8:	56a0a223          	sw	a0,1380(ra)

90001bfc <inst_369>:
90001bfc:	555555b7          	lui	a1,0x55555
90001c00:	55658593          	addi	a1,a1,1366 # 55555556 <offset+0x5555548e>
90001c04:	33333537          	lui	a0,0x33333
90001c08:	33450513          	addi	a0,a0,820 # 33333334 <offset+0x3333326c>
90001c0c:	952e                	add	a0,a0,a1
90001c0e:	56a0a423          	sw	a0,1384(ra)

90001c12 <inst_370>:
90001c12:	aaaab5b7          	lui	a1,0xaaaab
90001c16:	aab58593          	addi	a1,a1,-1365 # aaaaaaab <_end+0x1aaa5fa7>
90001c1a:	33333537          	lui	a0,0x33333
90001c1e:	33450513          	addi	a0,a0,820 # 33333334 <offset+0x3333326c>
90001c22:	952e                	add	a0,a0,a1
90001c24:	56a0a623          	sw	a0,1388(ra)

90001c28 <inst_371>:
90001c28:	00600593          	li	a1,6
90001c2c:	33333537          	lui	a0,0x33333
90001c30:	33450513          	addi	a0,a0,820 # 33333334 <offset+0x3333326c>
90001c34:	952e                	add	a0,a0,a1
90001c36:	56a0a823          	sw	a0,1392(ra)

90001c3a <inst_372>:
90001c3a:	333335b7          	lui	a1,0x33333
90001c3e:	33458593          	addi	a1,a1,820 # 33333334 <offset+0x3333326c>
90001c42:	33333537          	lui	a0,0x33333
90001c46:	33450513          	addi	a0,a0,820 # 33333334 <offset+0x3333326c>
90001c4a:	952e                	add	a0,a0,a1
90001c4c:	56a0aa23          	sw	a0,1396(ra)

90001c50 <inst_373>:
90001c50:	666665b7          	lui	a1,0x66666
90001c54:	66758593          	addi	a1,a1,1639 # 66666667 <offset+0x6666659f>
90001c58:	33333537          	lui	a0,0x33333
90001c5c:	33450513          	addi	a0,a0,820 # 33333334 <offset+0x3333326c>
90001c60:	952e                	add	a0,a0,a1
90001c62:	56a0ac23          	sw	a0,1400(ra)

90001c66 <inst_374>:
90001c66:	ffff55b7          	lui	a1,0xffff5
90001c6a:	afd58593          	addi	a1,a1,-1283 # ffff4afd <_end+0x6ffefff9>
90001c6e:	33333537          	lui	a0,0x33333
90001c72:	33450513          	addi	a0,a0,820 # 33333334 <offset+0x3333326c>
90001c76:	952e                	add	a0,a0,a1
90001c78:	56a0ae23          	sw	a0,1404(ra)

90001c7c <inst_375>:
90001c7c:	0000b5b7          	lui	a1,0xb
90001c80:	50558593          	addi	a1,a1,1285 # b505 <offset+0xb43d>
90001c84:	33333537          	lui	a0,0x33333
90001c88:	33450513          	addi	a0,a0,820 # 33333334 <offset+0x3333326c>
90001c8c:	952e                	add	a0,a0,a1
90001c8e:	58a0a023          	sw	a0,1408(ra)

90001c92 <inst_376>:
90001c92:	00300593          	li	a1,3
90001c96:	66666537          	lui	a0,0x66666
90001c9a:	66750513          	addi	a0,a0,1639 # 66666667 <offset+0x6666659f>
90001c9e:	952e                	add	a0,a0,a1
90001ca0:	58a0a223          	sw	a0,1412(ra)

90001ca4 <inst_377>:
90001ca4:	555555b7          	lui	a1,0x55555
90001ca8:	55558593          	addi	a1,a1,1365 # 55555555 <offset+0x5555548d>
90001cac:	66666537          	lui	a0,0x66666
90001cb0:	66750513          	addi	a0,a0,1639 # 66666667 <offset+0x6666659f>
90001cb4:	952e                	add	a0,a0,a1
90001cb6:	58a0a423          	sw	a0,1416(ra)

90001cba <inst_378>:
90001cba:	aaaab5b7          	lui	a1,0xaaaab
90001cbe:	aaa58593          	addi	a1,a1,-1366 # aaaaaaaa <_end+0x1aaa5fa6>
90001cc2:	66666537          	lui	a0,0x66666
90001cc6:	66750513          	addi	a0,a0,1639 # 66666667 <offset+0x6666659f>
90001cca:	952e                	add	a0,a0,a1
90001ccc:	58a0a623          	sw	a0,1420(ra)

90001cd0 <inst_379>:
90001cd0:	00500593          	li	a1,5
90001cd4:	66666537          	lui	a0,0x66666
90001cd8:	66750513          	addi	a0,a0,1639 # 66666667 <offset+0x6666659f>
90001cdc:	952e                	add	a0,a0,a1
90001cde:	58a0a823          	sw	a0,1424(ra)

90001ce2 <inst_380>:
90001ce2:	333335b7          	lui	a1,0x33333
90001ce6:	33358593          	addi	a1,a1,819 # 33333333 <offset+0x3333326b>
90001cea:	66666537          	lui	a0,0x66666
90001cee:	66750513          	addi	a0,a0,1639 # 66666667 <offset+0x6666659f>
90001cf2:	952e                	add	a0,a0,a1
90001cf4:	58a0aa23          	sw	a0,1428(ra)

90001cf8 <inst_381>:
90001cf8:	666665b7          	lui	a1,0x66666
90001cfc:	66658593          	addi	a1,a1,1638 # 66666666 <offset+0x6666659e>
90001d00:	66666537          	lui	a0,0x66666
90001d04:	66750513          	addi	a0,a0,1639 # 66666667 <offset+0x6666659f>
90001d08:	952e                	add	a0,a0,a1
90001d0a:	58a0ac23          	sw	a0,1432(ra)

90001d0e <inst_382>:
90001d0e:	ffff55b7          	lui	a1,0xffff5
90001d12:	afc58593          	addi	a1,a1,-1284 # ffff4afc <_end+0x6ffefff8>
90001d16:	66666537          	lui	a0,0x66666
90001d1a:	66750513          	addi	a0,a0,1639 # 66666667 <offset+0x6666659f>
90001d1e:	952e                	add	a0,a0,a1
90001d20:	58a0ae23          	sw	a0,1436(ra)

90001d24 <inst_383>:
90001d24:	0000b5b7          	lui	a1,0xb
90001d28:	50458593          	addi	a1,a1,1284 # b504 <offset+0xb43c>
90001d2c:	66666537          	lui	a0,0x66666
90001d30:	66750513          	addi	a0,a0,1639 # 66666667 <offset+0x6666659f>
90001d34:	952e                	add	a0,a0,a1
90001d36:	5aa0a023          	sw	a0,1440(ra)

90001d3a <inst_384>:
90001d3a:	00200593          	li	a1,2
90001d3e:	66666537          	lui	a0,0x66666
90001d42:	66750513          	addi	a0,a0,1639 # 66666667 <offset+0x6666659f>
90001d46:	952e                	add	a0,a0,a1
90001d48:	5aa0a223          	sw	a0,1444(ra)

90001d4c <inst_385>:
90001d4c:	555555b7          	lui	a1,0x55555
90001d50:	55458593          	addi	a1,a1,1364 # 55555554 <offset+0x5555548c>
90001d54:	66666537          	lui	a0,0x66666
90001d58:	66750513          	addi	a0,a0,1639 # 66666667 <offset+0x6666659f>
90001d5c:	952e                	add	a0,a0,a1
90001d5e:	5aa0a423          	sw	a0,1448(ra)

90001d62 <inst_386>:
90001d62:	00000593          	li	a1,0
90001d66:	66666537          	lui	a0,0x66666
90001d6a:	66750513          	addi	a0,a0,1639 # 66666667 <offset+0x6666659f>
90001d6e:	952e                	add	a0,a0,a1
90001d70:	5aa0a623          	sw	a0,1452(ra)

90001d74 <inst_387>:
90001d74:	00400593          	li	a1,4
90001d78:	66666537          	lui	a0,0x66666
90001d7c:	66750513          	addi	a0,a0,1639 # 66666667 <offset+0x6666659f>
90001d80:	952e                	add	a0,a0,a1
90001d82:	5aa0a823          	sw	a0,1456(ra)

90001d86 <inst_388>:
90001d86:	333335b7          	lui	a1,0x33333
90001d8a:	33258593          	addi	a1,a1,818 # 33333332 <offset+0x3333326a>
90001d8e:	66666537          	lui	a0,0x66666
90001d92:	66750513          	addi	a0,a0,1639 # 66666667 <offset+0x6666659f>
90001d96:	952e                	add	a0,a0,a1
90001d98:	5aa0aa23          	sw	a0,1460(ra)

90001d9c <inst_389>:
90001d9c:	666665b7          	lui	a1,0x66666
90001da0:	66558593          	addi	a1,a1,1637 # 66666665 <offset+0x6666659d>
90001da4:	66666537          	lui	a0,0x66666
90001da8:	66750513          	addi	a0,a0,1639 # 66666667 <offset+0x6666659f>
90001dac:	952e                	add	a0,a0,a1
90001dae:	5aa0ac23          	sw	a0,1464(ra)

90001db2 <inst_390>:
90001db2:	0000b5b7          	lui	a1,0xb
90001db6:	50358593          	addi	a1,a1,1283 # b503 <offset+0xb43b>
90001dba:	66666537          	lui	a0,0x66666
90001dbe:	66750513          	addi	a0,a0,1639 # 66666667 <offset+0x6666659f>
90001dc2:	952e                	add	a0,a0,a1
90001dc4:	5aa0ae23          	sw	a0,1468(ra)

90001dc8 <inst_391>:
90001dc8:	555555b7          	lui	a1,0x55555
90001dcc:	55658593          	addi	a1,a1,1366 # 55555556 <offset+0x5555548e>
90001dd0:	66666537          	lui	a0,0x66666
90001dd4:	66750513          	addi	a0,a0,1639 # 66666667 <offset+0x6666659f>
90001dd8:	952e                	add	a0,a0,a1
90001dda:	5ca0a023          	sw	a0,1472(ra)

90001dde <inst_392>:
90001dde:	aaaab5b7          	lui	a1,0xaaaab
90001de2:	aab58593          	addi	a1,a1,-1365 # aaaaaaab <_end+0x1aaa5fa7>
90001de6:	66666537          	lui	a0,0x66666
90001dea:	66750513          	addi	a0,a0,1639 # 66666667 <offset+0x6666659f>
90001dee:	952e                	add	a0,a0,a1
90001df0:	5ca0a223          	sw	a0,1476(ra)

90001df4 <inst_393>:
90001df4:	00600593          	li	a1,6
90001df8:	66666537          	lui	a0,0x66666
90001dfc:	66750513          	addi	a0,a0,1639 # 66666667 <offset+0x6666659f>
90001e00:	952e                	add	a0,a0,a1
90001e02:	5ca0a423          	sw	a0,1480(ra)

90001e06 <inst_394>:
90001e06:	333335b7          	lui	a1,0x33333
90001e0a:	33458593          	addi	a1,a1,820 # 33333334 <offset+0x3333326c>
90001e0e:	66666537          	lui	a0,0x66666
90001e12:	66750513          	addi	a0,a0,1639 # 66666667 <offset+0x6666659f>
90001e16:	952e                	add	a0,a0,a1
90001e18:	5ca0a623          	sw	a0,1484(ra)

90001e1c <inst_395>:
90001e1c:	666665b7          	lui	a1,0x66666
90001e20:	66758593          	addi	a1,a1,1639 # 66666667 <offset+0x6666659f>
90001e24:	66666537          	lui	a0,0x66666
90001e28:	66750513          	addi	a0,a0,1639 # 66666667 <offset+0x6666659f>
90001e2c:	952e                	add	a0,a0,a1
90001e2e:	5ca0a823          	sw	a0,1488(ra)

90001e32 <inst_396>:
90001e32:	ffff55b7          	lui	a1,0xffff5
90001e36:	afd58593          	addi	a1,a1,-1283 # ffff4afd <_end+0x6ffefff9>
90001e3a:	66666537          	lui	a0,0x66666
90001e3e:	66750513          	addi	a0,a0,1639 # 66666667 <offset+0x6666659f>
90001e42:	952e                	add	a0,a0,a1
90001e44:	5ca0aa23          	sw	a0,1492(ra)

90001e48 <inst_397>:
90001e48:	0000b5b7          	lui	a1,0xb
90001e4c:	50558593          	addi	a1,a1,1285 # b505 <offset+0xb43d>
90001e50:	66666537          	lui	a0,0x66666
90001e54:	66750513          	addi	a0,a0,1639 # 66666667 <offset+0x6666659f>
90001e58:	952e                	add	a0,a0,a1
90001e5a:	5ca0ac23          	sw	a0,1496(ra)

90001e5e <inst_398>:
90001e5e:	00300593          	li	a1,3
90001e62:	ffff5537          	lui	a0,0xffff5
90001e66:	afd50513          	addi	a0,a0,-1283 # ffff4afd <_end+0x6ffefff9>
90001e6a:	952e                	add	a0,a0,a1
90001e6c:	5ca0ae23          	sw	a0,1500(ra)

90001e70 <inst_399>:
90001e70:	555555b7          	lui	a1,0x55555
90001e74:	55558593          	addi	a1,a1,1365 # 55555555 <offset+0x5555548d>
90001e78:	ffff5537          	lui	a0,0xffff5
90001e7c:	afd50513          	addi	a0,a0,-1283 # ffff4afd <_end+0x6ffefff9>
90001e80:	952e                	add	a0,a0,a1
90001e82:	5ea0a023          	sw	a0,1504(ra)

90001e86 <inst_400>:
90001e86:	aaaab5b7          	lui	a1,0xaaaab
90001e8a:	aaa58593          	addi	a1,a1,-1366 # aaaaaaaa <_end+0x1aaa5fa6>
90001e8e:	ffff5537          	lui	a0,0xffff5
90001e92:	afd50513          	addi	a0,a0,-1283 # ffff4afd <_end+0x6ffefff9>
90001e96:	952e                	add	a0,a0,a1
90001e98:	5ea0a223          	sw	a0,1508(ra)

90001e9c <inst_401>:
90001e9c:	00500593          	li	a1,5
90001ea0:	ffff5537          	lui	a0,0xffff5
90001ea4:	afd50513          	addi	a0,a0,-1283 # ffff4afd <_end+0x6ffefff9>
90001ea8:	952e                	add	a0,a0,a1
90001eaa:	5ea0a423          	sw	a0,1512(ra)

90001eae <inst_402>:
90001eae:	333335b7          	lui	a1,0x33333
90001eb2:	33358593          	addi	a1,a1,819 # 33333333 <offset+0x3333326b>
90001eb6:	ffff5537          	lui	a0,0xffff5
90001eba:	afd50513          	addi	a0,a0,-1283 # ffff4afd <_end+0x6ffefff9>
90001ebe:	952e                	add	a0,a0,a1
90001ec0:	5ea0a623          	sw	a0,1516(ra)

90001ec4 <inst_403>:
90001ec4:	666665b7          	lui	a1,0x66666
90001ec8:	66658593          	addi	a1,a1,1638 # 66666666 <offset+0x6666659e>
90001ecc:	ffff5537          	lui	a0,0xffff5
90001ed0:	afd50513          	addi	a0,a0,-1283 # ffff4afd <_end+0x6ffefff9>
90001ed4:	952e                	add	a0,a0,a1
90001ed6:	5ea0a823          	sw	a0,1520(ra)

90001eda <inst_404>:
90001eda:	ffff55b7          	lui	a1,0xffff5
90001ede:	afc58593          	addi	a1,a1,-1284 # ffff4afc <_end+0x6ffefff8>
90001ee2:	ffff5537          	lui	a0,0xffff5
90001ee6:	afd50513          	addi	a0,a0,-1283 # ffff4afd <_end+0x6ffefff9>
90001eea:	952e                	add	a0,a0,a1
90001eec:	5ea0aa23          	sw	a0,1524(ra)

90001ef0 <inst_405>:
90001ef0:	0000b5b7          	lui	a1,0xb
90001ef4:	50458593          	addi	a1,a1,1284 # b504 <offset+0xb43c>
90001ef8:	ffff5537          	lui	a0,0xffff5
90001efc:	afd50513          	addi	a0,a0,-1283 # ffff4afd <_end+0x6ffefff9>
90001f00:	952e                	add	a0,a0,a1
90001f02:	5ea0ac23          	sw	a0,1528(ra)

90001f06 <inst_406>:
90001f06:	00200593          	li	a1,2
90001f0a:	ffff5537          	lui	a0,0xffff5
90001f0e:	afd50513          	addi	a0,a0,-1283 # ffff4afd <_end+0x6ffefff9>
90001f12:	952e                	add	a0,a0,a1
90001f14:	5ea0ae23          	sw	a0,1532(ra)

90001f18 <inst_407>:
90001f18:	555555b7          	lui	a1,0x55555
90001f1c:	55458593          	addi	a1,a1,1364 # 55555554 <offset+0x5555548c>
90001f20:	ffff5537          	lui	a0,0xffff5
90001f24:	afd50513          	addi	a0,a0,-1283 # ffff4afd <_end+0x6ffefff9>
90001f28:	952e                	add	a0,a0,a1
90001f2a:	60a0a023          	sw	a0,1536(ra)

90001f2e <inst_408>:
90001f2e:	00000593          	li	a1,0
90001f32:	ffff5537          	lui	a0,0xffff5
90001f36:	afd50513          	addi	a0,a0,-1283 # ffff4afd <_end+0x6ffefff9>
90001f3a:	952e                	add	a0,a0,a1
90001f3c:	60a0a223          	sw	a0,1540(ra)

90001f40 <inst_409>:
90001f40:	00400593          	li	a1,4
90001f44:	ffff5537          	lui	a0,0xffff5
90001f48:	afd50513          	addi	a0,a0,-1283 # ffff4afd <_end+0x6ffefff9>
90001f4c:	952e                	add	a0,a0,a1
90001f4e:	60a0a423          	sw	a0,1544(ra)

90001f52 <inst_410>:
90001f52:	333335b7          	lui	a1,0x33333
90001f56:	33258593          	addi	a1,a1,818 # 33333332 <offset+0x3333326a>
90001f5a:	ffff5537          	lui	a0,0xffff5
90001f5e:	afd50513          	addi	a0,a0,-1283 # ffff4afd <_end+0x6ffefff9>
90001f62:	952e                	add	a0,a0,a1
90001f64:	60a0a623          	sw	a0,1548(ra)

90001f68 <inst_411>:
90001f68:	666665b7          	lui	a1,0x66666
90001f6c:	66558593          	addi	a1,a1,1637 # 66666665 <offset+0x6666659d>
90001f70:	ffff5537          	lui	a0,0xffff5
90001f74:	afd50513          	addi	a0,a0,-1283 # ffff4afd <_end+0x6ffefff9>
90001f78:	952e                	add	a0,a0,a1
90001f7a:	60a0a823          	sw	a0,1552(ra)

90001f7e <inst_412>:
90001f7e:	0000b5b7          	lui	a1,0xb
90001f82:	50358593          	addi	a1,a1,1283 # b503 <offset+0xb43b>
90001f86:	ffff5537          	lui	a0,0xffff5
90001f8a:	afd50513          	addi	a0,a0,-1283 # ffff4afd <_end+0x6ffefff9>
90001f8e:	952e                	add	a0,a0,a1
90001f90:	60a0aa23          	sw	a0,1556(ra)

90001f94 <inst_413>:
90001f94:	555555b7          	lui	a1,0x55555
90001f98:	55658593          	addi	a1,a1,1366 # 55555556 <offset+0x5555548e>
90001f9c:	ffff5537          	lui	a0,0xffff5
90001fa0:	afd50513          	addi	a0,a0,-1283 # ffff4afd <_end+0x6ffefff9>
90001fa4:	952e                	add	a0,a0,a1
90001fa6:	60a0ac23          	sw	a0,1560(ra)

90001faa <inst_414>:
90001faa:	aaaab5b7          	lui	a1,0xaaaab
90001fae:	aab58593          	addi	a1,a1,-1365 # aaaaaaab <_end+0x1aaa5fa7>
90001fb2:	ffff5537          	lui	a0,0xffff5
90001fb6:	afd50513          	addi	a0,a0,-1283 # ffff4afd <_end+0x6ffefff9>
90001fba:	952e                	add	a0,a0,a1
90001fbc:	60a0ae23          	sw	a0,1564(ra)

90001fc0 <inst_415>:
90001fc0:	00600593          	li	a1,6
90001fc4:	ffff5537          	lui	a0,0xffff5
90001fc8:	afd50513          	addi	a0,a0,-1283 # ffff4afd <_end+0x6ffefff9>
90001fcc:	952e                	add	a0,a0,a1
90001fce:	62a0a023          	sw	a0,1568(ra)

90001fd2 <inst_416>:
90001fd2:	333335b7          	lui	a1,0x33333
90001fd6:	33458593          	addi	a1,a1,820 # 33333334 <offset+0x3333326c>
90001fda:	ffff5537          	lui	a0,0xffff5
90001fde:	afd50513          	addi	a0,a0,-1283 # ffff4afd <_end+0x6ffefff9>
90001fe2:	952e                	add	a0,a0,a1
90001fe4:	62a0a223          	sw	a0,1572(ra)

90001fe8 <inst_417>:
90001fe8:	666665b7          	lui	a1,0x66666
90001fec:	66758593          	addi	a1,a1,1639 # 66666667 <offset+0x6666659f>
90001ff0:	ffff5537          	lui	a0,0xffff5
90001ff4:	afd50513          	addi	a0,a0,-1283 # ffff4afd <_end+0x6ffefff9>
90001ff8:	952e                	add	a0,a0,a1
90001ffa:	62a0a423          	sw	a0,1576(ra)

90001ffe <inst_418>:
90001ffe:	ffff55b7          	lui	a1,0xffff5
90002002:	afd58593          	addi	a1,a1,-1283 # ffff4afd <_end+0x6ffefff9>
90002006:	ffff5537          	lui	a0,0xffff5
9000200a:	afd50513          	addi	a0,a0,-1283 # ffff4afd <_end+0x6ffefff9>
9000200e:	952e                	add	a0,a0,a1
90002010:	62a0a623          	sw	a0,1580(ra)

90002014 <inst_419>:
90002014:	0000b5b7          	lui	a1,0xb
90002018:	50558593          	addi	a1,a1,1285 # b505 <offset+0xb43d>
9000201c:	ffff5537          	lui	a0,0xffff5
90002020:	afd50513          	addi	a0,a0,-1283 # ffff4afd <_end+0x6ffefff9>
90002024:	952e                	add	a0,a0,a1
90002026:	62a0a823          	sw	a0,1584(ra)

9000202a <inst_420>:
9000202a:	00300593          	li	a1,3
9000202e:	0000b537          	lui	a0,0xb
90002032:	50550513          	addi	a0,a0,1285 # b505 <offset+0xb43d>
90002036:	952e                	add	a0,a0,a1
90002038:	62a0aa23          	sw	a0,1588(ra)

9000203c <inst_421>:
9000203c:	555555b7          	lui	a1,0x55555
90002040:	55558593          	addi	a1,a1,1365 # 55555555 <offset+0x5555548d>
90002044:	0000b537          	lui	a0,0xb
90002048:	50550513          	addi	a0,a0,1285 # b505 <offset+0xb43d>
9000204c:	952e                	add	a0,a0,a1
9000204e:	62a0ac23          	sw	a0,1592(ra)

90002052 <inst_422>:
90002052:	aaaab5b7          	lui	a1,0xaaaab
90002056:	aaa58593          	addi	a1,a1,-1366 # aaaaaaaa <_end+0x1aaa5fa6>
9000205a:	0000b537          	lui	a0,0xb
9000205e:	50550513          	addi	a0,a0,1285 # b505 <offset+0xb43d>
90002062:	952e                	add	a0,a0,a1
90002064:	62a0ae23          	sw	a0,1596(ra)

90002068 <inst_423>:
90002068:	00500593          	li	a1,5
9000206c:	0000b537          	lui	a0,0xb
90002070:	50550513          	addi	a0,a0,1285 # b505 <offset+0xb43d>
90002074:	952e                	add	a0,a0,a1
90002076:	64a0a023          	sw	a0,1600(ra)

9000207a <inst_424>:
9000207a:	333335b7          	lui	a1,0x33333
9000207e:	33358593          	addi	a1,a1,819 # 33333333 <offset+0x3333326b>
90002082:	0000b537          	lui	a0,0xb
90002086:	50550513          	addi	a0,a0,1285 # b505 <offset+0xb43d>
9000208a:	952e                	add	a0,a0,a1
9000208c:	64a0a223          	sw	a0,1604(ra)

90002090 <inst_425>:
90002090:	666665b7          	lui	a1,0x66666
90002094:	66658593          	addi	a1,a1,1638 # 66666666 <offset+0x6666659e>
90002098:	0000b537          	lui	a0,0xb
9000209c:	50550513          	addi	a0,a0,1285 # b505 <offset+0xb43d>
900020a0:	952e                	add	a0,a0,a1
900020a2:	64a0a423          	sw	a0,1608(ra)

900020a6 <inst_426>:
900020a6:	ffff55b7          	lui	a1,0xffff5
900020aa:	afc58593          	addi	a1,a1,-1284 # ffff4afc <_end+0x6ffefff8>
900020ae:	0000b537          	lui	a0,0xb
900020b2:	50550513          	addi	a0,a0,1285 # b505 <offset+0xb43d>
900020b6:	952e                	add	a0,a0,a1
900020b8:	64a0a623          	sw	a0,1612(ra)

900020bc <inst_427>:
900020bc:	0000b5b7          	lui	a1,0xb
900020c0:	50458593          	addi	a1,a1,1284 # b504 <offset+0xb43c>
900020c4:	0000b537          	lui	a0,0xb
900020c8:	50550513          	addi	a0,a0,1285 # b505 <offset+0xb43d>
900020cc:	952e                	add	a0,a0,a1
900020ce:	64a0a823          	sw	a0,1616(ra)

900020d2 <inst_428>:
900020d2:	00200593          	li	a1,2
900020d6:	0000b537          	lui	a0,0xb
900020da:	50550513          	addi	a0,a0,1285 # b505 <offset+0xb43d>
900020de:	952e                	add	a0,a0,a1
900020e0:	64a0aa23          	sw	a0,1620(ra)

900020e4 <inst_429>:
900020e4:	555555b7          	lui	a1,0x55555
900020e8:	55458593          	addi	a1,a1,1364 # 55555554 <offset+0x5555548c>
900020ec:	0000b537          	lui	a0,0xb
900020f0:	50550513          	addi	a0,a0,1285 # b505 <offset+0xb43d>
900020f4:	952e                	add	a0,a0,a1
900020f6:	64a0ac23          	sw	a0,1624(ra)

900020fa <inst_430>:
900020fa:	00000593          	li	a1,0
900020fe:	0000b537          	lui	a0,0xb
90002102:	50550513          	addi	a0,a0,1285 # b505 <offset+0xb43d>
90002106:	952e                	add	a0,a0,a1
90002108:	64a0ae23          	sw	a0,1628(ra)

9000210c <inst_431>:
9000210c:	00400593          	li	a1,4
90002110:	0000b537          	lui	a0,0xb
90002114:	50550513          	addi	a0,a0,1285 # b505 <offset+0xb43d>
90002118:	952e                	add	a0,a0,a1
9000211a:	66a0a023          	sw	a0,1632(ra)

9000211e <inst_432>:
9000211e:	333335b7          	lui	a1,0x33333
90002122:	33258593          	addi	a1,a1,818 # 33333332 <offset+0x3333326a>
90002126:	0000b537          	lui	a0,0xb
9000212a:	50550513          	addi	a0,a0,1285 # b505 <offset+0xb43d>
9000212e:	952e                	add	a0,a0,a1
90002130:	66a0a223          	sw	a0,1636(ra)

90002134 <inst_433>:
90002134:	666665b7          	lui	a1,0x66666
90002138:	66558593          	addi	a1,a1,1637 # 66666665 <offset+0x6666659d>
9000213c:	0000b537          	lui	a0,0xb
90002140:	50550513          	addi	a0,a0,1285 # b505 <offset+0xb43d>
90002144:	952e                	add	a0,a0,a1
90002146:	66a0a423          	sw	a0,1640(ra)

9000214a <inst_434>:
9000214a:	0000b5b7          	lui	a1,0xb
9000214e:	50358593          	addi	a1,a1,1283 # b503 <offset+0xb43b>
90002152:	0000b537          	lui	a0,0xb
90002156:	50550513          	addi	a0,a0,1285 # b505 <offset+0xb43d>
9000215a:	952e                	add	a0,a0,a1
9000215c:	66a0a623          	sw	a0,1644(ra)

90002160 <inst_435>:
90002160:	555555b7          	lui	a1,0x55555
90002164:	55658593          	addi	a1,a1,1366 # 55555556 <offset+0x5555548e>
90002168:	0000b537          	lui	a0,0xb
9000216c:	50550513          	addi	a0,a0,1285 # b505 <offset+0xb43d>
90002170:	952e                	add	a0,a0,a1
90002172:	66a0a823          	sw	a0,1648(ra)

90002176 <inst_436>:
90002176:	aaaab5b7          	lui	a1,0xaaaab
9000217a:	aab58593          	addi	a1,a1,-1365 # aaaaaaab <_end+0x1aaa5fa7>
9000217e:	0000b537          	lui	a0,0xb
90002182:	50550513          	addi	a0,a0,1285 # b505 <offset+0xb43d>
90002186:	952e                	add	a0,a0,a1
90002188:	66a0aa23          	sw	a0,1652(ra)

9000218c <inst_437>:
9000218c:	00600593          	li	a1,6
90002190:	0000b537          	lui	a0,0xb
90002194:	50550513          	addi	a0,a0,1285 # b505 <offset+0xb43d>
90002198:	952e                	add	a0,a0,a1
9000219a:	66a0ac23          	sw	a0,1656(ra)

9000219e <inst_438>:
9000219e:	333335b7          	lui	a1,0x33333
900021a2:	33458593          	addi	a1,a1,820 # 33333334 <offset+0x3333326c>
900021a6:	0000b537          	lui	a0,0xb
900021aa:	50550513          	addi	a0,a0,1285 # b505 <offset+0xb43d>
900021ae:	952e                	add	a0,a0,a1
900021b0:	66a0ae23          	sw	a0,1660(ra)

900021b4 <inst_439>:
900021b4:	666665b7          	lui	a1,0x66666
900021b8:	66758593          	addi	a1,a1,1639 # 66666667 <offset+0x6666659f>
900021bc:	0000b537          	lui	a0,0xb
900021c0:	50550513          	addi	a0,a0,1285 # b505 <offset+0xb43d>
900021c4:	952e                	add	a0,a0,a1
900021c6:	68a0a023          	sw	a0,1664(ra)

900021ca <inst_440>:
900021ca:	ffff55b7          	lui	a1,0xffff5
900021ce:	afd58593          	addi	a1,a1,-1283 # ffff4afd <_end+0x6ffefff9>
900021d2:	0000b537          	lui	a0,0xb
900021d6:	50550513          	addi	a0,a0,1285 # b505 <offset+0xb43d>
900021da:	952e                	add	a0,a0,a1
900021dc:	68a0a223          	sw	a0,1668(ra)

900021e0 <inst_441>:
900021e0:	0000b5b7          	lui	a1,0xb
900021e4:	50558593          	addi	a1,a1,1285 # b505 <offset+0xb43d>
900021e8:	0000b537          	lui	a0,0xb
900021ec:	50550513          	addi	a0,a0,1285 # b505 <offset+0xb43d>
900021f0:	952e                	add	a0,a0,a1
900021f2:	68a0a423          	sw	a0,1672(ra)

900021f6 <inst_442>:
900021f6:	555555b7          	lui	a1,0x55555
900021fa:	55458593          	addi	a1,a1,1364 # 55555554 <offset+0x5555548c>
900021fe:	00000513          	li	a0,0
90002202:	952e                	add	a0,a0,a1
90002204:	68a0a623          	sw	a0,1676(ra)

90002208 <inst_443>:
90002208:	00000593          	li	a1,0
9000220c:	00000513          	li	a0,0
90002210:	952e                	add	a0,a0,a1
90002212:	68a0a823          	sw	a0,1680(ra)

90002216 <inst_444>:
90002216:	00400593          	li	a1,4
9000221a:	00000513          	li	a0,0
9000221e:	952e                	add	a0,a0,a1
90002220:	68a0aa23          	sw	a0,1684(ra)

90002224 <inst_445>:
90002224:	333335b7          	lui	a1,0x33333
90002228:	33258593          	addi	a1,a1,818 # 33333332 <offset+0x3333326a>
9000222c:	00000513          	li	a0,0
90002230:	952e                	add	a0,a0,a1
90002232:	68a0ac23          	sw	a0,1688(ra)

90002236 <inst_446>:
90002236:	666665b7          	lui	a1,0x66666
9000223a:	66558593          	addi	a1,a1,1637 # 66666665 <offset+0x6666659d>
9000223e:	00000513          	li	a0,0
90002242:	952e                	add	a0,a0,a1
90002244:	68a0ae23          	sw	a0,1692(ra)

90002248 <inst_447>:
90002248:	0000b5b7          	lui	a1,0xb
9000224c:	50358593          	addi	a1,a1,1283 # b503 <offset+0xb43b>
90002250:	00000513          	li	a0,0
90002254:	952e                	add	a0,a0,a1
90002256:	6aa0a023          	sw	a0,1696(ra)

9000225a <inst_448>:
9000225a:	555555b7          	lui	a1,0x55555
9000225e:	55658593          	addi	a1,a1,1366 # 55555556 <offset+0x5555548e>
90002262:	00000513          	li	a0,0
90002266:	952e                	add	a0,a0,a1
90002268:	6aa0a223          	sw	a0,1700(ra)

9000226c <inst_449>:
9000226c:	aaaab5b7          	lui	a1,0xaaaab
90002270:	aab58593          	addi	a1,a1,-1365 # aaaaaaab <_end+0x1aaa5fa7>
90002274:	00000513          	li	a0,0
90002278:	952e                	add	a0,a0,a1
9000227a:	6aa0a423          	sw	a0,1704(ra)

9000227e <inst_450>:
9000227e:	00600593          	li	a1,6
90002282:	00000513          	li	a0,0
90002286:	952e                	add	a0,a0,a1
90002288:	6aa0a623          	sw	a0,1708(ra)

9000228c <inst_451>:
9000228c:	333335b7          	lui	a1,0x33333
90002290:	33458593          	addi	a1,a1,820 # 33333334 <offset+0x3333326c>
90002294:	00000513          	li	a0,0
90002298:	952e                	add	a0,a0,a1
9000229a:	6aa0a823          	sw	a0,1712(ra)

9000229e <inst_452>:
9000229e:	666665b7          	lui	a1,0x66666
900022a2:	66758593          	addi	a1,a1,1639 # 66666667 <offset+0x6666659f>
900022a6:	00000513          	li	a0,0
900022aa:	952e                	add	a0,a0,a1
900022ac:	6aa0aa23          	sw	a0,1716(ra)

900022b0 <inst_453>:
900022b0:	ffff55b7          	lui	a1,0xffff5
900022b4:	afd58593          	addi	a1,a1,-1283 # ffff4afd <_end+0x6ffefff9>
900022b8:	00000513          	li	a0,0
900022bc:	952e                	add	a0,a0,a1
900022be:	6aa0ac23          	sw	a0,1720(ra)

900022c2 <inst_454>:
900022c2:	0000b5b7          	lui	a1,0xb
900022c6:	50558593          	addi	a1,a1,1285 # b505 <offset+0xb43d>
900022ca:	00000513          	li	a0,0
900022ce:	952e                	add	a0,a0,a1
900022d0:	6aa0ae23          	sw	a0,1724(ra)

900022d4 <inst_455>:
900022d4:	00300593          	li	a1,3
900022d8:	00400513          	li	a0,4
900022dc:	952e                	add	a0,a0,a1
900022de:	6ca0a023          	sw	a0,1728(ra)

900022e2 <inst_456>:
900022e2:	555555b7          	lui	a1,0x55555
900022e6:	55558593          	addi	a1,a1,1365 # 55555555 <offset+0x5555548d>
900022ea:	00400513          	li	a0,4
900022ee:	952e                	add	a0,a0,a1
900022f0:	6ca0a223          	sw	a0,1732(ra)

900022f4 <inst_457>:
900022f4:	aaaab5b7          	lui	a1,0xaaaab
900022f8:	aaa58593          	addi	a1,a1,-1366 # aaaaaaaa <_end+0x1aaa5fa6>
900022fc:	00400513          	li	a0,4
90002300:	952e                	add	a0,a0,a1
90002302:	6ca0a423          	sw	a0,1736(ra)

90002306 <inst_458>:
90002306:	00500593          	li	a1,5
9000230a:	00400513          	li	a0,4
9000230e:	952e                	add	a0,a0,a1
90002310:	6ca0a623          	sw	a0,1740(ra)

90002314 <inst_459>:
90002314:	333335b7          	lui	a1,0x33333
90002318:	33358593          	addi	a1,a1,819 # 33333333 <offset+0x3333326b>
9000231c:	00400513          	li	a0,4
90002320:	952e                	add	a0,a0,a1
90002322:	6ca0a823          	sw	a0,1744(ra)

90002326 <inst_460>:
90002326:	666665b7          	lui	a1,0x66666
9000232a:	66658593          	addi	a1,a1,1638 # 66666666 <offset+0x6666659e>
9000232e:	00400513          	li	a0,4
90002332:	952e                	add	a0,a0,a1
90002334:	6ca0aa23          	sw	a0,1748(ra)

90002338 <inst_461>:
90002338:	ffff55b7          	lui	a1,0xffff5
9000233c:	afc58593          	addi	a1,a1,-1284 # ffff4afc <_end+0x6ffefff8>
90002340:	00400513          	li	a0,4
90002344:	952e                	add	a0,a0,a1
90002346:	6ca0ac23          	sw	a0,1752(ra)

9000234a <inst_462>:
9000234a:	0000b5b7          	lui	a1,0xb
9000234e:	50458593          	addi	a1,a1,1284 # b504 <offset+0xb43c>
90002352:	00400513          	li	a0,4
90002356:	952e                	add	a0,a0,a1
90002358:	6ca0ae23          	sw	a0,1756(ra)

9000235c <inst_463>:
9000235c:	00200593          	li	a1,2
90002360:	00400513          	li	a0,4
90002364:	952e                	add	a0,a0,a1
90002366:	6ea0a023          	sw	a0,1760(ra)

9000236a <inst_464>:
9000236a:	555555b7          	lui	a1,0x55555
9000236e:	55458593          	addi	a1,a1,1364 # 55555554 <offset+0x5555548c>
90002372:	00400513          	li	a0,4
90002376:	952e                	add	a0,a0,a1
90002378:	6ea0a223          	sw	a0,1764(ra)

9000237c <inst_465>:
9000237c:	00000593          	li	a1,0
90002380:	00400513          	li	a0,4
90002384:	952e                	add	a0,a0,a1
90002386:	6ea0a423          	sw	a0,1768(ra)

9000238a <inst_466>:
9000238a:	00400593          	li	a1,4
9000238e:	00400513          	li	a0,4
90002392:	952e                	add	a0,a0,a1
90002394:	6ea0a623          	sw	a0,1772(ra)

90002398 <inst_467>:
90002398:	333335b7          	lui	a1,0x33333
9000239c:	33258593          	addi	a1,a1,818 # 33333332 <offset+0x3333326a>
900023a0:	00400513          	li	a0,4
900023a4:	952e                	add	a0,a0,a1
900023a6:	6ea0a823          	sw	a0,1776(ra)

900023aa <inst_468>:
900023aa:	666665b7          	lui	a1,0x66666
900023ae:	66558593          	addi	a1,a1,1637 # 66666665 <offset+0x6666659d>
900023b2:	00400513          	li	a0,4
900023b6:	952e                	add	a0,a0,a1
900023b8:	6ea0aa23          	sw	a0,1780(ra)

900023bc <inst_469>:
900023bc:	0000b5b7          	lui	a1,0xb
900023c0:	50358593          	addi	a1,a1,1283 # b503 <offset+0xb43b>
900023c4:	00400513          	li	a0,4
900023c8:	952e                	add	a0,a0,a1
900023ca:	6ea0ac23          	sw	a0,1784(ra)

900023ce <inst_470>:
900023ce:	555555b7          	lui	a1,0x55555
900023d2:	55658593          	addi	a1,a1,1366 # 55555556 <offset+0x5555548e>
900023d6:	00400513          	li	a0,4
900023da:	952e                	add	a0,a0,a1
900023dc:	6ea0ae23          	sw	a0,1788(ra)

900023e0 <inst_471>:
900023e0:	aaaab5b7          	lui	a1,0xaaaab
900023e4:	aab58593          	addi	a1,a1,-1365 # aaaaaaab <_end+0x1aaa5fa7>
900023e8:	00400513          	li	a0,4
900023ec:	952e                	add	a0,a0,a1
900023ee:	70a0a023          	sw	a0,1792(ra)

900023f2 <inst_472>:
900023f2:	00600593          	li	a1,6
900023f6:	00400513          	li	a0,4
900023fa:	952e                	add	a0,a0,a1
900023fc:	70a0a223          	sw	a0,1796(ra)

90002400 <inst_473>:
90002400:	333335b7          	lui	a1,0x33333
90002404:	33458593          	addi	a1,a1,820 # 33333334 <offset+0x3333326c>
90002408:	00400513          	li	a0,4
9000240c:	952e                	add	a0,a0,a1
9000240e:	70a0a423          	sw	a0,1800(ra)

90002412 <inst_474>:
90002412:	666665b7          	lui	a1,0x66666
90002416:	66758593          	addi	a1,a1,1639 # 66666667 <offset+0x6666659f>
9000241a:	00400513          	li	a0,4
9000241e:	952e                	add	a0,a0,a1
90002420:	70a0a623          	sw	a0,1804(ra)

90002424 <inst_475>:
90002424:	ffff55b7          	lui	a1,0xffff5
90002428:	afd58593          	addi	a1,a1,-1283 # ffff4afd <_end+0x6ffefff9>
9000242c:	00400513          	li	a0,4
90002430:	952e                	add	a0,a0,a1
90002432:	70a0a823          	sw	a0,1808(ra)

90002436 <inst_476>:
90002436:	0000b5b7          	lui	a1,0xb
9000243a:	50558593          	addi	a1,a1,1285 # b505 <offset+0xb43d>
9000243e:	00400513          	li	a0,4
90002442:	952e                	add	a0,a0,a1
90002444:	70a0aa23          	sw	a0,1812(ra)

90002448 <inst_477>:
90002448:	00300593          	li	a1,3
9000244c:	33333537          	lui	a0,0x33333
90002450:	33250513          	addi	a0,a0,818 # 33333332 <offset+0x3333326a>
90002454:	952e                	add	a0,a0,a1
90002456:	70a0ac23          	sw	a0,1816(ra)

9000245a <inst_478>:
9000245a:	555555b7          	lui	a1,0x55555
9000245e:	55558593          	addi	a1,a1,1365 # 55555555 <offset+0x5555548d>
90002462:	33333537          	lui	a0,0x33333
90002466:	33250513          	addi	a0,a0,818 # 33333332 <offset+0x3333326a>
9000246a:	952e                	add	a0,a0,a1
9000246c:	70a0ae23          	sw	a0,1820(ra)

90002470 <inst_479>:
90002470:	aaaab5b7          	lui	a1,0xaaaab
90002474:	aaa58593          	addi	a1,a1,-1366 # aaaaaaaa <_end+0x1aaa5fa6>
90002478:	33333537          	lui	a0,0x33333
9000247c:	33250513          	addi	a0,a0,818 # 33333332 <offset+0x3333326a>
90002480:	952e                	add	a0,a0,a1
90002482:	72a0a023          	sw	a0,1824(ra)

90002486 <inst_480>:
90002486:	00500593          	li	a1,5
9000248a:	33333537          	lui	a0,0x33333
9000248e:	33250513          	addi	a0,a0,818 # 33333332 <offset+0x3333326a>
90002492:	952e                	add	a0,a0,a1
90002494:	72a0a223          	sw	a0,1828(ra)

90002498 <inst_481>:
90002498:	333335b7          	lui	a1,0x33333
9000249c:	33358593          	addi	a1,a1,819 # 33333333 <offset+0x3333326b>
900024a0:	33333537          	lui	a0,0x33333
900024a4:	33250513          	addi	a0,a0,818 # 33333332 <offset+0x3333326a>
900024a8:	952e                	add	a0,a0,a1
900024aa:	72a0a423          	sw	a0,1832(ra)

900024ae <inst_482>:
900024ae:	666665b7          	lui	a1,0x66666
900024b2:	66658593          	addi	a1,a1,1638 # 66666666 <offset+0x6666659e>
900024b6:	33333537          	lui	a0,0x33333
900024ba:	33250513          	addi	a0,a0,818 # 33333332 <offset+0x3333326a>
900024be:	952e                	add	a0,a0,a1
900024c0:	72a0a623          	sw	a0,1836(ra)

900024c4 <inst_483>:
900024c4:	ffff55b7          	lui	a1,0xffff5
900024c8:	afc58593          	addi	a1,a1,-1284 # ffff4afc <_end+0x6ffefff8>
900024cc:	33333537          	lui	a0,0x33333
900024d0:	33250513          	addi	a0,a0,818 # 33333332 <offset+0x3333326a>
900024d4:	952e                	add	a0,a0,a1
900024d6:	72a0a823          	sw	a0,1840(ra)

900024da <inst_484>:
900024da:	0000b5b7          	lui	a1,0xb
900024de:	50458593          	addi	a1,a1,1284 # b504 <offset+0xb43c>
900024e2:	33333537          	lui	a0,0x33333
900024e6:	33250513          	addi	a0,a0,818 # 33333332 <offset+0x3333326a>
900024ea:	952e                	add	a0,a0,a1
900024ec:	72a0aa23          	sw	a0,1844(ra)

900024f0 <inst_485>:
900024f0:	00200593          	li	a1,2
900024f4:	33333537          	lui	a0,0x33333
900024f8:	33250513          	addi	a0,a0,818 # 33333332 <offset+0x3333326a>
900024fc:	952e                	add	a0,a0,a1
900024fe:	72a0ac23          	sw	a0,1848(ra)

90002502 <inst_486>:
90002502:	555555b7          	lui	a1,0x55555
90002506:	55458593          	addi	a1,a1,1364 # 55555554 <offset+0x5555548c>
9000250a:	33333537          	lui	a0,0x33333
9000250e:	33250513          	addi	a0,a0,818 # 33333332 <offset+0x3333326a>
90002512:	952e                	add	a0,a0,a1
90002514:	72a0ae23          	sw	a0,1852(ra)

90002518 <inst_487>:
90002518:	00000593          	li	a1,0
9000251c:	33333537          	lui	a0,0x33333
90002520:	33250513          	addi	a0,a0,818 # 33333332 <offset+0x3333326a>
90002524:	952e                	add	a0,a0,a1
90002526:	74a0a023          	sw	a0,1856(ra)

9000252a <inst_488>:
9000252a:	00400593          	li	a1,4
9000252e:	33333537          	lui	a0,0x33333
90002532:	33250513          	addi	a0,a0,818 # 33333332 <offset+0x3333326a>
90002536:	952e                	add	a0,a0,a1
90002538:	74a0a223          	sw	a0,1860(ra)

9000253c <inst_489>:
9000253c:	333335b7          	lui	a1,0x33333
90002540:	33258593          	addi	a1,a1,818 # 33333332 <offset+0x3333326a>
90002544:	33333537          	lui	a0,0x33333
90002548:	33250513          	addi	a0,a0,818 # 33333332 <offset+0x3333326a>
9000254c:	952e                	add	a0,a0,a1
9000254e:	74a0a423          	sw	a0,1864(ra)

90002552 <inst_490>:
90002552:	666665b7          	lui	a1,0x66666
90002556:	66558593          	addi	a1,a1,1637 # 66666665 <offset+0x6666659d>
9000255a:	33333537          	lui	a0,0x33333
9000255e:	33250513          	addi	a0,a0,818 # 33333332 <offset+0x3333326a>
90002562:	952e                	add	a0,a0,a1
90002564:	74a0a623          	sw	a0,1868(ra)

90002568 <inst_491>:
90002568:	0000b5b7          	lui	a1,0xb
9000256c:	50358593          	addi	a1,a1,1283 # b503 <offset+0xb43b>
90002570:	33333537          	lui	a0,0x33333
90002574:	33250513          	addi	a0,a0,818 # 33333332 <offset+0x3333326a>
90002578:	952e                	add	a0,a0,a1
9000257a:	74a0a823          	sw	a0,1872(ra)

9000257e <inst_492>:
9000257e:	555555b7          	lui	a1,0x55555
90002582:	55658593          	addi	a1,a1,1366 # 55555556 <offset+0x5555548e>
90002586:	33333537          	lui	a0,0x33333
9000258a:	33250513          	addi	a0,a0,818 # 33333332 <offset+0x3333326a>
9000258e:	952e                	add	a0,a0,a1
90002590:	74a0aa23          	sw	a0,1876(ra)

90002594 <inst_493>:
90002594:	aaaab5b7          	lui	a1,0xaaaab
90002598:	aab58593          	addi	a1,a1,-1365 # aaaaaaab <_end+0x1aaa5fa7>
9000259c:	33333537          	lui	a0,0x33333
900025a0:	33250513          	addi	a0,a0,818 # 33333332 <offset+0x3333326a>
900025a4:	952e                	add	a0,a0,a1
900025a6:	74a0ac23          	sw	a0,1880(ra)

900025aa <inst_494>:
900025aa:	00600593          	li	a1,6
900025ae:	33333537          	lui	a0,0x33333
900025b2:	33250513          	addi	a0,a0,818 # 33333332 <offset+0x3333326a>
900025b6:	952e                	add	a0,a0,a1
900025b8:	74a0ae23          	sw	a0,1884(ra)

900025bc <inst_495>:
900025bc:	333335b7          	lui	a1,0x33333
900025c0:	33458593          	addi	a1,a1,820 # 33333334 <offset+0x3333326c>
900025c4:	33333537          	lui	a0,0x33333
900025c8:	33250513          	addi	a0,a0,818 # 33333332 <offset+0x3333326a>
900025cc:	952e                	add	a0,a0,a1
900025ce:	76a0a023          	sw	a0,1888(ra)

900025d2 <inst_496>:
900025d2:	666665b7          	lui	a1,0x66666
900025d6:	66758593          	addi	a1,a1,1639 # 66666667 <offset+0x6666659f>
900025da:	33333537          	lui	a0,0x33333
900025de:	33250513          	addi	a0,a0,818 # 33333332 <offset+0x3333326a>
900025e2:	952e                	add	a0,a0,a1
900025e4:	76a0a223          	sw	a0,1892(ra)

900025e8 <inst_497>:
900025e8:	ffff55b7          	lui	a1,0xffff5
900025ec:	afd58593          	addi	a1,a1,-1283 # ffff4afd <_end+0x6ffefff9>
900025f0:	33333537          	lui	a0,0x33333
900025f4:	33250513          	addi	a0,a0,818 # 33333332 <offset+0x3333326a>
900025f8:	952e                	add	a0,a0,a1
900025fa:	76a0a423          	sw	a0,1896(ra)

900025fe <inst_498>:
900025fe:	0000b5b7          	lui	a1,0xb
90002602:	50558593          	addi	a1,a1,1285 # b505 <offset+0xb43d>
90002606:	33333537          	lui	a0,0x33333
9000260a:	33250513          	addi	a0,a0,818 # 33333332 <offset+0x3333326a>
9000260e:	952e                	add	a0,a0,a1
90002610:	76a0a623          	sw	a0,1900(ra)

90002614 <inst_499>:
90002614:	00300593          	li	a1,3
90002618:	66666537          	lui	a0,0x66666
9000261c:	66550513          	addi	a0,a0,1637 # 66666665 <offset+0x6666659d>
90002620:	952e                	add	a0,a0,a1
90002622:	76a0a823          	sw	a0,1904(ra)

90002626 <inst_500>:
90002626:	555555b7          	lui	a1,0x55555
9000262a:	55558593          	addi	a1,a1,1365 # 55555555 <offset+0x5555548d>
9000262e:	66666537          	lui	a0,0x66666
90002632:	66550513          	addi	a0,a0,1637 # 66666665 <offset+0x6666659d>
90002636:	952e                	add	a0,a0,a1
90002638:	76a0aa23          	sw	a0,1908(ra)

9000263c <inst_501>:
9000263c:	aaaab5b7          	lui	a1,0xaaaab
90002640:	aaa58593          	addi	a1,a1,-1366 # aaaaaaaa <_end+0x1aaa5fa6>
90002644:	66666537          	lui	a0,0x66666
90002648:	66550513          	addi	a0,a0,1637 # 66666665 <offset+0x6666659d>
9000264c:	952e                	add	a0,a0,a1
9000264e:	76a0ac23          	sw	a0,1912(ra)

90002652 <inst_502>:
90002652:	00500593          	li	a1,5
90002656:	66666537          	lui	a0,0x66666
9000265a:	66550513          	addi	a0,a0,1637 # 66666665 <offset+0x6666659d>
9000265e:	952e                	add	a0,a0,a1
90002660:	76a0ae23          	sw	a0,1916(ra)

90002664 <inst_503>:
90002664:	333335b7          	lui	a1,0x33333
90002668:	33358593          	addi	a1,a1,819 # 33333333 <offset+0x3333326b>
9000266c:	66666537          	lui	a0,0x66666
90002670:	66550513          	addi	a0,a0,1637 # 66666665 <offset+0x6666659d>
90002674:	952e                	add	a0,a0,a1
90002676:	78a0a023          	sw	a0,1920(ra)

9000267a <inst_504>:
9000267a:	666665b7          	lui	a1,0x66666
9000267e:	66658593          	addi	a1,a1,1638 # 66666666 <offset+0x6666659e>
90002682:	66666537          	lui	a0,0x66666
90002686:	66550513          	addi	a0,a0,1637 # 66666665 <offset+0x6666659d>
9000268a:	952e                	add	a0,a0,a1
9000268c:	78a0a223          	sw	a0,1924(ra)

90002690 <inst_505>:
90002690:	ffff55b7          	lui	a1,0xffff5
90002694:	afc58593          	addi	a1,a1,-1284 # ffff4afc <_end+0x6ffefff8>
90002698:	66666537          	lui	a0,0x66666
9000269c:	66550513          	addi	a0,a0,1637 # 66666665 <offset+0x6666659d>
900026a0:	952e                	add	a0,a0,a1
900026a2:	78a0a423          	sw	a0,1928(ra)

900026a6 <inst_506>:
900026a6:	0000b5b7          	lui	a1,0xb
900026aa:	50458593          	addi	a1,a1,1284 # b504 <offset+0xb43c>
900026ae:	66666537          	lui	a0,0x66666
900026b2:	66550513          	addi	a0,a0,1637 # 66666665 <offset+0x6666659d>
900026b6:	952e                	add	a0,a0,a1
900026b8:	78a0a623          	sw	a0,1932(ra)

900026bc <inst_507>:
900026bc:	00200593          	li	a1,2
900026c0:	66666537          	lui	a0,0x66666
900026c4:	66550513          	addi	a0,a0,1637 # 66666665 <offset+0x6666659d>
900026c8:	952e                	add	a0,a0,a1
900026ca:	78a0a823          	sw	a0,1936(ra)

900026ce <inst_508>:
900026ce:	555555b7          	lui	a1,0x55555
900026d2:	55458593          	addi	a1,a1,1364 # 55555554 <offset+0x5555548c>
900026d6:	66666537          	lui	a0,0x66666
900026da:	66550513          	addi	a0,a0,1637 # 66666665 <offset+0x6666659d>
900026de:	952e                	add	a0,a0,a1
900026e0:	78a0aa23          	sw	a0,1940(ra)

900026e4 <inst_509>:
900026e4:	00000593          	li	a1,0
900026e8:	66666537          	lui	a0,0x66666
900026ec:	66550513          	addi	a0,a0,1637 # 66666665 <offset+0x6666659d>
900026f0:	952e                	add	a0,a0,a1
900026f2:	78a0ac23          	sw	a0,1944(ra)

900026f6 <inst_510>:
900026f6:	00400593          	li	a1,4
900026fa:	66666537          	lui	a0,0x66666
900026fe:	66550513          	addi	a0,a0,1637 # 66666665 <offset+0x6666659d>
90002702:	952e                	add	a0,a0,a1
90002704:	78a0ae23          	sw	a0,1948(ra)

90002708 <inst_511>:
90002708:	333335b7          	lui	a1,0x33333
9000270c:	33258593          	addi	a1,a1,818 # 33333332 <offset+0x3333326a>
90002710:	66666537          	lui	a0,0x66666
90002714:	66550513          	addi	a0,a0,1637 # 66666665 <offset+0x6666659d>
90002718:	952e                	add	a0,a0,a1
9000271a:	7aa0a023          	sw	a0,1952(ra)

9000271e <inst_512>:
9000271e:	666665b7          	lui	a1,0x66666
90002722:	66558593          	addi	a1,a1,1637 # 66666665 <offset+0x6666659d>
90002726:	66666537          	lui	a0,0x66666
9000272a:	66550513          	addi	a0,a0,1637 # 66666665 <offset+0x6666659d>
9000272e:	952e                	add	a0,a0,a1
90002730:	7aa0a223          	sw	a0,1956(ra)

90002734 <inst_513>:
90002734:	0000b5b7          	lui	a1,0xb
90002738:	50358593          	addi	a1,a1,1283 # b503 <offset+0xb43b>
9000273c:	66666537          	lui	a0,0x66666
90002740:	66550513          	addi	a0,a0,1637 # 66666665 <offset+0x6666659d>
90002744:	952e                	add	a0,a0,a1
90002746:	7aa0a423          	sw	a0,1960(ra)

9000274a <inst_514>:
9000274a:	555555b7          	lui	a1,0x55555
9000274e:	55658593          	addi	a1,a1,1366 # 55555556 <offset+0x5555548e>
90002752:	66666537          	lui	a0,0x66666
90002756:	66550513          	addi	a0,a0,1637 # 66666665 <offset+0x6666659d>
9000275a:	952e                	add	a0,a0,a1
9000275c:	7aa0a623          	sw	a0,1964(ra)

90002760 <inst_515>:
90002760:	aaaab5b7          	lui	a1,0xaaaab
90002764:	aab58593          	addi	a1,a1,-1365 # aaaaaaab <_end+0x1aaa5fa7>
90002768:	66666537          	lui	a0,0x66666
9000276c:	66550513          	addi	a0,a0,1637 # 66666665 <offset+0x6666659d>
90002770:	952e                	add	a0,a0,a1
90002772:	7aa0a823          	sw	a0,1968(ra)

90002776 <inst_516>:
90002776:	00600593          	li	a1,6
9000277a:	66666537          	lui	a0,0x66666
9000277e:	66550513          	addi	a0,a0,1637 # 66666665 <offset+0x6666659d>
90002782:	952e                	add	a0,a0,a1
90002784:	7aa0aa23          	sw	a0,1972(ra)

90002788 <inst_517>:
90002788:	333335b7          	lui	a1,0x33333
9000278c:	33458593          	addi	a1,a1,820 # 33333334 <offset+0x3333326c>
90002790:	66666537          	lui	a0,0x66666
90002794:	66550513          	addi	a0,a0,1637 # 66666665 <offset+0x6666659d>
90002798:	952e                	add	a0,a0,a1
9000279a:	7aa0ac23          	sw	a0,1976(ra)

9000279e <inst_518>:
9000279e:	666665b7          	lui	a1,0x66666
900027a2:	66758593          	addi	a1,a1,1639 # 66666667 <offset+0x6666659f>
900027a6:	66666537          	lui	a0,0x66666
900027aa:	66550513          	addi	a0,a0,1637 # 66666665 <offset+0x6666659d>
900027ae:	952e                	add	a0,a0,a1
900027b0:	7aa0ae23          	sw	a0,1980(ra)

900027b4 <inst_519>:
900027b4:	ffff55b7          	lui	a1,0xffff5
900027b8:	afd58593          	addi	a1,a1,-1283 # ffff4afd <_end+0x6ffefff9>
900027bc:	66666537          	lui	a0,0x66666
900027c0:	66550513          	addi	a0,a0,1637 # 66666665 <offset+0x6666659d>
900027c4:	952e                	add	a0,a0,a1
900027c6:	7ca0a023          	sw	a0,1984(ra)

900027ca <inst_520>:
900027ca:	0000b5b7          	lui	a1,0xb
900027ce:	50558593          	addi	a1,a1,1285 # b505 <offset+0xb43d>
900027d2:	66666537          	lui	a0,0x66666
900027d6:	66550513          	addi	a0,a0,1637 # 66666665 <offset+0x6666659d>
900027da:	952e                	add	a0,a0,a1
900027dc:	7ca0a223          	sw	a0,1988(ra)

900027e0 <inst_521>:
900027e0:	00300593          	li	a1,3
900027e4:	0000b537          	lui	a0,0xb
900027e8:	50350513          	addi	a0,a0,1283 # b503 <offset+0xb43b>
900027ec:	952e                	add	a0,a0,a1
900027ee:	7ca0a423          	sw	a0,1992(ra)

900027f2 <inst_522>:
900027f2:	555555b7          	lui	a1,0x55555
900027f6:	55558593          	addi	a1,a1,1365 # 55555555 <offset+0x5555548d>
900027fa:	0000b537          	lui	a0,0xb
900027fe:	50350513          	addi	a0,a0,1283 # b503 <offset+0xb43b>
90002802:	952e                	add	a0,a0,a1
90002804:	7ca0a623          	sw	a0,1996(ra)

90002808 <inst_523>:
90002808:	aaaab5b7          	lui	a1,0xaaaab
9000280c:	aaa58593          	addi	a1,a1,-1366 # aaaaaaaa <_end+0x1aaa5fa6>
90002810:	0000b537          	lui	a0,0xb
90002814:	50350513          	addi	a0,a0,1283 # b503 <offset+0xb43b>
90002818:	952e                	add	a0,a0,a1
9000281a:	7ca0a823          	sw	a0,2000(ra)

9000281e <inst_524>:
9000281e:	00500593          	li	a1,5
90002822:	0000b537          	lui	a0,0xb
90002826:	50350513          	addi	a0,a0,1283 # b503 <offset+0xb43b>
9000282a:	952e                	add	a0,a0,a1
9000282c:	7ca0aa23          	sw	a0,2004(ra)

90002830 <inst_525>:
90002830:	333335b7          	lui	a1,0x33333
90002834:	33358593          	addi	a1,a1,819 # 33333333 <offset+0x3333326b>
90002838:	0000b537          	lui	a0,0xb
9000283c:	50350513          	addi	a0,a0,1283 # b503 <offset+0xb43b>
90002840:	952e                	add	a0,a0,a1
90002842:	7ca0ac23          	sw	a0,2008(ra)

90002846 <inst_526>:
90002846:	666665b7          	lui	a1,0x66666
9000284a:	66658593          	addi	a1,a1,1638 # 66666666 <offset+0x6666659e>
9000284e:	0000b537          	lui	a0,0xb
90002852:	50350513          	addi	a0,a0,1283 # b503 <offset+0xb43b>
90002856:	952e                	add	a0,a0,a1
90002858:	7ca0ae23          	sw	a0,2012(ra)

9000285c <inst_527>:
9000285c:	ffff55b7          	lui	a1,0xffff5
90002860:	afc58593          	addi	a1,a1,-1284 # ffff4afc <_end+0x6ffefff8>
90002864:	0000b537          	lui	a0,0xb
90002868:	50350513          	addi	a0,a0,1283 # b503 <offset+0xb43b>
9000286c:	952e                	add	a0,a0,a1
9000286e:	7ea0a023          	sw	a0,2016(ra)

90002872 <inst_528>:
90002872:	0000b5b7          	lui	a1,0xb
90002876:	50458593          	addi	a1,a1,1284 # b504 <offset+0xb43c>
9000287a:	0000b537          	lui	a0,0xb
9000287e:	50350513          	addi	a0,a0,1283 # b503 <offset+0xb43b>
90002882:	952e                	add	a0,a0,a1
90002884:	7ea0a223          	sw	a0,2020(ra)

90002888 <inst_529>:
90002888:	00200593          	li	a1,2
9000288c:	0000b537          	lui	a0,0xb
90002890:	50350513          	addi	a0,a0,1283 # b503 <offset+0xb43b>
90002894:	952e                	add	a0,a0,a1
90002896:	7ea0a423          	sw	a0,2024(ra)

9000289a <inst_530>:
9000289a:	555555b7          	lui	a1,0x55555
9000289e:	55458593          	addi	a1,a1,1364 # 55555554 <offset+0x5555548c>
900028a2:	0000b537          	lui	a0,0xb
900028a6:	50350513          	addi	a0,a0,1283 # b503 <offset+0xb43b>
900028aa:	952e                	add	a0,a0,a1
900028ac:	7ea0a623          	sw	a0,2028(ra)

900028b0 <inst_531>:
900028b0:	00000593          	li	a1,0
900028b4:	0000b537          	lui	a0,0xb
900028b8:	50350513          	addi	a0,a0,1283 # b503 <offset+0xb43b>
900028bc:	952e                	add	a0,a0,a1
900028be:	7ea0a823          	sw	a0,2032(ra)

900028c2 <inst_532>:
900028c2:	00400593          	li	a1,4
900028c6:	0000b537          	lui	a0,0xb
900028ca:	50350513          	addi	a0,a0,1283 # b503 <offset+0xb43b>
900028ce:	952e                	add	a0,a0,a1
900028d0:	7ea0aa23          	sw	a0,2036(ra)

900028d4 <inst_533>:
900028d4:	333335b7          	lui	a1,0x33333
900028d8:	33258593          	addi	a1,a1,818 # 33333332 <offset+0x3333326a>
900028dc:	0000b537          	lui	a0,0xb
900028e0:	50350513          	addi	a0,a0,1283 # b503 <offset+0xb43b>
900028e4:	952e                	add	a0,a0,a1
900028e6:	7ea0ac23          	sw	a0,2040(ra)

900028ea <inst_534>:
900028ea:	666665b7          	lui	a1,0x66666
900028ee:	66558593          	addi	a1,a1,1637 # 66666665 <offset+0x6666659d>
900028f2:	0000b537          	lui	a0,0xb
900028f6:	50350513          	addi	a0,a0,1283 # b503 <offset+0xb43b>
900028fa:	952e                	add	a0,a0,a1
900028fc:	7ea0ae23          	sw	a0,2044(ra)
90002900:	00002097          	auipc	ra,0x2
90002904:	f6c08093          	addi	ra,ra,-148 # 9000486c <signature_x1_1>

90002908 <inst_535>:
90002908:	0000b5b7          	lui	a1,0xb
9000290c:	50358593          	addi	a1,a1,1283 # b503 <offset+0xb43b>
90002910:	0000b537          	lui	a0,0xb
90002914:	50350513          	addi	a0,a0,1283 # b503 <offset+0xb43b>
90002918:	952e                	add	a0,a0,a1
9000291a:	00a0a023          	sw	a0,0(ra)

9000291e <inst_536>:
9000291e:	555555b7          	lui	a1,0x55555
90002922:	55658593          	addi	a1,a1,1366 # 55555556 <offset+0x5555548e>
90002926:	0000b537          	lui	a0,0xb
9000292a:	50350513          	addi	a0,a0,1283 # b503 <offset+0xb43b>
9000292e:	952e                	add	a0,a0,a1
90002930:	00a0a223          	sw	a0,4(ra)

90002934 <inst_537>:
90002934:	aaaab5b7          	lui	a1,0xaaaab
90002938:	aab58593          	addi	a1,a1,-1365 # aaaaaaab <_end+0x1aaa5fa7>
9000293c:	0000b537          	lui	a0,0xb
90002940:	50350513          	addi	a0,a0,1283 # b503 <offset+0xb43b>
90002944:	952e                	add	a0,a0,a1
90002946:	00a0a423          	sw	a0,8(ra)

9000294a <inst_538>:
9000294a:	00600593          	li	a1,6
9000294e:	0000b537          	lui	a0,0xb
90002952:	50350513          	addi	a0,a0,1283 # b503 <offset+0xb43b>
90002956:	952e                	add	a0,a0,a1
90002958:	00a0a623          	sw	a0,12(ra)

9000295c <inst_539>:
9000295c:	333335b7          	lui	a1,0x33333
90002960:	33458593          	addi	a1,a1,820 # 33333334 <offset+0x3333326c>
90002964:	0000b537          	lui	a0,0xb
90002968:	50350513          	addi	a0,a0,1283 # b503 <offset+0xb43b>
9000296c:	952e                	add	a0,a0,a1
9000296e:	00a0a823          	sw	a0,16(ra)

90002972 <inst_540>:
90002972:	666665b7          	lui	a1,0x66666
90002976:	66758593          	addi	a1,a1,1639 # 66666667 <offset+0x6666659f>
9000297a:	0000b537          	lui	a0,0xb
9000297e:	50350513          	addi	a0,a0,1283 # b503 <offset+0xb43b>
90002982:	952e                	add	a0,a0,a1
90002984:	00a0aa23          	sw	a0,20(ra)

90002988 <inst_541>:
90002988:	ffff55b7          	lui	a1,0xffff5
9000298c:	afd58593          	addi	a1,a1,-1283 # ffff4afd <_end+0x6ffefff9>
90002990:	0000b537          	lui	a0,0xb
90002994:	50350513          	addi	a0,a0,1283 # b503 <offset+0xb43b>
90002998:	952e                	add	a0,a0,a1
9000299a:	00a0ac23          	sw	a0,24(ra)

9000299e <inst_542>:
9000299e:	0000b5b7          	lui	a1,0xb
900029a2:	50558593          	addi	a1,a1,1285 # b505 <offset+0xb43d>
900029a6:	0000b537          	lui	a0,0xb
900029aa:	50350513          	addi	a0,a0,1283 # b503 <offset+0xb43b>
900029ae:	952e                	add	a0,a0,a1
900029b0:	00a0ae23          	sw	a0,28(ra)

900029b4 <inst_543>:
900029b4:	00300593          	li	a1,3
900029b8:	55555537          	lui	a0,0x55555
900029bc:	55650513          	addi	a0,a0,1366 # 55555556 <offset+0x5555548e>
900029c0:	952e                	add	a0,a0,a1
900029c2:	02a0a023          	sw	a0,32(ra)

900029c6 <inst_544>:
900029c6:	555555b7          	lui	a1,0x55555
900029ca:	55558593          	addi	a1,a1,1365 # 55555555 <offset+0x5555548d>
900029ce:	55555537          	lui	a0,0x55555
900029d2:	55650513          	addi	a0,a0,1366 # 55555556 <offset+0x5555548e>
900029d6:	952e                	add	a0,a0,a1
900029d8:	02a0a223          	sw	a0,36(ra)

900029dc <inst_545>:
900029dc:	aaaab5b7          	lui	a1,0xaaaab
900029e0:	aaa58593          	addi	a1,a1,-1366 # aaaaaaaa <_end+0x1aaa5fa6>
900029e4:	55555537          	lui	a0,0x55555
900029e8:	55650513          	addi	a0,a0,1366 # 55555556 <offset+0x5555548e>
900029ec:	952e                	add	a0,a0,a1
900029ee:	02a0a423          	sw	a0,40(ra)

900029f2 <inst_546>:
900029f2:	00500593          	li	a1,5
900029f6:	55555537          	lui	a0,0x55555
900029fa:	55650513          	addi	a0,a0,1366 # 55555556 <offset+0x5555548e>
900029fe:	952e                	add	a0,a0,a1
90002a00:	02a0a623          	sw	a0,44(ra)

90002a04 <inst_547>:
90002a04:	333335b7          	lui	a1,0x33333
90002a08:	33358593          	addi	a1,a1,819 # 33333333 <offset+0x3333326b>
90002a0c:	55555537          	lui	a0,0x55555
90002a10:	55650513          	addi	a0,a0,1366 # 55555556 <offset+0x5555548e>
90002a14:	952e                	add	a0,a0,a1
90002a16:	02a0a823          	sw	a0,48(ra)

90002a1a <inst_548>:
90002a1a:	666665b7          	lui	a1,0x66666
90002a1e:	66658593          	addi	a1,a1,1638 # 66666666 <offset+0x6666659e>
90002a22:	55555537          	lui	a0,0x55555
90002a26:	55650513          	addi	a0,a0,1366 # 55555556 <offset+0x5555548e>
90002a2a:	952e                	add	a0,a0,a1
90002a2c:	02a0aa23          	sw	a0,52(ra)

90002a30 <inst_549>:
90002a30:	ffff55b7          	lui	a1,0xffff5
90002a34:	afc58593          	addi	a1,a1,-1284 # ffff4afc <_end+0x6ffefff8>
90002a38:	55555537          	lui	a0,0x55555
90002a3c:	55650513          	addi	a0,a0,1366 # 55555556 <offset+0x5555548e>
90002a40:	952e                	add	a0,a0,a1
90002a42:	02a0ac23          	sw	a0,56(ra)

90002a46 <inst_550>:
90002a46:	0000b5b7          	lui	a1,0xb
90002a4a:	50458593          	addi	a1,a1,1284 # b504 <offset+0xb43c>
90002a4e:	55555537          	lui	a0,0x55555
90002a52:	55650513          	addi	a0,a0,1366 # 55555556 <offset+0x5555548e>
90002a56:	952e                	add	a0,a0,a1
90002a58:	02a0ae23          	sw	a0,60(ra)

90002a5c <inst_551>:
90002a5c:	00200593          	li	a1,2
90002a60:	55555537          	lui	a0,0x55555
90002a64:	55650513          	addi	a0,a0,1366 # 55555556 <offset+0x5555548e>
90002a68:	952e                	add	a0,a0,a1
90002a6a:	04a0a023          	sw	a0,64(ra)

90002a6e <inst_552>:
90002a6e:	555555b7          	lui	a1,0x55555
90002a72:	55458593          	addi	a1,a1,1364 # 55555554 <offset+0x5555548c>
90002a76:	55555537          	lui	a0,0x55555
90002a7a:	55650513          	addi	a0,a0,1366 # 55555556 <offset+0x5555548e>
90002a7e:	952e                	add	a0,a0,a1
90002a80:	04a0a223          	sw	a0,68(ra)

90002a84 <inst_553>:
90002a84:	00000593          	li	a1,0
90002a88:	55555537          	lui	a0,0x55555
90002a8c:	55650513          	addi	a0,a0,1366 # 55555556 <offset+0x5555548e>
90002a90:	952e                	add	a0,a0,a1
90002a92:	04a0a423          	sw	a0,72(ra)

90002a96 <inst_554>:
90002a96:	00400593          	li	a1,4
90002a9a:	55555537          	lui	a0,0x55555
90002a9e:	55650513          	addi	a0,a0,1366 # 55555556 <offset+0x5555548e>
90002aa2:	952e                	add	a0,a0,a1
90002aa4:	04a0a623          	sw	a0,76(ra)

90002aa8 <inst_555>:
90002aa8:	333335b7          	lui	a1,0x33333
90002aac:	33258593          	addi	a1,a1,818 # 33333332 <offset+0x3333326a>
90002ab0:	55555537          	lui	a0,0x55555
90002ab4:	55650513          	addi	a0,a0,1366 # 55555556 <offset+0x5555548e>
90002ab8:	952e                	add	a0,a0,a1
90002aba:	04a0a823          	sw	a0,80(ra)

90002abe <inst_556>:
90002abe:	666665b7          	lui	a1,0x66666
90002ac2:	66558593          	addi	a1,a1,1637 # 66666665 <offset+0x6666659d>
90002ac6:	55555537          	lui	a0,0x55555
90002aca:	55650513          	addi	a0,a0,1366 # 55555556 <offset+0x5555548e>
90002ace:	952e                	add	a0,a0,a1
90002ad0:	04a0aa23          	sw	a0,84(ra)

90002ad4 <inst_557>:
90002ad4:	0000b5b7          	lui	a1,0xb
90002ad8:	50358593          	addi	a1,a1,1283 # b503 <offset+0xb43b>
90002adc:	55555537          	lui	a0,0x55555
90002ae0:	55650513          	addi	a0,a0,1366 # 55555556 <offset+0x5555548e>
90002ae4:	952e                	add	a0,a0,a1
90002ae6:	04a0ac23          	sw	a0,88(ra)

90002aea <inst_558>:
90002aea:	555555b7          	lui	a1,0x55555
90002aee:	55658593          	addi	a1,a1,1366 # 55555556 <offset+0x5555548e>
90002af2:	55555537          	lui	a0,0x55555
90002af6:	55650513          	addi	a0,a0,1366 # 55555556 <offset+0x5555548e>
90002afa:	952e                	add	a0,a0,a1
90002afc:	04a0ae23          	sw	a0,92(ra)

90002b00 <inst_559>:
90002b00:	aaaab5b7          	lui	a1,0xaaaab
90002b04:	aab58593          	addi	a1,a1,-1365 # aaaaaaab <_end+0x1aaa5fa7>
90002b08:	55555537          	lui	a0,0x55555
90002b0c:	55650513          	addi	a0,a0,1366 # 55555556 <offset+0x5555548e>
90002b10:	952e                	add	a0,a0,a1
90002b12:	06a0a023          	sw	a0,96(ra)

90002b16 <inst_560>:
90002b16:	00600593          	li	a1,6
90002b1a:	55555537          	lui	a0,0x55555
90002b1e:	55650513          	addi	a0,a0,1366 # 55555556 <offset+0x5555548e>
90002b22:	952e                	add	a0,a0,a1
90002b24:	06a0a223          	sw	a0,100(ra)

90002b28 <inst_561>:
90002b28:	333335b7          	lui	a1,0x33333
90002b2c:	33458593          	addi	a1,a1,820 # 33333334 <offset+0x3333326c>
90002b30:	55555537          	lui	a0,0x55555
90002b34:	55650513          	addi	a0,a0,1366 # 55555556 <offset+0x5555548e>
90002b38:	952e                	add	a0,a0,a1
90002b3a:	06a0a423          	sw	a0,104(ra)

90002b3e <inst_562>:
90002b3e:	666665b7          	lui	a1,0x66666
90002b42:	66758593          	addi	a1,a1,1639 # 66666667 <offset+0x6666659f>
90002b46:	55555537          	lui	a0,0x55555
90002b4a:	55650513          	addi	a0,a0,1366 # 55555556 <offset+0x5555548e>
90002b4e:	952e                	add	a0,a0,a1
90002b50:	06a0a623          	sw	a0,108(ra)

90002b54 <inst_563>:
90002b54:	ffff55b7          	lui	a1,0xffff5
90002b58:	afd58593          	addi	a1,a1,-1283 # ffff4afd <_end+0x6ffefff9>
90002b5c:	55555537          	lui	a0,0x55555
90002b60:	55650513          	addi	a0,a0,1366 # 55555556 <offset+0x5555548e>
90002b64:	952e                	add	a0,a0,a1
90002b66:	06a0a823          	sw	a0,112(ra)

90002b6a <inst_564>:
90002b6a:	0000b5b7          	lui	a1,0xb
90002b6e:	50558593          	addi	a1,a1,1285 # b505 <offset+0xb43d>
90002b72:	55555537          	lui	a0,0x55555
90002b76:	55650513          	addi	a0,a0,1366 # 55555556 <offset+0x5555548e>
90002b7a:	952e                	add	a0,a0,a1
90002b7c:	06a0aa23          	sw	a0,116(ra)

90002b80 <inst_565>:
90002b80:	00300593          	li	a1,3
90002b84:	aaaab537          	lui	a0,0xaaaab
90002b88:	aab50513          	addi	a0,a0,-1365 # aaaaaaab <_end+0x1aaa5fa7>
90002b8c:	952e                	add	a0,a0,a1
90002b8e:	06a0ac23          	sw	a0,120(ra)

90002b92 <inst_566>:
90002b92:	555555b7          	lui	a1,0x55555
90002b96:	55558593          	addi	a1,a1,1365 # 55555555 <offset+0x5555548d>
90002b9a:	aaaab537          	lui	a0,0xaaaab
90002b9e:	aab50513          	addi	a0,a0,-1365 # aaaaaaab <_end+0x1aaa5fa7>
90002ba2:	952e                	add	a0,a0,a1
90002ba4:	06a0ae23          	sw	a0,124(ra)

90002ba8 <inst_567>:
90002ba8:	aaaab5b7          	lui	a1,0xaaaab
90002bac:	aaa58593          	addi	a1,a1,-1366 # aaaaaaaa <_end+0x1aaa5fa6>
90002bb0:	aaaab537          	lui	a0,0xaaaab
90002bb4:	aab50513          	addi	a0,a0,-1365 # aaaaaaab <_end+0x1aaa5fa7>
90002bb8:	952e                	add	a0,a0,a1
90002bba:	08a0a023          	sw	a0,128(ra)

90002bbe <inst_568>:
90002bbe:	00500593          	li	a1,5
90002bc2:	aaaab537          	lui	a0,0xaaaab
90002bc6:	aab50513          	addi	a0,a0,-1365 # aaaaaaab <_end+0x1aaa5fa7>
90002bca:	952e                	add	a0,a0,a1
90002bcc:	08a0a223          	sw	a0,132(ra)

90002bd0 <inst_569>:
90002bd0:	333335b7          	lui	a1,0x33333
90002bd4:	33358593          	addi	a1,a1,819 # 33333333 <offset+0x3333326b>
90002bd8:	aaaab537          	lui	a0,0xaaaab
90002bdc:	aab50513          	addi	a0,a0,-1365 # aaaaaaab <_end+0x1aaa5fa7>
90002be0:	952e                	add	a0,a0,a1
90002be2:	08a0a423          	sw	a0,136(ra)

90002be6 <inst_570>:
90002be6:	666665b7          	lui	a1,0x66666
90002bea:	66658593          	addi	a1,a1,1638 # 66666666 <offset+0x6666659e>
90002bee:	aaaab537          	lui	a0,0xaaaab
90002bf2:	aab50513          	addi	a0,a0,-1365 # aaaaaaab <_end+0x1aaa5fa7>
90002bf6:	952e                	add	a0,a0,a1
90002bf8:	08a0a623          	sw	a0,140(ra)

90002bfc <inst_571>:
90002bfc:	ffff55b7          	lui	a1,0xffff5
90002c00:	afc58593          	addi	a1,a1,-1284 # ffff4afc <_end+0x6ffefff8>
90002c04:	aaaab537          	lui	a0,0xaaaab
90002c08:	aab50513          	addi	a0,a0,-1365 # aaaaaaab <_end+0x1aaa5fa7>
90002c0c:	952e                	add	a0,a0,a1
90002c0e:	08a0a823          	sw	a0,144(ra)

90002c12 <inst_572>:
90002c12:	0000b5b7          	lui	a1,0xb
90002c16:	50458593          	addi	a1,a1,1284 # b504 <offset+0xb43c>
90002c1a:	aaaab537          	lui	a0,0xaaaab
90002c1e:	aab50513          	addi	a0,a0,-1365 # aaaaaaab <_end+0x1aaa5fa7>
90002c22:	952e                	add	a0,a0,a1
90002c24:	08a0aa23          	sw	a0,148(ra)

90002c28 <inst_573>:
90002c28:	00200593          	li	a1,2
90002c2c:	aaaab537          	lui	a0,0xaaaab
90002c30:	aab50513          	addi	a0,a0,-1365 # aaaaaaab <_end+0x1aaa5fa7>
90002c34:	952e                	add	a0,a0,a1
90002c36:	08a0ac23          	sw	a0,152(ra)

90002c3a <inst_574>:
90002c3a:	555555b7          	lui	a1,0x55555
90002c3e:	55458593          	addi	a1,a1,1364 # 55555554 <offset+0x5555548c>
90002c42:	aaaab537          	lui	a0,0xaaaab
90002c46:	aab50513          	addi	a0,a0,-1365 # aaaaaaab <_end+0x1aaa5fa7>
90002c4a:	952e                	add	a0,a0,a1
90002c4c:	08a0ae23          	sw	a0,156(ra)

90002c50 <inst_575>:
90002c50:	00000593          	li	a1,0
90002c54:	aaaab537          	lui	a0,0xaaaab
90002c58:	aab50513          	addi	a0,a0,-1365 # aaaaaaab <_end+0x1aaa5fa7>
90002c5c:	952e                	add	a0,a0,a1
90002c5e:	0aa0a023          	sw	a0,160(ra)

90002c62 <inst_576>:
90002c62:	00400593          	li	a1,4
90002c66:	aaaab537          	lui	a0,0xaaaab
90002c6a:	aab50513          	addi	a0,a0,-1365 # aaaaaaab <_end+0x1aaa5fa7>
90002c6e:	952e                	add	a0,a0,a1
90002c70:	0aa0a223          	sw	a0,164(ra)

90002c74 <inst_577>:
90002c74:	333335b7          	lui	a1,0x33333
90002c78:	33258593          	addi	a1,a1,818 # 33333332 <offset+0x3333326a>
90002c7c:	aaaab537          	lui	a0,0xaaaab
90002c80:	aab50513          	addi	a0,a0,-1365 # aaaaaaab <_end+0x1aaa5fa7>
90002c84:	952e                	add	a0,a0,a1
90002c86:	0aa0a423          	sw	a0,168(ra)

90002c8a <inst_578>:
90002c8a:	666665b7          	lui	a1,0x66666
90002c8e:	66558593          	addi	a1,a1,1637 # 66666665 <offset+0x6666659d>
90002c92:	aaaab537          	lui	a0,0xaaaab
90002c96:	aab50513          	addi	a0,a0,-1365 # aaaaaaab <_end+0x1aaa5fa7>
90002c9a:	952e                	add	a0,a0,a1
90002c9c:	0aa0a623          	sw	a0,172(ra)

90002ca0 <inst_579>:
90002ca0:	0000b5b7          	lui	a1,0xb
90002ca4:	50358593          	addi	a1,a1,1283 # b503 <offset+0xb43b>
90002ca8:	aaaab537          	lui	a0,0xaaaab
90002cac:	aab50513          	addi	a0,a0,-1365 # aaaaaaab <_end+0x1aaa5fa7>
90002cb0:	952e                	add	a0,a0,a1
90002cb2:	0aa0a823          	sw	a0,176(ra)

90002cb6 <inst_580>:
90002cb6:	555555b7          	lui	a1,0x55555
90002cba:	55658593          	addi	a1,a1,1366 # 55555556 <offset+0x5555548e>
90002cbe:	aaaab537          	lui	a0,0xaaaab
90002cc2:	aab50513          	addi	a0,a0,-1365 # aaaaaaab <_end+0x1aaa5fa7>
90002cc6:	952e                	add	a0,a0,a1
90002cc8:	0aa0aa23          	sw	a0,180(ra)

90002ccc <inst_581>:
90002ccc:	aaaab5b7          	lui	a1,0xaaaab
90002cd0:	aab58593          	addi	a1,a1,-1365 # aaaaaaab <_end+0x1aaa5fa7>
90002cd4:	aaaab537          	lui	a0,0xaaaab
90002cd8:	aab50513          	addi	a0,a0,-1365 # aaaaaaab <_end+0x1aaa5fa7>
90002cdc:	952e                	add	a0,a0,a1
90002cde:	0aa0ac23          	sw	a0,184(ra)

90002ce2 <inst_582>:
90002ce2:	00600593          	li	a1,6
90002ce6:	aaaab537          	lui	a0,0xaaaab
90002cea:	aab50513          	addi	a0,a0,-1365 # aaaaaaab <_end+0x1aaa5fa7>
90002cee:	952e                	add	a0,a0,a1
90002cf0:	0aa0ae23          	sw	a0,188(ra)

90002cf4 <inst_583>:
90002cf4:	333335b7          	lui	a1,0x33333
90002cf8:	33458593          	addi	a1,a1,820 # 33333334 <offset+0x3333326c>
90002cfc:	aaaab537          	lui	a0,0xaaaab
90002d00:	aab50513          	addi	a0,a0,-1365 # aaaaaaab <_end+0x1aaa5fa7>
90002d04:	952e                	add	a0,a0,a1
90002d06:	0ca0a023          	sw	a0,192(ra)

90002d0a <inst_584>:
90002d0a:	666665b7          	lui	a1,0x66666
90002d0e:	66758593          	addi	a1,a1,1639 # 66666667 <offset+0x6666659f>
90002d12:	aaaab537          	lui	a0,0xaaaab
90002d16:	aab50513          	addi	a0,a0,-1365 # aaaaaaab <_end+0x1aaa5fa7>
90002d1a:	952e                	add	a0,a0,a1
90002d1c:	0ca0a223          	sw	a0,196(ra)

90002d20 <rvtest_code_end>:
90002d20:	0091                	addi	ra,ra,4
90002d22:	4085                	li	ra,1

90002d24 <write_tohost>:
90002d24:	00000f17          	auipc	t5,0x0
90002d28:	2c1f2e23          	sw	ra,732(t5) # 90003000 <tohost>

90002d2c <self_loop>:
90002d2c:	a001                	j	90002d2c <self_loop>
90002d2e:	0000                	unimp
90002d30:	0000                	unimp
	...

Disassembly of section .tohost:

90003000 <tohost>:
	...

90003100 <fromhost>:
	...

Disassembly of section .data:

90004000 <rvtest_data_begin>:
90004000:	cafe                	sw	t6,84(sp)
90004002:	babe                	fsd	fa5,368(sp)

90004004 <rvtest_data_end>:
	...

90004010 <begin_signature>:
90004010:	deadbeef          	jal	t4,8ffdf5fa <offset+0x8ffdf532>
90004014:	deadbeef          	jal	t4,8ffdf5fe <offset+0x8ffdf536>
90004018:	deadbeef          	jal	t4,8ffdf602 <offset+0x8ffdf53a>
9000401c:	deadbeef          	jal	t4,8ffdf606 <offset+0x8ffdf53e>
90004020:	deadbeef          	jal	t4,8ffdf60a <offset+0x8ffdf542>
90004024:	deadbeef          	jal	t4,8ffdf60e <offset+0x8ffdf546>
90004028:	deadbeef          	jal	t4,8ffdf612 <offset+0x8ffdf54a>
9000402c:	deadbeef          	jal	t4,8ffdf616 <offset+0x8ffdf54e>
90004030:	deadbeef          	jal	t4,8ffdf61a <offset+0x8ffdf552>
90004034:	deadbeef          	jal	t4,8ffdf61e <offset+0x8ffdf556>
90004038:	deadbeef          	jal	t4,8ffdf622 <offset+0x8ffdf55a>
9000403c:	deadbeef          	jal	t4,8ffdf626 <offset+0x8ffdf55e>
90004040:	deadbeef          	jal	t4,8ffdf62a <offset+0x8ffdf562>
90004044:	deadbeef          	jal	t4,8ffdf62e <offset+0x8ffdf566>
90004048:	deadbeef          	jal	t4,8ffdf632 <offset+0x8ffdf56a>
9000404c:	deadbeef          	jal	t4,8ffdf636 <offset+0x8ffdf56e>
90004050:	deadbeef          	jal	t4,8ffdf63a <offset+0x8ffdf572>
90004054:	deadbeef          	jal	t4,8ffdf63e <offset+0x8ffdf576>
90004058:	deadbeef          	jal	t4,8ffdf642 <offset+0x8ffdf57a>
9000405c:	deadbeef          	jal	t4,8ffdf646 <offset+0x8ffdf57e>
90004060:	deadbeef          	jal	t4,8ffdf64a <offset+0x8ffdf582>
90004064:	deadbeef          	jal	t4,8ffdf64e <offset+0x8ffdf586>
90004068:	deadbeef          	jal	t4,8ffdf652 <offset+0x8ffdf58a>

9000406c <signature_x1_0>:
9000406c:	deadbeef          	jal	t4,8ffdf656 <offset+0x8ffdf58e>
90004070:	deadbeef          	jal	t4,8ffdf65a <offset+0x8ffdf592>
90004074:	deadbeef          	jal	t4,8ffdf65e <offset+0x8ffdf596>
90004078:	deadbeef          	jal	t4,8ffdf662 <offset+0x8ffdf59a>
9000407c:	deadbeef          	jal	t4,8ffdf666 <offset+0x8ffdf59e>
90004080:	deadbeef          	jal	t4,8ffdf66a <offset+0x8ffdf5a2>
90004084:	deadbeef          	jal	t4,8ffdf66e <offset+0x8ffdf5a6>
90004088:	deadbeef          	jal	t4,8ffdf672 <offset+0x8ffdf5aa>
9000408c:	deadbeef          	jal	t4,8ffdf676 <offset+0x8ffdf5ae>
90004090:	deadbeef          	jal	t4,8ffdf67a <offset+0x8ffdf5b2>
90004094:	deadbeef          	jal	t4,8ffdf67e <offset+0x8ffdf5b6>
90004098:	deadbeef          	jal	t4,8ffdf682 <offset+0x8ffdf5ba>
9000409c:	deadbeef          	jal	t4,8ffdf686 <offset+0x8ffdf5be>
900040a0:	deadbeef          	jal	t4,8ffdf68a <offset+0x8ffdf5c2>
900040a4:	deadbeef          	jal	t4,8ffdf68e <offset+0x8ffdf5c6>
900040a8:	deadbeef          	jal	t4,8ffdf692 <offset+0x8ffdf5ca>
900040ac:	deadbeef          	jal	t4,8ffdf696 <offset+0x8ffdf5ce>
900040b0:	deadbeef          	jal	t4,8ffdf69a <offset+0x8ffdf5d2>
900040b4:	deadbeef          	jal	t4,8ffdf69e <offset+0x8ffdf5d6>
900040b8:	deadbeef          	jal	t4,8ffdf6a2 <offset+0x8ffdf5da>
900040bc:	deadbeef          	jal	t4,8ffdf6a6 <offset+0x8ffdf5de>
900040c0:	deadbeef          	jal	t4,8ffdf6aa <offset+0x8ffdf5e2>
900040c4:	deadbeef          	jal	t4,8ffdf6ae <offset+0x8ffdf5e6>
900040c8:	deadbeef          	jal	t4,8ffdf6b2 <offset+0x8ffdf5ea>
900040cc:	deadbeef          	jal	t4,8ffdf6b6 <offset+0x8ffdf5ee>
900040d0:	deadbeef          	jal	t4,8ffdf6ba <offset+0x8ffdf5f2>
900040d4:	deadbeef          	jal	t4,8ffdf6be <offset+0x8ffdf5f6>
900040d8:	deadbeef          	jal	t4,8ffdf6c2 <offset+0x8ffdf5fa>
900040dc:	deadbeef          	jal	t4,8ffdf6c6 <offset+0x8ffdf5fe>
900040e0:	deadbeef          	jal	t4,8ffdf6ca <offset+0x8ffdf602>
900040e4:	deadbeef          	jal	t4,8ffdf6ce <offset+0x8ffdf606>
900040e8:	deadbeef          	jal	t4,8ffdf6d2 <offset+0x8ffdf60a>
900040ec:	deadbeef          	jal	t4,8ffdf6d6 <offset+0x8ffdf60e>
900040f0:	deadbeef          	jal	t4,8ffdf6da <offset+0x8ffdf612>
900040f4:	deadbeef          	jal	t4,8ffdf6de <offset+0x8ffdf616>
900040f8:	deadbeef          	jal	t4,8ffdf6e2 <offset+0x8ffdf61a>
900040fc:	deadbeef          	jal	t4,8ffdf6e6 <offset+0x8ffdf61e>
90004100:	deadbeef          	jal	t4,8ffdf6ea <offset+0x8ffdf622>
90004104:	deadbeef          	jal	t4,8ffdf6ee <offset+0x8ffdf626>
90004108:	deadbeef          	jal	t4,8ffdf6f2 <offset+0x8ffdf62a>
9000410c:	deadbeef          	jal	t4,8ffdf6f6 <offset+0x8ffdf62e>
90004110:	deadbeef          	jal	t4,8ffdf6fa <offset+0x8ffdf632>
90004114:	deadbeef          	jal	t4,8ffdf6fe <offset+0x8ffdf636>
90004118:	deadbeef          	jal	t4,8ffdf702 <offset+0x8ffdf63a>
9000411c:	deadbeef          	jal	t4,8ffdf706 <offset+0x8ffdf63e>
90004120:	deadbeef          	jal	t4,8ffdf70a <offset+0x8ffdf642>
90004124:	deadbeef          	jal	t4,8ffdf70e <offset+0x8ffdf646>
90004128:	deadbeef          	jal	t4,8ffdf712 <offset+0x8ffdf64a>
9000412c:	deadbeef          	jal	t4,8ffdf716 <offset+0x8ffdf64e>
90004130:	deadbeef          	jal	t4,8ffdf71a <offset+0x8ffdf652>
90004134:	deadbeef          	jal	t4,8ffdf71e <offset+0x8ffdf656>
90004138:	deadbeef          	jal	t4,8ffdf722 <offset+0x8ffdf65a>
9000413c:	deadbeef          	jal	t4,8ffdf726 <offset+0x8ffdf65e>
90004140:	deadbeef          	jal	t4,8ffdf72a <offset+0x8ffdf662>
90004144:	deadbeef          	jal	t4,8ffdf72e <offset+0x8ffdf666>
90004148:	deadbeef          	jal	t4,8ffdf732 <offset+0x8ffdf66a>
9000414c:	deadbeef          	jal	t4,8ffdf736 <offset+0x8ffdf66e>
90004150:	deadbeef          	jal	t4,8ffdf73a <offset+0x8ffdf672>
90004154:	deadbeef          	jal	t4,8ffdf73e <offset+0x8ffdf676>
90004158:	deadbeef          	jal	t4,8ffdf742 <offset+0x8ffdf67a>
9000415c:	deadbeef          	jal	t4,8ffdf746 <offset+0x8ffdf67e>
90004160:	deadbeef          	jal	t4,8ffdf74a <offset+0x8ffdf682>
90004164:	deadbeef          	jal	t4,8ffdf74e <offset+0x8ffdf686>
90004168:	deadbeef          	jal	t4,8ffdf752 <offset+0x8ffdf68a>
9000416c:	deadbeef          	jal	t4,8ffdf756 <offset+0x8ffdf68e>
90004170:	deadbeef          	jal	t4,8ffdf75a <offset+0x8ffdf692>
90004174:	deadbeef          	jal	t4,8ffdf75e <offset+0x8ffdf696>
90004178:	deadbeef          	jal	t4,8ffdf762 <offset+0x8ffdf69a>
9000417c:	deadbeef          	jal	t4,8ffdf766 <offset+0x8ffdf69e>
90004180:	deadbeef          	jal	t4,8ffdf76a <offset+0x8ffdf6a2>
90004184:	deadbeef          	jal	t4,8ffdf76e <offset+0x8ffdf6a6>
90004188:	deadbeef          	jal	t4,8ffdf772 <offset+0x8ffdf6aa>
9000418c:	deadbeef          	jal	t4,8ffdf776 <offset+0x8ffdf6ae>
90004190:	deadbeef          	jal	t4,8ffdf77a <offset+0x8ffdf6b2>
90004194:	deadbeef          	jal	t4,8ffdf77e <offset+0x8ffdf6b6>
90004198:	deadbeef          	jal	t4,8ffdf782 <offset+0x8ffdf6ba>
9000419c:	deadbeef          	jal	t4,8ffdf786 <offset+0x8ffdf6be>
900041a0:	deadbeef          	jal	t4,8ffdf78a <offset+0x8ffdf6c2>
900041a4:	deadbeef          	jal	t4,8ffdf78e <offset+0x8ffdf6c6>
900041a8:	deadbeef          	jal	t4,8ffdf792 <offset+0x8ffdf6ca>
900041ac:	deadbeef          	jal	t4,8ffdf796 <offset+0x8ffdf6ce>
900041b0:	deadbeef          	jal	t4,8ffdf79a <offset+0x8ffdf6d2>
900041b4:	deadbeef          	jal	t4,8ffdf79e <offset+0x8ffdf6d6>
900041b8:	deadbeef          	jal	t4,8ffdf7a2 <offset+0x8ffdf6da>
900041bc:	deadbeef          	jal	t4,8ffdf7a6 <offset+0x8ffdf6de>
900041c0:	deadbeef          	jal	t4,8ffdf7aa <offset+0x8ffdf6e2>
900041c4:	deadbeef          	jal	t4,8ffdf7ae <offset+0x8ffdf6e6>
900041c8:	deadbeef          	jal	t4,8ffdf7b2 <offset+0x8ffdf6ea>
900041cc:	deadbeef          	jal	t4,8ffdf7b6 <offset+0x8ffdf6ee>
900041d0:	deadbeef          	jal	t4,8ffdf7ba <offset+0x8ffdf6f2>
900041d4:	deadbeef          	jal	t4,8ffdf7be <offset+0x8ffdf6f6>
900041d8:	deadbeef          	jal	t4,8ffdf7c2 <offset+0x8ffdf6fa>
900041dc:	deadbeef          	jal	t4,8ffdf7c6 <offset+0x8ffdf6fe>
900041e0:	deadbeef          	jal	t4,8ffdf7ca <offset+0x8ffdf702>
900041e4:	deadbeef          	jal	t4,8ffdf7ce <offset+0x8ffdf706>
900041e8:	deadbeef          	jal	t4,8ffdf7d2 <offset+0x8ffdf70a>
900041ec:	deadbeef          	jal	t4,8ffdf7d6 <offset+0x8ffdf70e>
900041f0:	deadbeef          	jal	t4,8ffdf7da <offset+0x8ffdf712>
900041f4:	deadbeef          	jal	t4,8ffdf7de <offset+0x8ffdf716>
900041f8:	deadbeef          	jal	t4,8ffdf7e2 <offset+0x8ffdf71a>
900041fc:	deadbeef          	jal	t4,8ffdf7e6 <offset+0x8ffdf71e>
90004200:	deadbeef          	jal	t4,8ffdf7ea <offset+0x8ffdf722>
90004204:	deadbeef          	jal	t4,8ffdf7ee <offset+0x8ffdf726>
90004208:	deadbeef          	jal	t4,8ffdf7f2 <offset+0x8ffdf72a>
9000420c:	deadbeef          	jal	t4,8ffdf7f6 <offset+0x8ffdf72e>
90004210:	deadbeef          	jal	t4,8ffdf7fa <offset+0x8ffdf732>
90004214:	deadbeef          	jal	t4,8ffdf7fe <offset+0x8ffdf736>
90004218:	deadbeef          	jal	t4,8ffdf802 <offset+0x8ffdf73a>
9000421c:	deadbeef          	jal	t4,8ffdf806 <offset+0x8ffdf73e>
90004220:	deadbeef          	jal	t4,8ffdf80a <offset+0x8ffdf742>
90004224:	deadbeef          	jal	t4,8ffdf80e <offset+0x8ffdf746>
90004228:	deadbeef          	jal	t4,8ffdf812 <offset+0x8ffdf74a>
9000422c:	deadbeef          	jal	t4,8ffdf816 <offset+0x8ffdf74e>
90004230:	deadbeef          	jal	t4,8ffdf81a <offset+0x8ffdf752>
90004234:	deadbeef          	jal	t4,8ffdf81e <offset+0x8ffdf756>
90004238:	deadbeef          	jal	t4,8ffdf822 <offset+0x8ffdf75a>
9000423c:	deadbeef          	jal	t4,8ffdf826 <offset+0x8ffdf75e>
90004240:	deadbeef          	jal	t4,8ffdf82a <offset+0x8ffdf762>
90004244:	deadbeef          	jal	t4,8ffdf82e <offset+0x8ffdf766>
90004248:	deadbeef          	jal	t4,8ffdf832 <offset+0x8ffdf76a>
9000424c:	deadbeef          	jal	t4,8ffdf836 <offset+0x8ffdf76e>
90004250:	deadbeef          	jal	t4,8ffdf83a <offset+0x8ffdf772>
90004254:	deadbeef          	jal	t4,8ffdf83e <offset+0x8ffdf776>
90004258:	deadbeef          	jal	t4,8ffdf842 <offset+0x8ffdf77a>
9000425c:	deadbeef          	jal	t4,8ffdf846 <offset+0x8ffdf77e>
90004260:	deadbeef          	jal	t4,8ffdf84a <offset+0x8ffdf782>
90004264:	deadbeef          	jal	t4,8ffdf84e <offset+0x8ffdf786>
90004268:	deadbeef          	jal	t4,8ffdf852 <offset+0x8ffdf78a>
9000426c:	deadbeef          	jal	t4,8ffdf856 <offset+0x8ffdf78e>
90004270:	deadbeef          	jal	t4,8ffdf85a <offset+0x8ffdf792>
90004274:	deadbeef          	jal	t4,8ffdf85e <offset+0x8ffdf796>
90004278:	deadbeef          	jal	t4,8ffdf862 <offset+0x8ffdf79a>
9000427c:	deadbeef          	jal	t4,8ffdf866 <offset+0x8ffdf79e>
90004280:	deadbeef          	jal	t4,8ffdf86a <offset+0x8ffdf7a2>
90004284:	deadbeef          	jal	t4,8ffdf86e <offset+0x8ffdf7a6>
90004288:	deadbeef          	jal	t4,8ffdf872 <offset+0x8ffdf7aa>
9000428c:	deadbeef          	jal	t4,8ffdf876 <offset+0x8ffdf7ae>
90004290:	deadbeef          	jal	t4,8ffdf87a <offset+0x8ffdf7b2>
90004294:	deadbeef          	jal	t4,8ffdf87e <offset+0x8ffdf7b6>
90004298:	deadbeef          	jal	t4,8ffdf882 <offset+0x8ffdf7ba>
9000429c:	deadbeef          	jal	t4,8ffdf886 <offset+0x8ffdf7be>
900042a0:	deadbeef          	jal	t4,8ffdf88a <offset+0x8ffdf7c2>
900042a4:	deadbeef          	jal	t4,8ffdf88e <offset+0x8ffdf7c6>
900042a8:	deadbeef          	jal	t4,8ffdf892 <offset+0x8ffdf7ca>
900042ac:	deadbeef          	jal	t4,8ffdf896 <offset+0x8ffdf7ce>
900042b0:	deadbeef          	jal	t4,8ffdf89a <offset+0x8ffdf7d2>
900042b4:	deadbeef          	jal	t4,8ffdf89e <offset+0x8ffdf7d6>
900042b8:	deadbeef          	jal	t4,8ffdf8a2 <offset+0x8ffdf7da>
900042bc:	deadbeef          	jal	t4,8ffdf8a6 <offset+0x8ffdf7de>
900042c0:	deadbeef          	jal	t4,8ffdf8aa <offset+0x8ffdf7e2>
900042c4:	deadbeef          	jal	t4,8ffdf8ae <offset+0x8ffdf7e6>
900042c8:	deadbeef          	jal	t4,8ffdf8b2 <offset+0x8ffdf7ea>
900042cc:	deadbeef          	jal	t4,8ffdf8b6 <offset+0x8ffdf7ee>
900042d0:	deadbeef          	jal	t4,8ffdf8ba <offset+0x8ffdf7f2>
900042d4:	deadbeef          	jal	t4,8ffdf8be <offset+0x8ffdf7f6>
900042d8:	deadbeef          	jal	t4,8ffdf8c2 <offset+0x8ffdf7fa>
900042dc:	deadbeef          	jal	t4,8ffdf8c6 <offset+0x8ffdf7fe>
900042e0:	deadbeef          	jal	t4,8ffdf8ca <offset+0x8ffdf802>
900042e4:	deadbeef          	jal	t4,8ffdf8ce <offset+0x8ffdf806>
900042e8:	deadbeef          	jal	t4,8ffdf8d2 <offset+0x8ffdf80a>
900042ec:	deadbeef          	jal	t4,8ffdf8d6 <offset+0x8ffdf80e>
900042f0:	deadbeef          	jal	t4,8ffdf8da <offset+0x8ffdf812>
900042f4:	deadbeef          	jal	t4,8ffdf8de <offset+0x8ffdf816>
900042f8:	deadbeef          	jal	t4,8ffdf8e2 <offset+0x8ffdf81a>
900042fc:	deadbeef          	jal	t4,8ffdf8e6 <offset+0x8ffdf81e>
90004300:	deadbeef          	jal	t4,8ffdf8ea <offset+0x8ffdf822>
90004304:	deadbeef          	jal	t4,8ffdf8ee <offset+0x8ffdf826>
90004308:	deadbeef          	jal	t4,8ffdf8f2 <offset+0x8ffdf82a>
9000430c:	deadbeef          	jal	t4,8ffdf8f6 <offset+0x8ffdf82e>
90004310:	deadbeef          	jal	t4,8ffdf8fa <offset+0x8ffdf832>
90004314:	deadbeef          	jal	t4,8ffdf8fe <offset+0x8ffdf836>
90004318:	deadbeef          	jal	t4,8ffdf902 <offset+0x8ffdf83a>
9000431c:	deadbeef          	jal	t4,8ffdf906 <offset+0x8ffdf83e>
90004320:	deadbeef          	jal	t4,8ffdf90a <offset+0x8ffdf842>
90004324:	deadbeef          	jal	t4,8ffdf90e <offset+0x8ffdf846>
90004328:	deadbeef          	jal	t4,8ffdf912 <offset+0x8ffdf84a>
9000432c:	deadbeef          	jal	t4,8ffdf916 <offset+0x8ffdf84e>
90004330:	deadbeef          	jal	t4,8ffdf91a <offset+0x8ffdf852>
90004334:	deadbeef          	jal	t4,8ffdf91e <offset+0x8ffdf856>
90004338:	deadbeef          	jal	t4,8ffdf922 <offset+0x8ffdf85a>
9000433c:	deadbeef          	jal	t4,8ffdf926 <offset+0x8ffdf85e>
90004340:	deadbeef          	jal	t4,8ffdf92a <offset+0x8ffdf862>
90004344:	deadbeef          	jal	t4,8ffdf92e <offset+0x8ffdf866>
90004348:	deadbeef          	jal	t4,8ffdf932 <offset+0x8ffdf86a>
9000434c:	deadbeef          	jal	t4,8ffdf936 <offset+0x8ffdf86e>
90004350:	deadbeef          	jal	t4,8ffdf93a <offset+0x8ffdf872>
90004354:	deadbeef          	jal	t4,8ffdf93e <offset+0x8ffdf876>
90004358:	deadbeef          	jal	t4,8ffdf942 <offset+0x8ffdf87a>
9000435c:	deadbeef          	jal	t4,8ffdf946 <offset+0x8ffdf87e>
90004360:	deadbeef          	jal	t4,8ffdf94a <offset+0x8ffdf882>
90004364:	deadbeef          	jal	t4,8ffdf94e <offset+0x8ffdf886>
90004368:	deadbeef          	jal	t4,8ffdf952 <offset+0x8ffdf88a>
9000436c:	deadbeef          	jal	t4,8ffdf956 <offset+0x8ffdf88e>
90004370:	deadbeef          	jal	t4,8ffdf95a <offset+0x8ffdf892>
90004374:	deadbeef          	jal	t4,8ffdf95e <offset+0x8ffdf896>
90004378:	deadbeef          	jal	t4,8ffdf962 <offset+0x8ffdf89a>
9000437c:	deadbeef          	jal	t4,8ffdf966 <offset+0x8ffdf89e>
90004380:	deadbeef          	jal	t4,8ffdf96a <offset+0x8ffdf8a2>
90004384:	deadbeef          	jal	t4,8ffdf96e <offset+0x8ffdf8a6>
90004388:	deadbeef          	jal	t4,8ffdf972 <offset+0x8ffdf8aa>
9000438c:	deadbeef          	jal	t4,8ffdf976 <offset+0x8ffdf8ae>
90004390:	deadbeef          	jal	t4,8ffdf97a <offset+0x8ffdf8b2>
90004394:	deadbeef          	jal	t4,8ffdf97e <offset+0x8ffdf8b6>
90004398:	deadbeef          	jal	t4,8ffdf982 <offset+0x8ffdf8ba>
9000439c:	deadbeef          	jal	t4,8ffdf986 <offset+0x8ffdf8be>
900043a0:	deadbeef          	jal	t4,8ffdf98a <offset+0x8ffdf8c2>
900043a4:	deadbeef          	jal	t4,8ffdf98e <offset+0x8ffdf8c6>
900043a8:	deadbeef          	jal	t4,8ffdf992 <offset+0x8ffdf8ca>
900043ac:	deadbeef          	jal	t4,8ffdf996 <offset+0x8ffdf8ce>
900043b0:	deadbeef          	jal	t4,8ffdf99a <offset+0x8ffdf8d2>
900043b4:	deadbeef          	jal	t4,8ffdf99e <offset+0x8ffdf8d6>
900043b8:	deadbeef          	jal	t4,8ffdf9a2 <offset+0x8ffdf8da>
900043bc:	deadbeef          	jal	t4,8ffdf9a6 <offset+0x8ffdf8de>
900043c0:	deadbeef          	jal	t4,8ffdf9aa <offset+0x8ffdf8e2>
900043c4:	deadbeef          	jal	t4,8ffdf9ae <offset+0x8ffdf8e6>
900043c8:	deadbeef          	jal	t4,8ffdf9b2 <offset+0x8ffdf8ea>
900043cc:	deadbeef          	jal	t4,8ffdf9b6 <offset+0x8ffdf8ee>
900043d0:	deadbeef          	jal	t4,8ffdf9ba <offset+0x8ffdf8f2>
900043d4:	deadbeef          	jal	t4,8ffdf9be <offset+0x8ffdf8f6>
900043d8:	deadbeef          	jal	t4,8ffdf9c2 <offset+0x8ffdf8fa>
900043dc:	deadbeef          	jal	t4,8ffdf9c6 <offset+0x8ffdf8fe>
900043e0:	deadbeef          	jal	t4,8ffdf9ca <offset+0x8ffdf902>
900043e4:	deadbeef          	jal	t4,8ffdf9ce <offset+0x8ffdf906>
900043e8:	deadbeef          	jal	t4,8ffdf9d2 <offset+0x8ffdf90a>
900043ec:	deadbeef          	jal	t4,8ffdf9d6 <offset+0x8ffdf90e>
900043f0:	deadbeef          	jal	t4,8ffdf9da <offset+0x8ffdf912>
900043f4:	deadbeef          	jal	t4,8ffdf9de <offset+0x8ffdf916>
900043f8:	deadbeef          	jal	t4,8ffdf9e2 <offset+0x8ffdf91a>
900043fc:	deadbeef          	jal	t4,8ffdf9e6 <offset+0x8ffdf91e>
90004400:	deadbeef          	jal	t4,8ffdf9ea <offset+0x8ffdf922>
90004404:	deadbeef          	jal	t4,8ffdf9ee <offset+0x8ffdf926>
90004408:	deadbeef          	jal	t4,8ffdf9f2 <offset+0x8ffdf92a>
9000440c:	deadbeef          	jal	t4,8ffdf9f6 <offset+0x8ffdf92e>
90004410:	deadbeef          	jal	t4,8ffdf9fa <offset+0x8ffdf932>
90004414:	deadbeef          	jal	t4,8ffdf9fe <offset+0x8ffdf936>
90004418:	deadbeef          	jal	t4,8ffdfa02 <offset+0x8ffdf93a>
9000441c:	deadbeef          	jal	t4,8ffdfa06 <offset+0x8ffdf93e>
90004420:	deadbeef          	jal	t4,8ffdfa0a <offset+0x8ffdf942>
90004424:	deadbeef          	jal	t4,8ffdfa0e <offset+0x8ffdf946>
90004428:	deadbeef          	jal	t4,8ffdfa12 <offset+0x8ffdf94a>
9000442c:	deadbeef          	jal	t4,8ffdfa16 <offset+0x8ffdf94e>
90004430:	deadbeef          	jal	t4,8ffdfa1a <offset+0x8ffdf952>
90004434:	deadbeef          	jal	t4,8ffdfa1e <offset+0x8ffdf956>
90004438:	deadbeef          	jal	t4,8ffdfa22 <offset+0x8ffdf95a>
9000443c:	deadbeef          	jal	t4,8ffdfa26 <offset+0x8ffdf95e>
90004440:	deadbeef          	jal	t4,8ffdfa2a <offset+0x8ffdf962>
90004444:	deadbeef          	jal	t4,8ffdfa2e <offset+0x8ffdf966>
90004448:	deadbeef          	jal	t4,8ffdfa32 <offset+0x8ffdf96a>
9000444c:	deadbeef          	jal	t4,8ffdfa36 <offset+0x8ffdf96e>
90004450:	deadbeef          	jal	t4,8ffdfa3a <offset+0x8ffdf972>
90004454:	deadbeef          	jal	t4,8ffdfa3e <offset+0x8ffdf976>
90004458:	deadbeef          	jal	t4,8ffdfa42 <offset+0x8ffdf97a>
9000445c:	deadbeef          	jal	t4,8ffdfa46 <offset+0x8ffdf97e>
90004460:	deadbeef          	jal	t4,8ffdfa4a <offset+0x8ffdf982>
90004464:	deadbeef          	jal	t4,8ffdfa4e <offset+0x8ffdf986>
90004468:	deadbeef          	jal	t4,8ffdfa52 <offset+0x8ffdf98a>
9000446c:	deadbeef          	jal	t4,8ffdfa56 <offset+0x8ffdf98e>
90004470:	deadbeef          	jal	t4,8ffdfa5a <offset+0x8ffdf992>
90004474:	deadbeef          	jal	t4,8ffdfa5e <offset+0x8ffdf996>
90004478:	deadbeef          	jal	t4,8ffdfa62 <offset+0x8ffdf99a>
9000447c:	deadbeef          	jal	t4,8ffdfa66 <offset+0x8ffdf99e>
90004480:	deadbeef          	jal	t4,8ffdfa6a <offset+0x8ffdf9a2>
90004484:	deadbeef          	jal	t4,8ffdfa6e <offset+0x8ffdf9a6>
90004488:	deadbeef          	jal	t4,8ffdfa72 <offset+0x8ffdf9aa>
9000448c:	deadbeef          	jal	t4,8ffdfa76 <offset+0x8ffdf9ae>
90004490:	deadbeef          	jal	t4,8ffdfa7a <offset+0x8ffdf9b2>
90004494:	deadbeef          	jal	t4,8ffdfa7e <offset+0x8ffdf9b6>
90004498:	deadbeef          	jal	t4,8ffdfa82 <offset+0x8ffdf9ba>
9000449c:	deadbeef          	jal	t4,8ffdfa86 <offset+0x8ffdf9be>
900044a0:	deadbeef          	jal	t4,8ffdfa8a <offset+0x8ffdf9c2>
900044a4:	deadbeef          	jal	t4,8ffdfa8e <offset+0x8ffdf9c6>
900044a8:	deadbeef          	jal	t4,8ffdfa92 <offset+0x8ffdf9ca>
900044ac:	deadbeef          	jal	t4,8ffdfa96 <offset+0x8ffdf9ce>
900044b0:	deadbeef          	jal	t4,8ffdfa9a <offset+0x8ffdf9d2>
900044b4:	deadbeef          	jal	t4,8ffdfa9e <offset+0x8ffdf9d6>
900044b8:	deadbeef          	jal	t4,8ffdfaa2 <offset+0x8ffdf9da>
900044bc:	deadbeef          	jal	t4,8ffdfaa6 <offset+0x8ffdf9de>
900044c0:	deadbeef          	jal	t4,8ffdfaaa <offset+0x8ffdf9e2>
900044c4:	deadbeef          	jal	t4,8ffdfaae <offset+0x8ffdf9e6>
900044c8:	deadbeef          	jal	t4,8ffdfab2 <offset+0x8ffdf9ea>
900044cc:	deadbeef          	jal	t4,8ffdfab6 <offset+0x8ffdf9ee>
900044d0:	deadbeef          	jal	t4,8ffdfaba <offset+0x8ffdf9f2>
900044d4:	deadbeef          	jal	t4,8ffdfabe <offset+0x8ffdf9f6>
900044d8:	deadbeef          	jal	t4,8ffdfac2 <offset+0x8ffdf9fa>
900044dc:	deadbeef          	jal	t4,8ffdfac6 <offset+0x8ffdf9fe>
900044e0:	deadbeef          	jal	t4,8ffdfaca <offset+0x8ffdfa02>
900044e4:	deadbeef          	jal	t4,8ffdface <offset+0x8ffdfa06>
900044e8:	deadbeef          	jal	t4,8ffdfad2 <offset+0x8ffdfa0a>
900044ec:	deadbeef          	jal	t4,8ffdfad6 <offset+0x8ffdfa0e>
900044f0:	deadbeef          	jal	t4,8ffdfada <offset+0x8ffdfa12>
900044f4:	deadbeef          	jal	t4,8ffdfade <offset+0x8ffdfa16>
900044f8:	deadbeef          	jal	t4,8ffdfae2 <offset+0x8ffdfa1a>
900044fc:	deadbeef          	jal	t4,8ffdfae6 <offset+0x8ffdfa1e>
90004500:	deadbeef          	jal	t4,8ffdfaea <offset+0x8ffdfa22>
90004504:	deadbeef          	jal	t4,8ffdfaee <offset+0x8ffdfa26>
90004508:	deadbeef          	jal	t4,8ffdfaf2 <offset+0x8ffdfa2a>
9000450c:	deadbeef          	jal	t4,8ffdfaf6 <offset+0x8ffdfa2e>
90004510:	deadbeef          	jal	t4,8ffdfafa <offset+0x8ffdfa32>
90004514:	deadbeef          	jal	t4,8ffdfafe <offset+0x8ffdfa36>
90004518:	deadbeef          	jal	t4,8ffdfb02 <offset+0x8ffdfa3a>
9000451c:	deadbeef          	jal	t4,8ffdfb06 <offset+0x8ffdfa3e>
90004520:	deadbeef          	jal	t4,8ffdfb0a <offset+0x8ffdfa42>
90004524:	deadbeef          	jal	t4,8ffdfb0e <offset+0x8ffdfa46>
90004528:	deadbeef          	jal	t4,8ffdfb12 <offset+0x8ffdfa4a>
9000452c:	deadbeef          	jal	t4,8ffdfb16 <offset+0x8ffdfa4e>
90004530:	deadbeef          	jal	t4,8ffdfb1a <offset+0x8ffdfa52>
90004534:	deadbeef          	jal	t4,8ffdfb1e <offset+0x8ffdfa56>
90004538:	deadbeef          	jal	t4,8ffdfb22 <offset+0x8ffdfa5a>
9000453c:	deadbeef          	jal	t4,8ffdfb26 <offset+0x8ffdfa5e>
90004540:	deadbeef          	jal	t4,8ffdfb2a <offset+0x8ffdfa62>
90004544:	deadbeef          	jal	t4,8ffdfb2e <offset+0x8ffdfa66>
90004548:	deadbeef          	jal	t4,8ffdfb32 <offset+0x8ffdfa6a>
9000454c:	deadbeef          	jal	t4,8ffdfb36 <offset+0x8ffdfa6e>
90004550:	deadbeef          	jal	t4,8ffdfb3a <offset+0x8ffdfa72>
90004554:	deadbeef          	jal	t4,8ffdfb3e <offset+0x8ffdfa76>
90004558:	deadbeef          	jal	t4,8ffdfb42 <offset+0x8ffdfa7a>
9000455c:	deadbeef          	jal	t4,8ffdfb46 <offset+0x8ffdfa7e>
90004560:	deadbeef          	jal	t4,8ffdfb4a <offset+0x8ffdfa82>
90004564:	deadbeef          	jal	t4,8ffdfb4e <offset+0x8ffdfa86>
90004568:	deadbeef          	jal	t4,8ffdfb52 <offset+0x8ffdfa8a>
9000456c:	deadbeef          	jal	t4,8ffdfb56 <offset+0x8ffdfa8e>
90004570:	deadbeef          	jal	t4,8ffdfb5a <offset+0x8ffdfa92>
90004574:	deadbeef          	jal	t4,8ffdfb5e <offset+0x8ffdfa96>
90004578:	deadbeef          	jal	t4,8ffdfb62 <offset+0x8ffdfa9a>
9000457c:	deadbeef          	jal	t4,8ffdfb66 <offset+0x8ffdfa9e>
90004580:	deadbeef          	jal	t4,8ffdfb6a <offset+0x8ffdfaa2>
90004584:	deadbeef          	jal	t4,8ffdfb6e <offset+0x8ffdfaa6>
90004588:	deadbeef          	jal	t4,8ffdfb72 <offset+0x8ffdfaaa>
9000458c:	deadbeef          	jal	t4,8ffdfb76 <offset+0x8ffdfaae>
90004590:	deadbeef          	jal	t4,8ffdfb7a <offset+0x8ffdfab2>
90004594:	deadbeef          	jal	t4,8ffdfb7e <offset+0x8ffdfab6>
90004598:	deadbeef          	jal	t4,8ffdfb82 <offset+0x8ffdfaba>
9000459c:	deadbeef          	jal	t4,8ffdfb86 <offset+0x8ffdfabe>
900045a0:	deadbeef          	jal	t4,8ffdfb8a <offset+0x8ffdfac2>
900045a4:	deadbeef          	jal	t4,8ffdfb8e <offset+0x8ffdfac6>
900045a8:	deadbeef          	jal	t4,8ffdfb92 <offset+0x8ffdfaca>
900045ac:	deadbeef          	jal	t4,8ffdfb96 <offset+0x8ffdface>
900045b0:	deadbeef          	jal	t4,8ffdfb9a <offset+0x8ffdfad2>
900045b4:	deadbeef          	jal	t4,8ffdfb9e <offset+0x8ffdfad6>
900045b8:	deadbeef          	jal	t4,8ffdfba2 <offset+0x8ffdfada>
900045bc:	deadbeef          	jal	t4,8ffdfba6 <offset+0x8ffdfade>
900045c0:	deadbeef          	jal	t4,8ffdfbaa <offset+0x8ffdfae2>
900045c4:	deadbeef          	jal	t4,8ffdfbae <offset+0x8ffdfae6>
900045c8:	deadbeef          	jal	t4,8ffdfbb2 <offset+0x8ffdfaea>
900045cc:	deadbeef          	jal	t4,8ffdfbb6 <offset+0x8ffdfaee>
900045d0:	deadbeef          	jal	t4,8ffdfbba <offset+0x8ffdfaf2>
900045d4:	deadbeef          	jal	t4,8ffdfbbe <offset+0x8ffdfaf6>
900045d8:	deadbeef          	jal	t4,8ffdfbc2 <offset+0x8ffdfafa>
900045dc:	deadbeef          	jal	t4,8ffdfbc6 <offset+0x8ffdfafe>
900045e0:	deadbeef          	jal	t4,8ffdfbca <offset+0x8ffdfb02>
900045e4:	deadbeef          	jal	t4,8ffdfbce <offset+0x8ffdfb06>
900045e8:	deadbeef          	jal	t4,8ffdfbd2 <offset+0x8ffdfb0a>
900045ec:	deadbeef          	jal	t4,8ffdfbd6 <offset+0x8ffdfb0e>
900045f0:	deadbeef          	jal	t4,8ffdfbda <offset+0x8ffdfb12>
900045f4:	deadbeef          	jal	t4,8ffdfbde <offset+0x8ffdfb16>
900045f8:	deadbeef          	jal	t4,8ffdfbe2 <offset+0x8ffdfb1a>
900045fc:	deadbeef          	jal	t4,8ffdfbe6 <offset+0x8ffdfb1e>
90004600:	deadbeef          	jal	t4,8ffdfbea <offset+0x8ffdfb22>
90004604:	deadbeef          	jal	t4,8ffdfbee <offset+0x8ffdfb26>
90004608:	deadbeef          	jal	t4,8ffdfbf2 <offset+0x8ffdfb2a>
9000460c:	deadbeef          	jal	t4,8ffdfbf6 <offset+0x8ffdfb2e>
90004610:	deadbeef          	jal	t4,8ffdfbfa <offset+0x8ffdfb32>
90004614:	deadbeef          	jal	t4,8ffdfbfe <offset+0x8ffdfb36>
90004618:	deadbeef          	jal	t4,8ffdfc02 <offset+0x8ffdfb3a>
9000461c:	deadbeef          	jal	t4,8ffdfc06 <offset+0x8ffdfb3e>
90004620:	deadbeef          	jal	t4,8ffdfc0a <offset+0x8ffdfb42>
90004624:	deadbeef          	jal	t4,8ffdfc0e <offset+0x8ffdfb46>
90004628:	deadbeef          	jal	t4,8ffdfc12 <offset+0x8ffdfb4a>
9000462c:	deadbeef          	jal	t4,8ffdfc16 <offset+0x8ffdfb4e>
90004630:	deadbeef          	jal	t4,8ffdfc1a <offset+0x8ffdfb52>
90004634:	deadbeef          	jal	t4,8ffdfc1e <offset+0x8ffdfb56>
90004638:	deadbeef          	jal	t4,8ffdfc22 <offset+0x8ffdfb5a>
9000463c:	deadbeef          	jal	t4,8ffdfc26 <offset+0x8ffdfb5e>
90004640:	deadbeef          	jal	t4,8ffdfc2a <offset+0x8ffdfb62>
90004644:	deadbeef          	jal	t4,8ffdfc2e <offset+0x8ffdfb66>
90004648:	deadbeef          	jal	t4,8ffdfc32 <offset+0x8ffdfb6a>
9000464c:	deadbeef          	jal	t4,8ffdfc36 <offset+0x8ffdfb6e>
90004650:	deadbeef          	jal	t4,8ffdfc3a <offset+0x8ffdfb72>
90004654:	deadbeef          	jal	t4,8ffdfc3e <offset+0x8ffdfb76>
90004658:	deadbeef          	jal	t4,8ffdfc42 <offset+0x8ffdfb7a>
9000465c:	deadbeef          	jal	t4,8ffdfc46 <offset+0x8ffdfb7e>
90004660:	deadbeef          	jal	t4,8ffdfc4a <offset+0x8ffdfb82>
90004664:	deadbeef          	jal	t4,8ffdfc4e <offset+0x8ffdfb86>
90004668:	deadbeef          	jal	t4,8ffdfc52 <offset+0x8ffdfb8a>
9000466c:	deadbeef          	jal	t4,8ffdfc56 <offset+0x8ffdfb8e>
90004670:	deadbeef          	jal	t4,8ffdfc5a <offset+0x8ffdfb92>
90004674:	deadbeef          	jal	t4,8ffdfc5e <offset+0x8ffdfb96>
90004678:	deadbeef          	jal	t4,8ffdfc62 <offset+0x8ffdfb9a>
9000467c:	deadbeef          	jal	t4,8ffdfc66 <offset+0x8ffdfb9e>
90004680:	deadbeef          	jal	t4,8ffdfc6a <offset+0x8ffdfba2>
90004684:	deadbeef          	jal	t4,8ffdfc6e <offset+0x8ffdfba6>
90004688:	deadbeef          	jal	t4,8ffdfc72 <offset+0x8ffdfbaa>
9000468c:	deadbeef          	jal	t4,8ffdfc76 <offset+0x8ffdfbae>
90004690:	deadbeef          	jal	t4,8ffdfc7a <offset+0x8ffdfbb2>
90004694:	deadbeef          	jal	t4,8ffdfc7e <offset+0x8ffdfbb6>
90004698:	deadbeef          	jal	t4,8ffdfc82 <offset+0x8ffdfbba>
9000469c:	deadbeef          	jal	t4,8ffdfc86 <offset+0x8ffdfbbe>
900046a0:	deadbeef          	jal	t4,8ffdfc8a <offset+0x8ffdfbc2>
900046a4:	deadbeef          	jal	t4,8ffdfc8e <offset+0x8ffdfbc6>
900046a8:	deadbeef          	jal	t4,8ffdfc92 <offset+0x8ffdfbca>
900046ac:	deadbeef          	jal	t4,8ffdfc96 <offset+0x8ffdfbce>
900046b0:	deadbeef          	jal	t4,8ffdfc9a <offset+0x8ffdfbd2>
900046b4:	deadbeef          	jal	t4,8ffdfc9e <offset+0x8ffdfbd6>
900046b8:	deadbeef          	jal	t4,8ffdfca2 <offset+0x8ffdfbda>
900046bc:	deadbeef          	jal	t4,8ffdfca6 <offset+0x8ffdfbde>
900046c0:	deadbeef          	jal	t4,8ffdfcaa <offset+0x8ffdfbe2>
900046c4:	deadbeef          	jal	t4,8ffdfcae <offset+0x8ffdfbe6>
900046c8:	deadbeef          	jal	t4,8ffdfcb2 <offset+0x8ffdfbea>
900046cc:	deadbeef          	jal	t4,8ffdfcb6 <offset+0x8ffdfbee>
900046d0:	deadbeef          	jal	t4,8ffdfcba <offset+0x8ffdfbf2>
900046d4:	deadbeef          	jal	t4,8ffdfcbe <offset+0x8ffdfbf6>
900046d8:	deadbeef          	jal	t4,8ffdfcc2 <offset+0x8ffdfbfa>
900046dc:	deadbeef          	jal	t4,8ffdfcc6 <offset+0x8ffdfbfe>
900046e0:	deadbeef          	jal	t4,8ffdfcca <offset+0x8ffdfc02>
900046e4:	deadbeef          	jal	t4,8ffdfcce <offset+0x8ffdfc06>
900046e8:	deadbeef          	jal	t4,8ffdfcd2 <offset+0x8ffdfc0a>
900046ec:	deadbeef          	jal	t4,8ffdfcd6 <offset+0x8ffdfc0e>
900046f0:	deadbeef          	jal	t4,8ffdfcda <offset+0x8ffdfc12>
900046f4:	deadbeef          	jal	t4,8ffdfcde <offset+0x8ffdfc16>
900046f8:	deadbeef          	jal	t4,8ffdfce2 <offset+0x8ffdfc1a>
900046fc:	deadbeef          	jal	t4,8ffdfce6 <offset+0x8ffdfc1e>
90004700:	deadbeef          	jal	t4,8ffdfcea <offset+0x8ffdfc22>
90004704:	deadbeef          	jal	t4,8ffdfcee <offset+0x8ffdfc26>
90004708:	deadbeef          	jal	t4,8ffdfcf2 <offset+0x8ffdfc2a>
9000470c:	deadbeef          	jal	t4,8ffdfcf6 <offset+0x8ffdfc2e>
90004710:	deadbeef          	jal	t4,8ffdfcfa <offset+0x8ffdfc32>
90004714:	deadbeef          	jal	t4,8ffdfcfe <offset+0x8ffdfc36>
90004718:	deadbeef          	jal	t4,8ffdfd02 <offset+0x8ffdfc3a>
9000471c:	deadbeef          	jal	t4,8ffdfd06 <offset+0x8ffdfc3e>
90004720:	deadbeef          	jal	t4,8ffdfd0a <offset+0x8ffdfc42>
90004724:	deadbeef          	jal	t4,8ffdfd0e <offset+0x8ffdfc46>
90004728:	deadbeef          	jal	t4,8ffdfd12 <offset+0x8ffdfc4a>
9000472c:	deadbeef          	jal	t4,8ffdfd16 <offset+0x8ffdfc4e>
90004730:	deadbeef          	jal	t4,8ffdfd1a <offset+0x8ffdfc52>
90004734:	deadbeef          	jal	t4,8ffdfd1e <offset+0x8ffdfc56>
90004738:	deadbeef          	jal	t4,8ffdfd22 <offset+0x8ffdfc5a>
9000473c:	deadbeef          	jal	t4,8ffdfd26 <offset+0x8ffdfc5e>
90004740:	deadbeef          	jal	t4,8ffdfd2a <offset+0x8ffdfc62>
90004744:	deadbeef          	jal	t4,8ffdfd2e <offset+0x8ffdfc66>
90004748:	deadbeef          	jal	t4,8ffdfd32 <offset+0x8ffdfc6a>
9000474c:	deadbeef          	jal	t4,8ffdfd36 <offset+0x8ffdfc6e>
90004750:	deadbeef          	jal	t4,8ffdfd3a <offset+0x8ffdfc72>
90004754:	deadbeef          	jal	t4,8ffdfd3e <offset+0x8ffdfc76>
90004758:	deadbeef          	jal	t4,8ffdfd42 <offset+0x8ffdfc7a>
9000475c:	deadbeef          	jal	t4,8ffdfd46 <offset+0x8ffdfc7e>
90004760:	deadbeef          	jal	t4,8ffdfd4a <offset+0x8ffdfc82>
90004764:	deadbeef          	jal	t4,8ffdfd4e <offset+0x8ffdfc86>
90004768:	deadbeef          	jal	t4,8ffdfd52 <offset+0x8ffdfc8a>
9000476c:	deadbeef          	jal	t4,8ffdfd56 <offset+0x8ffdfc8e>
90004770:	deadbeef          	jal	t4,8ffdfd5a <offset+0x8ffdfc92>
90004774:	deadbeef          	jal	t4,8ffdfd5e <offset+0x8ffdfc96>
90004778:	deadbeef          	jal	t4,8ffdfd62 <offset+0x8ffdfc9a>
9000477c:	deadbeef          	jal	t4,8ffdfd66 <offset+0x8ffdfc9e>
90004780:	deadbeef          	jal	t4,8ffdfd6a <offset+0x8ffdfca2>
90004784:	deadbeef          	jal	t4,8ffdfd6e <offset+0x8ffdfca6>
90004788:	deadbeef          	jal	t4,8ffdfd72 <offset+0x8ffdfcaa>
9000478c:	deadbeef          	jal	t4,8ffdfd76 <offset+0x8ffdfcae>
90004790:	deadbeef          	jal	t4,8ffdfd7a <offset+0x8ffdfcb2>
90004794:	deadbeef          	jal	t4,8ffdfd7e <offset+0x8ffdfcb6>
90004798:	deadbeef          	jal	t4,8ffdfd82 <offset+0x8ffdfcba>
9000479c:	deadbeef          	jal	t4,8ffdfd86 <offset+0x8ffdfcbe>
900047a0:	deadbeef          	jal	t4,8ffdfd8a <offset+0x8ffdfcc2>
900047a4:	deadbeef          	jal	t4,8ffdfd8e <offset+0x8ffdfcc6>
900047a8:	deadbeef          	jal	t4,8ffdfd92 <offset+0x8ffdfcca>
900047ac:	deadbeef          	jal	t4,8ffdfd96 <offset+0x8ffdfcce>
900047b0:	deadbeef          	jal	t4,8ffdfd9a <offset+0x8ffdfcd2>
900047b4:	deadbeef          	jal	t4,8ffdfd9e <offset+0x8ffdfcd6>
900047b8:	deadbeef          	jal	t4,8ffdfda2 <offset+0x8ffdfcda>
900047bc:	deadbeef          	jal	t4,8ffdfda6 <offset+0x8ffdfcde>
900047c0:	deadbeef          	jal	t4,8ffdfdaa <offset+0x8ffdfce2>
900047c4:	deadbeef          	jal	t4,8ffdfdae <offset+0x8ffdfce6>
900047c8:	deadbeef          	jal	t4,8ffdfdb2 <offset+0x8ffdfcea>
900047cc:	deadbeef          	jal	t4,8ffdfdb6 <offset+0x8ffdfcee>
900047d0:	deadbeef          	jal	t4,8ffdfdba <offset+0x8ffdfcf2>
900047d4:	deadbeef          	jal	t4,8ffdfdbe <offset+0x8ffdfcf6>
900047d8:	deadbeef          	jal	t4,8ffdfdc2 <offset+0x8ffdfcfa>
900047dc:	deadbeef          	jal	t4,8ffdfdc6 <offset+0x8ffdfcfe>
900047e0:	deadbeef          	jal	t4,8ffdfdca <offset+0x8ffdfd02>
900047e4:	deadbeef          	jal	t4,8ffdfdce <offset+0x8ffdfd06>
900047e8:	deadbeef          	jal	t4,8ffdfdd2 <offset+0x8ffdfd0a>
900047ec:	deadbeef          	jal	t4,8ffdfdd6 <offset+0x8ffdfd0e>
900047f0:	deadbeef          	jal	t4,8ffdfdda <offset+0x8ffdfd12>
900047f4:	deadbeef          	jal	t4,8ffdfdde <offset+0x8ffdfd16>
900047f8:	deadbeef          	jal	t4,8ffdfde2 <offset+0x8ffdfd1a>
900047fc:	deadbeef          	jal	t4,8ffdfde6 <offset+0x8ffdfd1e>
90004800:	deadbeef          	jal	t4,8ffdfdea <offset+0x8ffdfd22>
90004804:	deadbeef          	jal	t4,8ffdfdee <offset+0x8ffdfd26>
90004808:	deadbeef          	jal	t4,8ffdfdf2 <offset+0x8ffdfd2a>
9000480c:	deadbeef          	jal	t4,8ffdfdf6 <offset+0x8ffdfd2e>
90004810:	deadbeef          	jal	t4,8ffdfdfa <offset+0x8ffdfd32>
90004814:	deadbeef          	jal	t4,8ffdfdfe <offset+0x8ffdfd36>
90004818:	deadbeef          	jal	t4,8ffdfe02 <offset+0x8ffdfd3a>
9000481c:	deadbeef          	jal	t4,8ffdfe06 <offset+0x8ffdfd3e>
90004820:	deadbeef          	jal	t4,8ffdfe0a <offset+0x8ffdfd42>
90004824:	deadbeef          	jal	t4,8ffdfe0e <offset+0x8ffdfd46>
90004828:	deadbeef          	jal	t4,8ffdfe12 <offset+0x8ffdfd4a>
9000482c:	deadbeef          	jal	t4,8ffdfe16 <offset+0x8ffdfd4e>
90004830:	deadbeef          	jal	t4,8ffdfe1a <offset+0x8ffdfd52>
90004834:	deadbeef          	jal	t4,8ffdfe1e <offset+0x8ffdfd56>
90004838:	deadbeef          	jal	t4,8ffdfe22 <offset+0x8ffdfd5a>
9000483c:	deadbeef          	jal	t4,8ffdfe26 <offset+0x8ffdfd5e>
90004840:	deadbeef          	jal	t4,8ffdfe2a <offset+0x8ffdfd62>
90004844:	deadbeef          	jal	t4,8ffdfe2e <offset+0x8ffdfd66>
90004848:	deadbeef          	jal	t4,8ffdfe32 <offset+0x8ffdfd6a>
9000484c:	deadbeef          	jal	t4,8ffdfe36 <offset+0x8ffdfd6e>
90004850:	deadbeef          	jal	t4,8ffdfe3a <offset+0x8ffdfd72>
90004854:	deadbeef          	jal	t4,8ffdfe3e <offset+0x8ffdfd76>
90004858:	deadbeef          	jal	t4,8ffdfe42 <offset+0x8ffdfd7a>
9000485c:	deadbeef          	jal	t4,8ffdfe46 <offset+0x8ffdfd7e>
90004860:	deadbeef          	jal	t4,8ffdfe4a <offset+0x8ffdfd82>
90004864:	deadbeef          	jal	t4,8ffdfe4e <offset+0x8ffdfd86>
90004868:	deadbeef          	jal	t4,8ffdfe52 <offset+0x8ffdfd8a>

9000486c <signature_x1_1>:
9000486c:	deadbeef          	jal	t4,8ffdfe56 <offset+0x8ffdfd8e>
90004870:	deadbeef          	jal	t4,8ffdfe5a <offset+0x8ffdfd92>
90004874:	deadbeef          	jal	t4,8ffdfe5e <offset+0x8ffdfd96>
90004878:	deadbeef          	jal	t4,8ffdfe62 <offset+0x8ffdfd9a>
9000487c:	deadbeef          	jal	t4,8ffdfe66 <offset+0x8ffdfd9e>
90004880:	deadbeef          	jal	t4,8ffdfe6a <offset+0x8ffdfda2>
90004884:	deadbeef          	jal	t4,8ffdfe6e <offset+0x8ffdfda6>
90004888:	deadbeef          	jal	t4,8ffdfe72 <offset+0x8ffdfdaa>
9000488c:	deadbeef          	jal	t4,8ffdfe76 <offset+0x8ffdfdae>
90004890:	deadbeef          	jal	t4,8ffdfe7a <offset+0x8ffdfdb2>
90004894:	deadbeef          	jal	t4,8ffdfe7e <offset+0x8ffdfdb6>
90004898:	deadbeef          	jal	t4,8ffdfe82 <offset+0x8ffdfdba>
9000489c:	deadbeef          	jal	t4,8ffdfe86 <offset+0x8ffdfdbe>
900048a0:	deadbeef          	jal	t4,8ffdfe8a <offset+0x8ffdfdc2>
900048a4:	deadbeef          	jal	t4,8ffdfe8e <offset+0x8ffdfdc6>
900048a8:	deadbeef          	jal	t4,8ffdfe92 <offset+0x8ffdfdca>
900048ac:	deadbeef          	jal	t4,8ffdfe96 <offset+0x8ffdfdce>
900048b0:	deadbeef          	jal	t4,8ffdfe9a <offset+0x8ffdfdd2>
900048b4:	deadbeef          	jal	t4,8ffdfe9e <offset+0x8ffdfdd6>
900048b8:	deadbeef          	jal	t4,8ffdfea2 <offset+0x8ffdfdda>
900048bc:	deadbeef          	jal	t4,8ffdfea6 <offset+0x8ffdfdde>
900048c0:	deadbeef          	jal	t4,8ffdfeaa <offset+0x8ffdfde2>
900048c4:	deadbeef          	jal	t4,8ffdfeae <offset+0x8ffdfde6>
900048c8:	deadbeef          	jal	t4,8ffdfeb2 <offset+0x8ffdfdea>
900048cc:	deadbeef          	jal	t4,8ffdfeb6 <offset+0x8ffdfdee>
900048d0:	deadbeef          	jal	t4,8ffdfeba <offset+0x8ffdfdf2>
900048d4:	deadbeef          	jal	t4,8ffdfebe <offset+0x8ffdfdf6>
900048d8:	deadbeef          	jal	t4,8ffdfec2 <offset+0x8ffdfdfa>
900048dc:	deadbeef          	jal	t4,8ffdfec6 <offset+0x8ffdfdfe>
900048e0:	deadbeef          	jal	t4,8ffdfeca <offset+0x8ffdfe02>
900048e4:	deadbeef          	jal	t4,8ffdfece <offset+0x8ffdfe06>
900048e8:	deadbeef          	jal	t4,8ffdfed2 <offset+0x8ffdfe0a>
900048ec:	deadbeef          	jal	t4,8ffdfed6 <offset+0x8ffdfe0e>
900048f0:	deadbeef          	jal	t4,8ffdfeda <offset+0x8ffdfe12>
900048f4:	deadbeef          	jal	t4,8ffdfede <offset+0x8ffdfe16>
900048f8:	deadbeef          	jal	t4,8ffdfee2 <offset+0x8ffdfe1a>
900048fc:	deadbeef          	jal	t4,8ffdfee6 <offset+0x8ffdfe1e>
90004900:	deadbeef          	jal	t4,8ffdfeea <offset+0x8ffdfe22>
90004904:	deadbeef          	jal	t4,8ffdfeee <offset+0x8ffdfe26>
90004908:	deadbeef          	jal	t4,8ffdfef2 <offset+0x8ffdfe2a>
9000490c:	deadbeef          	jal	t4,8ffdfef6 <offset+0x8ffdfe2e>
90004910:	deadbeef          	jal	t4,8ffdfefa <offset+0x8ffdfe32>
90004914:	deadbeef          	jal	t4,8ffdfefe <offset+0x8ffdfe36>
90004918:	deadbeef          	jal	t4,8ffdff02 <offset+0x8ffdfe3a>
9000491c:	deadbeef          	jal	t4,8ffdff06 <offset+0x8ffdfe3e>
90004920:	deadbeef          	jal	t4,8ffdff0a <offset+0x8ffdfe42>
90004924:	deadbeef          	jal	t4,8ffdff0e <offset+0x8ffdfe46>
90004928:	deadbeef          	jal	t4,8ffdff12 <offset+0x8ffdfe4a>
9000492c:	deadbeef          	jal	t4,8ffdff16 <offset+0x8ffdfe4e>
90004930:	deadbeef          	jal	t4,8ffdff1a <offset+0x8ffdfe52>
	...

90004940 <end_signature>:
	...

90004a00 <begin_regstate>:
90004a00:	0080                	addi	s0,sp,64
	...

90004b00 <end_regstate>:
90004b00:	0004                	0x4
	...

Disassembly of section .riscv.attributes:

00000000 <.riscv.attributes>:
   0:	1e41                	addi	t3,t3,-16
   2:	0000                	unimp
   4:	7200                	flw	fs0,32(a2)
   6:	7369                	lui	t1,0xffffa
   8:	01007663          	bgeu	zero,a6,14 <offset-0xb4>
   c:	0014                	0x14
   e:	0000                	unimp
  10:	7205                	lui	tp,0xfffe1
  12:	3376                	fld	ft6,376(sp)
  14:	6932                	flw	fs2,12(sp)
  16:	7032                	flw	ft0,44(sp)
  18:	5f30                	lw	a2,120(a4)
  1a:	30703263          	0x30703263
	...

Disassembly of section .debug_line:

00000000 <.debug_line>:
   0:	0e08                	addi	a0,sp,784
   2:	0000                	unimp
   4:	00240003          	lb	zero,2(s0) # 1000002 <offset+0xffff3a>
   8:	0000                	unimp
   a:	0101                	addi	sp,sp,0
   c:	000d0efb          	0xd0efb
  10:	0101                	addi	sp,sp,0
  12:	0101                	addi	sp,sp,0
  14:	0000                	unimp
  16:	0100                	addi	s0,sp,128
  18:	0000                	unimp
  1a:	7301                	lui	t1,0xfffe0
  1c:	6372                	flw	ft6,28(sp)
  1e:	0000                	unimp
  20:	64646163          	bltu	s0,t1,662 <offset+0x59a>
  24:	302d                	jal	fffff84e <_end+0x6fffad4a>
  26:	2e31                	jal	342 <offset+0x27a>
  28:	00010053          	fadd.s	ft0,ft2,ft0,rne
  2c:	0000                	unimp
  2e:	0500                	addi	s0,sp,640
  30:	0002                	c.slli64	zero
  32:	0000                	unimp
  34:	0390                	addi	a2,sp,448
  36:	0119                	addi	sp,sp,6
  38:	f8090603          	lb	a2,-128(s2) # f80 <offset+0xeb8>
  3c:	0100                	addi	s0,sp,128
  3e:	08090503          	lb	a0,128(s2)
  42:	0100                	addi	s0,sp,128
  44:	0e090503          	lb	a0,224(s2)
  48:	0100                	addi	s0,sp,128
  4a:	0e090503          	lb	a0,224(s2)
  4e:	0100                	addi	s0,sp,128
  50:	10090503          	lb	a0,256(s2)
  54:	0100                	addi	s0,sp,128
  56:	0e090503          	lb	a0,224(s2)
  5a:	0100                	addi	s0,sp,128
  5c:	12090503          	lb	a0,288(s2)
  60:	0100                	addi	s0,sp,128
  62:	12090503          	lb	a0,288(s2)
  66:	0100                	addi	s0,sp,128
  68:	12090503          	lb	a0,288(s2)
  6c:	0100                	addi	s0,sp,128
  6e:	12090503          	lb	a0,288(s2)
  72:	0100                	addi	s0,sp,128
  74:	12090503          	lb	a0,288(s2)
  78:	0100                	addi	s0,sp,128
  7a:	0c090503          	lb	a0,192(s2)
  7e:	0100                	addi	s0,sp,128
  80:	0c090503          	lb	a0,192(s2)
  84:	0100                	addi	s0,sp,128
  86:	0c090503          	lb	a0,192(s2)
  8a:	0100                	addi	s0,sp,128
  8c:	0e090503          	lb	a0,224(s2)
  90:	0100                	addi	s0,sp,128
  92:	0e090503          	lb	a0,224(s2)
  96:	0100                	addi	s0,sp,128
  98:	12090503          	lb	a0,288(s2)
  9c:	0100                	addi	s0,sp,128
  9e:	0e090503          	lb	a0,224(s2)
  a2:	0100                	addi	s0,sp,128
  a4:	0e090503          	lb	a0,224(s2)
  a8:	0100                	addi	s0,sp,128
  aa:	12090503          	lb	a0,288(s2)
  ae:	0100                	addi	s0,sp,128
  b0:	12090503          	lb	a0,288(s2)
  b4:	0100                	addi	s0,sp,128
  b6:	0c090503          	lb	a0,192(s2)
  ba:	0100                	addi	s0,sp,128
  bc:	0e090503          	lb	a0,224(s2)
  c0:	0100                	addi	s0,sp,128
  c2:	12090503          	lb	a0,288(s2)
  c6:	0100                	addi	s0,sp,128
  c8:	12090103          	lb	sp,288(s2)
  cc:	0100                	addi	s0,sp,128
  ce:	08090503          	lb	a0,128(s2)
  d2:	0100                	addi	s0,sp,128
  d4:	12090503          	lb	a0,288(s2)
  d8:	0100                	addi	s0,sp,128
  da:	0e090503          	lb	a0,224(s2)
  de:	0100                	addi	s0,sp,128
  e0:	0e090503          	lb	a0,224(s2)
  e4:	0100                	addi	s0,sp,128
  e6:	0e090503          	lb	a0,224(s2)
  ea:	0100                	addi	s0,sp,128
  ec:	0e090503          	lb	a0,224(s2)
  f0:	0100                	addi	s0,sp,128
  f2:	12090503          	lb	a0,288(s2)
  f6:	0100                	addi	s0,sp,128
  f8:	12090503          	lb	a0,288(s2)
  fc:	0100                	addi	s0,sp,128
  fe:	12090503          	lb	a0,288(s2)
 102:	0100                	addi	s0,sp,128
 104:	0e090503          	lb	a0,224(s2)
 108:	0100                	addi	s0,sp,128
 10a:	0e090503          	lb	a0,224(s2)
 10e:	0100                	addi	s0,sp,128
 110:	12090503          	lb	a0,288(s2)
 114:	0100                	addi	s0,sp,128
 116:	0e090503          	lb	a0,224(s2)
 11a:	0100                	addi	s0,sp,128
 11c:	12090503          	lb	a0,288(s2)
 120:	0100                	addi	s0,sp,128
 122:	0e090503          	lb	a0,224(s2)
 126:	0100                	addi	s0,sp,128
 128:	0e090503          	lb	a0,224(s2)
 12c:	0100                	addi	s0,sp,128
 12e:	12090503          	lb	a0,288(s2)
 132:	0100                	addi	s0,sp,128
 134:	12090503          	lb	a0,288(s2)
 138:	0100                	addi	s0,sp,128
 13a:	0e090503          	lb	a0,224(s2)
 13e:	0100                	addi	s0,sp,128
 140:	0e090503          	lb	a0,224(s2)
 144:	0100                	addi	s0,sp,128
 146:	0e090503          	lb	a0,224(s2)
 14a:	0100                	addi	s0,sp,128
 14c:	0e090503          	lb	a0,224(s2)
 150:	0100                	addi	s0,sp,128
 152:	12090503          	lb	a0,288(s2)
 156:	0100                	addi	s0,sp,128
 158:	12090503          	lb	a0,288(s2)
 15c:	0100                	addi	s0,sp,128
 15e:	12090503          	lb	a0,288(s2)
 162:	0100                	addi	s0,sp,128
 164:	0e090503          	lb	a0,224(s2)
 168:	0100                	addi	s0,sp,128
 16a:	16090503          	lb	a0,352(s2)
 16e:	0100                	addi	s0,sp,128
 170:	12090503          	lb	a0,288(s2)
 174:	0100                	addi	s0,sp,128
 176:	12090503          	lb	a0,288(s2)
 17a:	0100                	addi	s0,sp,128
 17c:	16090503          	lb	a0,352(s2)
 180:	0100                	addi	s0,sp,128
 182:	16090503          	lb	a0,352(s2)
 186:	0100                	addi	s0,sp,128
 188:	12090503          	lb	a0,288(s2)
 18c:	0100                	addi	s0,sp,128
 18e:	12090503          	lb	a0,288(s2)
 192:	0100                	addi	s0,sp,128
 194:	12090503          	lb	a0,288(s2)
 198:	0100                	addi	s0,sp,128
 19a:	12090503          	lb	a0,288(s2)
 19e:	0100                	addi	s0,sp,128
 1a0:	12090503          	lb	a0,288(s2)
 1a4:	0100                	addi	s0,sp,128
 1a6:	12090503          	lb	a0,288(s2)
 1aa:	0100                	addi	s0,sp,128
 1ac:	12090503          	lb	a0,288(s2)
 1b0:	0100                	addi	s0,sp,128
 1b2:	16090503          	lb	a0,352(s2)
 1b6:	0100                	addi	s0,sp,128
 1b8:	12090503          	lb	a0,288(s2)
 1bc:	0100                	addi	s0,sp,128
 1be:	16090503          	lb	a0,352(s2)
 1c2:	0100                	addi	s0,sp,128
 1c4:	12090503          	lb	a0,288(s2)
 1c8:	0100                	addi	s0,sp,128
 1ca:	16090503          	lb	a0,352(s2)
 1ce:	0100                	addi	s0,sp,128
 1d0:	12090503          	lb	a0,288(s2)
 1d4:	0100                	addi	s0,sp,128
 1d6:	12090503          	lb	a0,288(s2)
 1da:	0100                	addi	s0,sp,128
 1dc:	12090503          	lb	a0,288(s2)
 1e0:	0100                	addi	s0,sp,128
 1e2:	16090503          	lb	a0,352(s2)
 1e6:	0100                	addi	s0,sp,128
 1e8:	0e090503          	lb	a0,224(s2)
 1ec:	0100                	addi	s0,sp,128
 1ee:	0e090503          	lb	a0,224(s2)
 1f2:	0100                	addi	s0,sp,128
 1f4:	12090503          	lb	a0,288(s2)
 1f8:	0100                	addi	s0,sp,128
 1fa:	0e090503          	lb	a0,224(s2)
 1fe:	0100                	addi	s0,sp,128
 200:	0e090503          	lb	a0,224(s2)
 204:	0100                	addi	s0,sp,128
 206:	0e090503          	lb	a0,224(s2)
 20a:	0100                	addi	s0,sp,128
 20c:	12090503          	lb	a0,288(s2)
 210:	0100                	addi	s0,sp,128
 212:	12090503          	lb	a0,288(s2)
 216:	0100                	addi	s0,sp,128
 218:	0e090503          	lb	a0,224(s2)
 21c:	0100                	addi	s0,sp,128
 21e:	12090503          	lb	a0,288(s2)
 222:	0100                	addi	s0,sp,128
 224:	12090503          	lb	a0,288(s2)
 228:	0100                	addi	s0,sp,128
 22a:	0e090503          	lb	a0,224(s2)
 22e:	0100                	addi	s0,sp,128
 230:	0e090503          	lb	a0,224(s2)
 234:	0100                	addi	s0,sp,128
 236:	0e090503          	lb	a0,224(s2)
 23a:	0100                	addi	s0,sp,128
 23c:	0e090503          	lb	a0,224(s2)
 240:	0100                	addi	s0,sp,128
 242:	0e090503          	lb	a0,224(s2)
 246:	0100                	addi	s0,sp,128
 248:	0e090503          	lb	a0,224(s2)
 24c:	0100                	addi	s0,sp,128
 24e:	0e090503          	lb	a0,224(s2)
 252:	0100                	addi	s0,sp,128
 254:	0e090503          	lb	a0,224(s2)
 258:	0100                	addi	s0,sp,128
 25a:	12090503          	lb	a0,288(s2)
 25e:	0100                	addi	s0,sp,128
 260:	0e090503          	lb	a0,224(s2)
 264:	0100                	addi	s0,sp,128
 266:	12090503          	lb	a0,288(s2)
 26a:	0100                	addi	s0,sp,128
 26c:	12090503          	lb	a0,288(s2)
 270:	0100                	addi	s0,sp,128
 272:	12090503          	lb	a0,288(s2)
 276:	0100                	addi	s0,sp,128
 278:	16090503          	lb	a0,352(s2)
 27c:	0100                	addi	s0,sp,128
 27e:	16090503          	lb	a0,352(s2)
 282:	0100                	addi	s0,sp,128
 284:	12090503          	lb	a0,288(s2)
 288:	0100                	addi	s0,sp,128
 28a:	12090503          	lb	a0,288(s2)
 28e:	0100                	addi	s0,sp,128
 290:	12090503          	lb	a0,288(s2)
 294:	0100                	addi	s0,sp,128
 296:	16090503          	lb	a0,352(s2)
 29a:	0100                	addi	s0,sp,128
 29c:	12090503          	lb	a0,288(s2)
 2a0:	0100                	addi	s0,sp,128
 2a2:	16090503          	lb	a0,352(s2)
 2a6:	0100                	addi	s0,sp,128
 2a8:	12090503          	lb	a0,288(s2)
 2ac:	0100                	addi	s0,sp,128
 2ae:	16090503          	lb	a0,352(s2)
 2b2:	0100                	addi	s0,sp,128
 2b4:	12090503          	lb	a0,288(s2)
 2b8:	0100                	addi	s0,sp,128
 2ba:	0e090503          	lb	a0,224(s2)
 2be:	0100                	addi	s0,sp,128
 2c0:	12090503          	lb	a0,288(s2)
 2c4:	0100                	addi	s0,sp,128
 2c6:	12090503          	lb	a0,288(s2)
 2ca:	0100                	addi	s0,sp,128
 2cc:	0e090503          	lb	a0,224(s2)
 2d0:	0100                	addi	s0,sp,128
 2d2:	12090503          	lb	a0,288(s2)
 2d6:	0100                	addi	s0,sp,128
 2d8:	12090503          	lb	a0,288(s2)
 2dc:	0100                	addi	s0,sp,128
 2de:	12090503          	lb	a0,288(s2)
 2e2:	0100                	addi	s0,sp,128
 2e4:	12090503          	lb	a0,288(s2)
 2e8:	0100                	addi	s0,sp,128
 2ea:	0e090503          	lb	a0,224(s2)
 2ee:	0100                	addi	s0,sp,128
 2f0:	12090503          	lb	a0,288(s2)
 2f4:	0100                	addi	s0,sp,128
 2f6:	0e090503          	lb	a0,224(s2)
 2fa:	0100                	addi	s0,sp,128
 2fc:	0e090503          	lb	a0,224(s2)
 300:	0100                	addi	s0,sp,128
 302:	12090503          	lb	a0,288(s2)
 306:	0100                	addi	s0,sp,128
 308:	12090503          	lb	a0,288(s2)
 30c:	0100                	addi	s0,sp,128
 30e:	12090503          	lb	a0,288(s2)
 312:	0100                	addi	s0,sp,128
 314:	12090503          	lb	a0,288(s2)
 318:	0100                	addi	s0,sp,128
 31a:	12090503          	lb	a0,288(s2)
 31e:	0100                	addi	s0,sp,128
 320:	0e090503          	lb	a0,224(s2)
 324:	0100                	addi	s0,sp,128
 326:	12090503          	lb	a0,288(s2)
 32a:	0100                	addi	s0,sp,128
 32c:	12090503          	lb	a0,288(s2)
 330:	0100                	addi	s0,sp,128
 332:	12090503          	lb	a0,288(s2)
 336:	0100                	addi	s0,sp,128
 338:	12090503          	lb	a0,288(s2)
 33c:	0100                	addi	s0,sp,128
 33e:	12090503          	lb	a0,288(s2)
 342:	0100                	addi	s0,sp,128
 344:	16090503          	lb	a0,352(s2)
 348:	0100                	addi	s0,sp,128
 34a:	16090503          	lb	a0,352(s2)
 34e:	0100                	addi	s0,sp,128
 350:	12090503          	lb	a0,288(s2)
 354:	0100                	addi	s0,sp,128
 356:	16090503          	lb	a0,352(s2)
 35a:	0100                	addi	s0,sp,128
 35c:	16090503          	lb	a0,352(s2)
 360:	0100                	addi	s0,sp,128
 362:	16090503          	lb	a0,352(s2)
 366:	0100                	addi	s0,sp,128
 368:	16090503          	lb	a0,352(s2)
 36c:	0100                	addi	s0,sp,128
 36e:	12090503          	lb	a0,288(s2)
 372:	0100                	addi	s0,sp,128
 374:	16090503          	lb	a0,352(s2)
 378:	0100                	addi	s0,sp,128
 37a:	12090503          	lb	a0,288(s2)
 37e:	0100                	addi	s0,sp,128
 380:	12090503          	lb	a0,288(s2)
 384:	0100                	addi	s0,sp,128
 386:	16090503          	lb	a0,352(s2)
 38a:	0100                	addi	s0,sp,128
 38c:	16090503          	lb	a0,352(s2)
 390:	0100                	addi	s0,sp,128
 392:	16090503          	lb	a0,352(s2)
 396:	0100                	addi	s0,sp,128
 398:	16090503          	lb	a0,352(s2)
 39c:	0100                	addi	s0,sp,128
 39e:	16090503          	lb	a0,352(s2)
 3a2:	0100                	addi	s0,sp,128
 3a4:	12090503          	lb	a0,288(s2)
 3a8:	0100                	addi	s0,sp,128
 3aa:	16090503          	lb	a0,352(s2)
 3ae:	0100                	addi	s0,sp,128
 3b0:	16090503          	lb	a0,352(s2)
 3b4:	0100                	addi	s0,sp,128
 3b6:	16090503          	lb	a0,352(s2)
 3ba:	0100                	addi	s0,sp,128
 3bc:	16090503          	lb	a0,352(s2)
 3c0:	0100                	addi	s0,sp,128
 3c2:	12090503          	lb	a0,288(s2)
 3c6:	0100                	addi	s0,sp,128
 3c8:	16090503          	lb	a0,352(s2)
 3cc:	0100                	addi	s0,sp,128
 3ce:	16090503          	lb	a0,352(s2)
 3d2:	0100                	addi	s0,sp,128
 3d4:	12090503          	lb	a0,288(s2)
 3d8:	0100                	addi	s0,sp,128
 3da:	16090503          	lb	a0,352(s2)
 3de:	0100                	addi	s0,sp,128
 3e0:	16090503          	lb	a0,352(s2)
 3e4:	0100                	addi	s0,sp,128
 3e6:	16090503          	lb	a0,352(s2)
 3ea:	0100                	addi	s0,sp,128
 3ec:	16090503          	lb	a0,352(s2)
 3f0:	0100                	addi	s0,sp,128
 3f2:	12090503          	lb	a0,288(s2)
 3f6:	0100                	addi	s0,sp,128
 3f8:	16090503          	lb	a0,352(s2)
 3fc:	0100                	addi	s0,sp,128
 3fe:	12090503          	lb	a0,288(s2)
 402:	0100                	addi	s0,sp,128
 404:	12090503          	lb	a0,288(s2)
 408:	0100                	addi	s0,sp,128
 40a:	16090503          	lb	a0,352(s2)
 40e:	0100                	addi	s0,sp,128
 410:	16090503          	lb	a0,352(s2)
 414:	0100                	addi	s0,sp,128
 416:	16090503          	lb	a0,352(s2)
 41a:	0100                	addi	s0,sp,128
 41c:	16090503          	lb	a0,352(s2)
 420:	0100                	addi	s0,sp,128
 422:	16090503          	lb	a0,352(s2)
 426:	0100                	addi	s0,sp,128
 428:	12090503          	lb	a0,288(s2)
 42c:	0100                	addi	s0,sp,128
 42e:	16090503          	lb	a0,352(s2)
 432:	0100                	addi	s0,sp,128
 434:	16090503          	lb	a0,352(s2)
 438:	0100                	addi	s0,sp,128
 43a:	16090503          	lb	a0,352(s2)
 43e:	0100                	addi	s0,sp,128
 440:	16090503          	lb	a0,352(s2)
 444:	0100                	addi	s0,sp,128
 446:	0e090503          	lb	a0,224(s2)
 44a:	0100                	addi	s0,sp,128
 44c:	12090503          	lb	a0,288(s2)
 450:	0100                	addi	s0,sp,128
 452:	0e090503          	lb	a0,224(s2)
 456:	0100                	addi	s0,sp,128
 458:	12090503          	lb	a0,288(s2)
 45c:	0100                	addi	s0,sp,128
 45e:	12090503          	lb	a0,288(s2)
 462:	0100                	addi	s0,sp,128
 464:	12090503          	lb	a0,288(s2)
 468:	0100                	addi	s0,sp,128
 46a:	12090503          	lb	a0,288(s2)
 46e:	0100                	addi	s0,sp,128
 470:	0e090503          	lb	a0,224(s2)
 474:	0100                	addi	s0,sp,128
 476:	12090503          	lb	a0,288(s2)
 47a:	0100                	addi	s0,sp,128
 47c:	0e090503          	lb	a0,224(s2)
 480:	0100                	addi	s0,sp,128
 482:	0e090503          	lb	a0,224(s2)
 486:	0100                	addi	s0,sp,128
 488:	12090503          	lb	a0,288(s2)
 48c:	0100                	addi	s0,sp,128
 48e:	12090503          	lb	a0,288(s2)
 492:	0100                	addi	s0,sp,128
 494:	12090503          	lb	a0,288(s2)
 498:	0100                	addi	s0,sp,128
 49a:	12090503          	lb	a0,288(s2)
 49e:	0100                	addi	s0,sp,128
 4a0:	12090503          	lb	a0,288(s2)
 4a4:	0100                	addi	s0,sp,128
 4a6:	0e090503          	lb	a0,224(s2)
 4aa:	0100                	addi	s0,sp,128
 4ac:	12090503          	lb	a0,288(s2)
 4b0:	0100                	addi	s0,sp,128
 4b2:	12090503          	lb	a0,288(s2)
 4b6:	0100                	addi	s0,sp,128
 4b8:	12090503          	lb	a0,288(s2)
 4bc:	0100                	addi	s0,sp,128
 4be:	12090503          	lb	a0,288(s2)
 4c2:	0100                	addi	s0,sp,128
 4c4:	12090503          	lb	a0,288(s2)
 4c8:	0100                	addi	s0,sp,128
 4ca:	16090503          	lb	a0,352(s2)
 4ce:	0100                	addi	s0,sp,128
 4d0:	16090503          	lb	a0,352(s2)
 4d4:	0100                	addi	s0,sp,128
 4d6:	12090503          	lb	a0,288(s2)
 4da:	0100                	addi	s0,sp,128
 4dc:	16090503          	lb	a0,352(s2)
 4e0:	0100                	addi	s0,sp,128
 4e2:	16090503          	lb	a0,352(s2)
 4e6:	0100                	addi	s0,sp,128
 4e8:	16090503          	lb	a0,352(s2)
 4ec:	0100                	addi	s0,sp,128
 4ee:	16090503          	lb	a0,352(s2)
 4f2:	0100                	addi	s0,sp,128
 4f4:	12090503          	lb	a0,288(s2)
 4f8:	0100                	addi	s0,sp,128
 4fa:	16090503          	lb	a0,352(s2)
 4fe:	0100                	addi	s0,sp,128
 500:	12090503          	lb	a0,288(s2)
 504:	0100                	addi	s0,sp,128
 506:	16090503          	lb	a0,352(s2)
 50a:	0100                	addi	s0,sp,128
 50c:	16090503          	lb	a0,352(s2)
 510:	0100                	addi	s0,sp,128
 512:	16090503          	lb	a0,352(s2)
 516:	0100                	addi	s0,sp,128
 518:	16090503          	lb	a0,352(s2)
 51c:	0100                	addi	s0,sp,128
 51e:	16090503          	lb	a0,352(s2)
 522:	0100                	addi	s0,sp,128
 524:	12090503          	lb	a0,288(s2)
 528:	0100                	addi	s0,sp,128
 52a:	16090503          	lb	a0,352(s2)
 52e:	0100                	addi	s0,sp,128
 530:	16090503          	lb	a0,352(s2)
 534:	0100                	addi	s0,sp,128
 536:	16090503          	lb	a0,352(s2)
 53a:	0100                	addi	s0,sp,128
 53c:	16090503          	lb	a0,352(s2)
 540:	0100                	addi	s0,sp,128
 542:	12090503          	lb	a0,288(s2)
 546:	0100                	addi	s0,sp,128
 548:	16090503          	lb	a0,352(s2)
 54c:	0100                	addi	s0,sp,128
 54e:	16090503          	lb	a0,352(s2)
 552:	0100                	addi	s0,sp,128
 554:	12090503          	lb	a0,288(s2)
 558:	0100                	addi	s0,sp,128
 55a:	16090503          	lb	a0,352(s2)
 55e:	0100                	addi	s0,sp,128
 560:	16090503          	lb	a0,352(s2)
 564:	0100                	addi	s0,sp,128
 566:	16090503          	lb	a0,352(s2)
 56a:	0100                	addi	s0,sp,128
 56c:	16090503          	lb	a0,352(s2)
 570:	0100                	addi	s0,sp,128
 572:	12090503          	lb	a0,288(s2)
 576:	0100                	addi	s0,sp,128
 578:	16090503          	lb	a0,352(s2)
 57c:	0100                	addi	s0,sp,128
 57e:	12090503          	lb	a0,288(s2)
 582:	0100                	addi	s0,sp,128
 584:	12090503          	lb	a0,288(s2)
 588:	0100                	addi	s0,sp,128
 58a:	16090503          	lb	a0,352(s2)
 58e:	0100                	addi	s0,sp,128
 590:	16090503          	lb	a0,352(s2)
 594:	0100                	addi	s0,sp,128
 596:	16090503          	lb	a0,352(s2)
 59a:	0100                	addi	s0,sp,128
 59c:	16090503          	lb	a0,352(s2)
 5a0:	0100                	addi	s0,sp,128
 5a2:	16090503          	lb	a0,352(s2)
 5a6:	0100                	addi	s0,sp,128
 5a8:	12090503          	lb	a0,288(s2)
 5ac:	0100                	addi	s0,sp,128
 5ae:	16090503          	lb	a0,352(s2)
 5b2:	0100                	addi	s0,sp,128
 5b4:	16090503          	lb	a0,352(s2)
 5b8:	0100                	addi	s0,sp,128
 5ba:	16090503          	lb	a0,352(s2)
 5be:	0100                	addi	s0,sp,128
 5c0:	16090503          	lb	a0,352(s2)
 5c4:	0100                	addi	s0,sp,128
 5c6:	12090503          	lb	a0,288(s2)
 5ca:	0100                	addi	s0,sp,128
 5cc:	16090503          	lb	a0,352(s2)
 5d0:	0100                	addi	s0,sp,128
 5d2:	12090503          	lb	a0,288(s2)
 5d6:	0100                	addi	s0,sp,128
 5d8:	16090503          	lb	a0,352(s2)
 5dc:	0100                	addi	s0,sp,128
 5de:	16090503          	lb	a0,352(s2)
 5e2:	0100                	addi	s0,sp,128
 5e4:	16090503          	lb	a0,352(s2)
 5e8:	0100                	addi	s0,sp,128
 5ea:	16090503          	lb	a0,352(s2)
 5ee:	0100                	addi	s0,sp,128
 5f0:	12090503          	lb	a0,288(s2)
 5f4:	0100                	addi	s0,sp,128
 5f6:	16090503          	lb	a0,352(s2)
 5fa:	0100                	addi	s0,sp,128
 5fc:	12090503          	lb	a0,288(s2)
 600:	0100                	addi	s0,sp,128
 602:	12090503          	lb	a0,288(s2)
 606:	0100                	addi	s0,sp,128
 608:	16090503          	lb	a0,352(s2)
 60c:	0100                	addi	s0,sp,128
 60e:	16090503          	lb	a0,352(s2)
 612:	0100                	addi	s0,sp,128
 614:	16090503          	lb	a0,352(s2)
 618:	0100                	addi	s0,sp,128
 61a:	16090503          	lb	a0,352(s2)
 61e:	0100                	addi	s0,sp,128
 620:	16090503          	lb	a0,352(s2)
 624:	0100                	addi	s0,sp,128
 626:	12090503          	lb	a0,288(s2)
 62a:	0100                	addi	s0,sp,128
 62c:	16090503          	lb	a0,352(s2)
 630:	0100                	addi	s0,sp,128
 632:	16090503          	lb	a0,352(s2)
 636:	0100                	addi	s0,sp,128
 638:	16090503          	lb	a0,352(s2)
 63c:	0100                	addi	s0,sp,128
 63e:	16090503          	lb	a0,352(s2)
 642:	0100                	addi	s0,sp,128
 644:	12090503          	lb	a0,288(s2)
 648:	0100                	addi	s0,sp,128
 64a:	16090503          	lb	a0,352(s2)
 64e:	0100                	addi	s0,sp,128
 650:	16090503          	lb	a0,352(s2)
 654:	0100                	addi	s0,sp,128
 656:	12090503          	lb	a0,288(s2)
 65a:	0100                	addi	s0,sp,128
 65c:	16090503          	lb	a0,352(s2)
 660:	0100                	addi	s0,sp,128
 662:	16090503          	lb	a0,352(s2)
 666:	0100                	addi	s0,sp,128
 668:	16090503          	lb	a0,352(s2)
 66c:	0100                	addi	s0,sp,128
 66e:	16090503          	lb	a0,352(s2)
 672:	0100                	addi	s0,sp,128
 674:	12090503          	lb	a0,288(s2)
 678:	0100                	addi	s0,sp,128
 67a:	16090503          	lb	a0,352(s2)
 67e:	0100                	addi	s0,sp,128
 680:	12090503          	lb	a0,288(s2)
 684:	0100                	addi	s0,sp,128
 686:	12090503          	lb	a0,288(s2)
 68a:	0100                	addi	s0,sp,128
 68c:	16090503          	lb	a0,352(s2)
 690:	0100                	addi	s0,sp,128
 692:	16090503          	lb	a0,352(s2)
 696:	0100                	addi	s0,sp,128
 698:	16090503          	lb	a0,352(s2)
 69c:	0100                	addi	s0,sp,128
 69e:	16090503          	lb	a0,352(s2)
 6a2:	0100                	addi	s0,sp,128
 6a4:	16090503          	lb	a0,352(s2)
 6a8:	0100                	addi	s0,sp,128
 6aa:	12090503          	lb	a0,288(s2)
 6ae:	0100                	addi	s0,sp,128
 6b0:	16090503          	lb	a0,352(s2)
 6b4:	0100                	addi	s0,sp,128
 6b6:	16090503          	lb	a0,352(s2)
 6ba:	0100                	addi	s0,sp,128
 6bc:	16090503          	lb	a0,352(s2)
 6c0:	0100                	addi	s0,sp,128
 6c2:	16090503          	lb	a0,352(s2)
 6c6:	0100                	addi	s0,sp,128
 6c8:	0e090503          	lb	a0,224(s2)
 6cc:	0100                	addi	s0,sp,128
 6ce:	12090503          	lb	a0,288(s2)
 6d2:	0100                	addi	s0,sp,128
 6d4:	12090503          	lb	a0,288(s2)
 6d8:	0100                	addi	s0,sp,128
 6da:	0e090503          	lb	a0,224(s2)
 6de:	0100                	addi	s0,sp,128
 6e0:	12090503          	lb	a0,288(s2)
 6e4:	0100                	addi	s0,sp,128
 6e6:	12090503          	lb	a0,288(s2)
 6ea:	0100                	addi	s0,sp,128
 6ec:	12090503          	lb	a0,288(s2)
 6f0:	0100                	addi	s0,sp,128
 6f2:	12090503          	lb	a0,288(s2)
 6f6:	0100                	addi	s0,sp,128
 6f8:	0e090503          	lb	a0,224(s2)
 6fc:	0100                	addi	s0,sp,128
 6fe:	12090503          	lb	a0,288(s2)
 702:	0100                	addi	s0,sp,128
 704:	0e090503          	lb	a0,224(s2)
 708:	0100                	addi	s0,sp,128
 70a:	0e090503          	lb	a0,224(s2)
 70e:	0100                	addi	s0,sp,128
 710:	12090503          	lb	a0,288(s2)
 714:	0100                	addi	s0,sp,128
 716:	12090503          	lb	a0,288(s2)
 71a:	0100                	addi	s0,sp,128
 71c:	12090503          	lb	a0,288(s2)
 720:	0100                	addi	s0,sp,128
 722:	12090503          	lb	a0,288(s2)
 726:	0100                	addi	s0,sp,128
 728:	12090503          	lb	a0,288(s2)
 72c:	0100                	addi	s0,sp,128
 72e:	0e090503          	lb	a0,224(s2)
 732:	0100                	addi	s0,sp,128
 734:	12090503          	lb	a0,288(s2)
 738:	0100                	addi	s0,sp,128
 73a:	12090503          	lb	a0,288(s2)
 73e:	0100                	addi	s0,sp,128
 740:	12090503          	lb	a0,288(s2)
 744:	0100                	addi	s0,sp,128
 746:	12090503          	lb	a0,288(s2)
 74a:	0100                	addi	s0,sp,128
 74c:	12090503          	lb	a0,288(s2)
 750:	0100                	addi	s0,sp,128
 752:	16090503          	lb	a0,352(s2)
 756:	0100                	addi	s0,sp,128
 758:	16090503          	lb	a0,352(s2)
 75c:	0100                	addi	s0,sp,128
 75e:	12090503          	lb	a0,288(s2)
 762:	0100                	addi	s0,sp,128
 764:	16090503          	lb	a0,352(s2)
 768:	0100                	addi	s0,sp,128
 76a:	16090503          	lb	a0,352(s2)
 76e:	0100                	addi	s0,sp,128
 770:	16090503          	lb	a0,352(s2)
 774:	0100                	addi	s0,sp,128
 776:	16090503          	lb	a0,352(s2)
 77a:	0100                	addi	s0,sp,128
 77c:	12090503          	lb	a0,288(s2)
 780:	0100                	addi	s0,sp,128
 782:	16090503          	lb	a0,352(s2)
 786:	0100                	addi	s0,sp,128
 788:	12090503          	lb	a0,288(s2)
 78c:	0100                	addi	s0,sp,128
 78e:	12090503          	lb	a0,288(s2)
 792:	0100                	addi	s0,sp,128
 794:	16090503          	lb	a0,352(s2)
 798:	0100                	addi	s0,sp,128
 79a:	16090503          	lb	a0,352(s2)
 79e:	0100                	addi	s0,sp,128
 7a0:	16090503          	lb	a0,352(s2)
 7a4:	0100                	addi	s0,sp,128
 7a6:	16090503          	lb	a0,352(s2)
 7aa:	0100                	addi	s0,sp,128
 7ac:	16090503          	lb	a0,352(s2)
 7b0:	0100                	addi	s0,sp,128
 7b2:	12090503          	lb	a0,288(s2)
 7b6:	0100                	addi	s0,sp,128
 7b8:	16090503          	lb	a0,352(s2)
 7bc:	0100                	addi	s0,sp,128
 7be:	16090503          	lb	a0,352(s2)
 7c2:	0100                	addi	s0,sp,128
 7c4:	16090503          	lb	a0,352(s2)
 7c8:	0100                	addi	s0,sp,128
 7ca:	16090503          	lb	a0,352(s2)
 7ce:	0100                	addi	s0,sp,128
 7d0:	0e090503          	lb	a0,224(s2)
 7d4:	0100                	addi	s0,sp,128
 7d6:	12090503          	lb	a0,288(s2)
 7da:	0100                	addi	s0,sp,128
 7dc:	12090503          	lb	a0,288(s2)
 7e0:	0100                	addi	s0,sp,128
 7e2:	0e090503          	lb	a0,224(s2)
 7e6:	0100                	addi	s0,sp,128
 7e8:	12090503          	lb	a0,288(s2)
 7ec:	0100                	addi	s0,sp,128
 7ee:	12090503          	lb	a0,288(s2)
 7f2:	0100                	addi	s0,sp,128
 7f4:	12090503          	lb	a0,288(s2)
 7f8:	0100                	addi	s0,sp,128
 7fa:	12090503          	lb	a0,288(s2)
 7fe:	0100                	addi	s0,sp,128
 800:	0e090503          	lb	a0,224(s2)
 804:	0100                	addi	s0,sp,128
 806:	16090503          	lb	a0,352(s2)
 80a:	0100                	addi	s0,sp,128
 80c:	16090503          	lb	a0,352(s2)
 810:	0100                	addi	s0,sp,128
 812:	0e090503          	lb	a0,224(s2)
 816:	0100                	addi	s0,sp,128
 818:	12090503          	lb	a0,288(s2)
 81c:	0100                	addi	s0,sp,128
 81e:	12090503          	lb	a0,288(s2)
 822:	0100                	addi	s0,sp,128
 824:	0e090503          	lb	a0,224(s2)
 828:	0100                	addi	s0,sp,128
 82a:	12090503          	lb	a0,288(s2)
 82e:	0100                	addi	s0,sp,128
 830:	12090503          	lb	a0,288(s2)
 834:	0100                	addi	s0,sp,128
 836:	12090503          	lb	a0,288(s2)
 83a:	0100                	addi	s0,sp,128
 83c:	12090503          	lb	a0,288(s2)
 840:	0100                	addi	s0,sp,128
 842:	0e090503          	lb	a0,224(s2)
 846:	0100                	addi	s0,sp,128
 848:	12090503          	lb	a0,288(s2)
 84c:	0100                	addi	s0,sp,128
 84e:	0e090503          	lb	a0,224(s2)
 852:	0100                	addi	s0,sp,128
 854:	0e090503          	lb	a0,224(s2)
 858:	0100                	addi	s0,sp,128
 85a:	12090503          	lb	a0,288(s2)
 85e:	0100                	addi	s0,sp,128
 860:	12090503          	lb	a0,288(s2)
 864:	0100                	addi	s0,sp,128
 866:	12090503          	lb	a0,288(s2)
 86a:	0100                	addi	s0,sp,128
 86c:	12090503          	lb	a0,288(s2)
 870:	0100                	addi	s0,sp,128
 872:	12090503          	lb	a0,288(s2)
 876:	0100                	addi	s0,sp,128
 878:	0e090503          	lb	a0,224(s2)
 87c:	0100                	addi	s0,sp,128
 87e:	12090503          	lb	a0,288(s2)
 882:	0100                	addi	s0,sp,128
 884:	12090503          	lb	a0,288(s2)
 888:	0100                	addi	s0,sp,128
 88a:	12090503          	lb	a0,288(s2)
 88e:	0100                	addi	s0,sp,128
 890:	12090503          	lb	a0,288(s2)
 894:	0100                	addi	s0,sp,128
 896:	12090503          	lb	a0,288(s2)
 89a:	0100                	addi	s0,sp,128
 89c:	16090503          	lb	a0,352(s2)
 8a0:	0100                	addi	s0,sp,128
 8a2:	16090503          	lb	a0,352(s2)
 8a6:	0100                	addi	s0,sp,128
 8a8:	12090503          	lb	a0,288(s2)
 8ac:	0100                	addi	s0,sp,128
 8ae:	16090503          	lb	a0,352(s2)
 8b2:	0100                	addi	s0,sp,128
 8b4:	16090503          	lb	a0,352(s2)
 8b8:	0100                	addi	s0,sp,128
 8ba:	16090503          	lb	a0,352(s2)
 8be:	0100                	addi	s0,sp,128
 8c0:	16090503          	lb	a0,352(s2)
 8c4:	0100                	addi	s0,sp,128
 8c6:	12090503          	lb	a0,288(s2)
 8ca:	0100                	addi	s0,sp,128
 8cc:	16090503          	lb	a0,352(s2)
 8d0:	0100                	addi	s0,sp,128
 8d2:	12090503          	lb	a0,288(s2)
 8d6:	0100                	addi	s0,sp,128
 8d8:	12090503          	lb	a0,288(s2)
 8dc:	0100                	addi	s0,sp,128
 8de:	16090503          	lb	a0,352(s2)
 8e2:	0100                	addi	s0,sp,128
 8e4:	16090503          	lb	a0,352(s2)
 8e8:	0100                	addi	s0,sp,128
 8ea:	16090503          	lb	a0,352(s2)
 8ee:	0100                	addi	s0,sp,128
 8f0:	16090503          	lb	a0,352(s2)
 8f4:	0100                	addi	s0,sp,128
 8f6:	16090503          	lb	a0,352(s2)
 8fa:	0100                	addi	s0,sp,128
 8fc:	12090503          	lb	a0,288(s2)
 900:	0100                	addi	s0,sp,128
 902:	16090503          	lb	a0,352(s2)
 906:	0100                	addi	s0,sp,128
 908:	16090503          	lb	a0,352(s2)
 90c:	0100                	addi	s0,sp,128
 90e:	16090503          	lb	a0,352(s2)
 912:	0100                	addi	s0,sp,128
 914:	16090503          	lb	a0,352(s2)
 918:	0100                	addi	s0,sp,128
 91a:	12090503          	lb	a0,288(s2)
 91e:	0100                	addi	s0,sp,128
 920:	16090503          	lb	a0,352(s2)
 924:	0100                	addi	s0,sp,128
 926:	16090503          	lb	a0,352(s2)
 92a:	0100                	addi	s0,sp,128
 92c:	12090503          	lb	a0,288(s2)
 930:	0100                	addi	s0,sp,128
 932:	16090503          	lb	a0,352(s2)
 936:	0100                	addi	s0,sp,128
 938:	16090503          	lb	a0,352(s2)
 93c:	0100                	addi	s0,sp,128
 93e:	16090503          	lb	a0,352(s2)
 942:	0100                	addi	s0,sp,128
 944:	16090503          	lb	a0,352(s2)
 948:	0100                	addi	s0,sp,128
 94a:	12090503          	lb	a0,288(s2)
 94e:	0100                	addi	s0,sp,128
 950:	16090503          	lb	a0,352(s2)
 954:	0100                	addi	s0,sp,128
 956:	12090503          	lb	a0,288(s2)
 95a:	0100                	addi	s0,sp,128
 95c:	12090503          	lb	a0,288(s2)
 960:	0100                	addi	s0,sp,128
 962:	16090503          	lb	a0,352(s2)
 966:	0100                	addi	s0,sp,128
 968:	16090503          	lb	a0,352(s2)
 96c:	0100                	addi	s0,sp,128
 96e:	16090503          	lb	a0,352(s2)
 972:	0100                	addi	s0,sp,128
 974:	16090503          	lb	a0,352(s2)
 978:	0100                	addi	s0,sp,128
 97a:	16090503          	lb	a0,352(s2)
 97e:	0100                	addi	s0,sp,128
 980:	12090503          	lb	a0,288(s2)
 984:	0100                	addi	s0,sp,128
 986:	16090503          	lb	a0,352(s2)
 98a:	0100                	addi	s0,sp,128
 98c:	16090503          	lb	a0,352(s2)
 990:	0100                	addi	s0,sp,128
 992:	16090503          	lb	a0,352(s2)
 996:	0100                	addi	s0,sp,128
 998:	16090503          	lb	a0,352(s2)
 99c:	0100                	addi	s0,sp,128
 99e:	12090503          	lb	a0,288(s2)
 9a2:	0100                	addi	s0,sp,128
 9a4:	16090503          	lb	a0,352(s2)
 9a8:	0100                	addi	s0,sp,128
 9aa:	16090503          	lb	a0,352(s2)
 9ae:	0100                	addi	s0,sp,128
 9b0:	12090503          	lb	a0,288(s2)
 9b4:	0100                	addi	s0,sp,128
 9b6:	16090503          	lb	a0,352(s2)
 9ba:	0100                	addi	s0,sp,128
 9bc:	16090503          	lb	a0,352(s2)
 9c0:	0100                	addi	s0,sp,128
 9c2:	16090503          	lb	a0,352(s2)
 9c6:	0100                	addi	s0,sp,128
 9c8:	16090503          	lb	a0,352(s2)
 9cc:	0100                	addi	s0,sp,128
 9ce:	12090503          	lb	a0,288(s2)
 9d2:	0100                	addi	s0,sp,128
 9d4:	16090503          	lb	a0,352(s2)
 9d8:	0100                	addi	s0,sp,128
 9da:	12090503          	lb	a0,288(s2)
 9de:	0100                	addi	s0,sp,128
 9e0:	12090503          	lb	a0,288(s2)
 9e4:	0100                	addi	s0,sp,128
 9e6:	16090503          	lb	a0,352(s2)
 9ea:	0100                	addi	s0,sp,128
 9ec:	16090503          	lb	a0,352(s2)
 9f0:	0100                	addi	s0,sp,128
 9f2:	16090503          	lb	a0,352(s2)
 9f6:	0100                	addi	s0,sp,128
 9f8:	16090503          	lb	a0,352(s2)
 9fc:	0100                	addi	s0,sp,128
 9fe:	16090503          	lb	a0,352(s2)
 a02:	0100                	addi	s0,sp,128
 a04:	12090503          	lb	a0,288(s2)
 a08:	0100                	addi	s0,sp,128
 a0a:	16090503          	lb	a0,352(s2)
 a0e:	0100                	addi	s0,sp,128
 a10:	16090503          	lb	a0,352(s2)
 a14:	0100                	addi	s0,sp,128
 a16:	16090503          	lb	a0,352(s2)
 a1a:	0100                	addi	s0,sp,128
 a1c:	16090503          	lb	a0,352(s2)
 a20:	0100                	addi	s0,sp,128
 a22:	12090503          	lb	a0,288(s2)
 a26:	0100                	addi	s0,sp,128
 a28:	16090503          	lb	a0,352(s2)
 a2c:	0100                	addi	s0,sp,128
 a2e:	16090503          	lb	a0,352(s2)
 a32:	0100                	addi	s0,sp,128
 a34:	12090503          	lb	a0,288(s2)
 a38:	0100                	addi	s0,sp,128
 a3a:	16090503          	lb	a0,352(s2)
 a3e:	0100                	addi	s0,sp,128
 a40:	16090503          	lb	a0,352(s2)
 a44:	0100                	addi	s0,sp,128
 a46:	16090503          	lb	a0,352(s2)
 a4a:	0100                	addi	s0,sp,128
 a4c:	16090503          	lb	a0,352(s2)
 a50:	0100                	addi	s0,sp,128
 a52:	12090503          	lb	a0,288(s2)
 a56:	0100                	addi	s0,sp,128
 a58:	16090503          	lb	a0,352(s2)
 a5c:	0100                	addi	s0,sp,128
 a5e:	12090503          	lb	a0,288(s2)
 a62:	0100                	addi	s0,sp,128
 a64:	12090503          	lb	a0,288(s2)
 a68:	0100                	addi	s0,sp,128
 a6a:	16090503          	lb	a0,352(s2)
 a6e:	0100                	addi	s0,sp,128
 a70:	16090503          	lb	a0,352(s2)
 a74:	0100                	addi	s0,sp,128
 a76:	16090503          	lb	a0,352(s2)
 a7a:	0100                	addi	s0,sp,128
 a7c:	16090503          	lb	a0,352(s2)
 a80:	0100                	addi	s0,sp,128
 a82:	16090503          	lb	a0,352(s2)
 a86:	0100                	addi	s0,sp,128
 a88:	12090503          	lb	a0,288(s2)
 a8c:	0100                	addi	s0,sp,128
 a8e:	16090503          	lb	a0,352(s2)
 a92:	0100                	addi	s0,sp,128
 a94:	16090503          	lb	a0,352(s2)
 a98:	0100                	addi	s0,sp,128
 a9a:	16090503          	lb	a0,352(s2)
 a9e:	0100                	addi	s0,sp,128
 aa0:	16090503          	lb	a0,352(s2)
 aa4:	0100                	addi	s0,sp,128
 aa6:	12090503          	lb	a0,288(s2)
 aaa:	0100                	addi	s0,sp,128
 aac:	0e090503          	lb	a0,224(s2)
 ab0:	0100                	addi	s0,sp,128
 ab2:	0e090503          	lb	a0,224(s2)
 ab6:	0100                	addi	s0,sp,128
 ab8:	12090503          	lb	a0,288(s2)
 abc:	0100                	addi	s0,sp,128
 abe:	12090503          	lb	a0,288(s2)
 ac2:	0100                	addi	s0,sp,128
 ac4:	12090503          	lb	a0,288(s2)
 ac8:	0100                	addi	s0,sp,128
 aca:	12090503          	lb	a0,288(s2)
 ace:	0100                	addi	s0,sp,128
 ad0:	12090503          	lb	a0,288(s2)
 ad4:	0100                	addi	s0,sp,128
 ad6:	0e090503          	lb	a0,224(s2)
 ada:	0100                	addi	s0,sp,128
 adc:	12090503          	lb	a0,288(s2)
 ae0:	0100                	addi	s0,sp,128
 ae2:	12090503          	lb	a0,288(s2)
 ae6:	0100                	addi	s0,sp,128
 ae8:	12090503          	lb	a0,288(s2)
 aec:	0100                	addi	s0,sp,128
 aee:	12090503          	lb	a0,288(s2)
 af2:	0100                	addi	s0,sp,128
 af4:	0e090503          	lb	a0,224(s2)
 af8:	0100                	addi	s0,sp,128
 afa:	12090503          	lb	a0,288(s2)
 afe:	0100                	addi	s0,sp,128
 b00:	12090503          	lb	a0,288(s2)
 b04:	0100                	addi	s0,sp,128
 b06:	0e090503          	lb	a0,224(s2)
 b0a:	0100                	addi	s0,sp,128
 b0c:	12090503          	lb	a0,288(s2)
 b10:	0100                	addi	s0,sp,128
 b12:	12090503          	lb	a0,288(s2)
 b16:	0100                	addi	s0,sp,128
 b18:	12090503          	lb	a0,288(s2)
 b1c:	0100                	addi	s0,sp,128
 b1e:	12090503          	lb	a0,288(s2)
 b22:	0100                	addi	s0,sp,128
 b24:	0e090503          	lb	a0,224(s2)
 b28:	0100                	addi	s0,sp,128
 b2a:	12090503          	lb	a0,288(s2)
 b2e:	0100                	addi	s0,sp,128
 b30:	0e090503          	lb	a0,224(s2)
 b34:	0100                	addi	s0,sp,128
 b36:	0e090503          	lb	a0,224(s2)
 b3a:	0100                	addi	s0,sp,128
 b3c:	12090503          	lb	a0,288(s2)
 b40:	0100                	addi	s0,sp,128
 b42:	12090503          	lb	a0,288(s2)
 b46:	0100                	addi	s0,sp,128
 b48:	12090503          	lb	a0,288(s2)
 b4c:	0100                	addi	s0,sp,128
 b4e:	12090503          	lb	a0,288(s2)
 b52:	0100                	addi	s0,sp,128
 b54:	12090503          	lb	a0,288(s2)
 b58:	0100                	addi	s0,sp,128
 b5a:	0e090503          	lb	a0,224(s2)
 b5e:	0100                	addi	s0,sp,128
 b60:	12090503          	lb	a0,288(s2)
 b64:	0100                	addi	s0,sp,128
 b66:	12090503          	lb	a0,288(s2)
 b6a:	0100                	addi	s0,sp,128
 b6c:	12090503          	lb	a0,288(s2)
 b70:	0100                	addi	s0,sp,128
 b72:	12090503          	lb	a0,288(s2)
 b76:	0100                	addi	s0,sp,128
 b78:	12090503          	lb	a0,288(s2)
 b7c:	0100                	addi	s0,sp,128
 b7e:	16090503          	lb	a0,352(s2)
 b82:	0100                	addi	s0,sp,128
 b84:	16090503          	lb	a0,352(s2)
 b88:	0100                	addi	s0,sp,128
 b8a:	12090503          	lb	a0,288(s2)
 b8e:	0100                	addi	s0,sp,128
 b90:	16090503          	lb	a0,352(s2)
 b94:	0100                	addi	s0,sp,128
 b96:	16090503          	lb	a0,352(s2)
 b9a:	0100                	addi	s0,sp,128
 b9c:	16090503          	lb	a0,352(s2)
 ba0:	0100                	addi	s0,sp,128
 ba2:	16090503          	lb	a0,352(s2)
 ba6:	0100                	addi	s0,sp,128
 ba8:	12090503          	lb	a0,288(s2)
 bac:	0100                	addi	s0,sp,128
 bae:	16090503          	lb	a0,352(s2)
 bb2:	0100                	addi	s0,sp,128
 bb4:	12090503          	lb	a0,288(s2)
 bb8:	0100                	addi	s0,sp,128
 bba:	12090503          	lb	a0,288(s2)
 bbe:	0100                	addi	s0,sp,128
 bc0:	16090503          	lb	a0,352(s2)
 bc4:	0100                	addi	s0,sp,128
 bc6:	16090503          	lb	a0,352(s2)
 bca:	0100                	addi	s0,sp,128
 bcc:	16090503          	lb	a0,352(s2)
 bd0:	0100                	addi	s0,sp,128
 bd2:	16090503          	lb	a0,352(s2)
 bd6:	0100                	addi	s0,sp,128
 bd8:	16090503          	lb	a0,352(s2)
 bdc:	0100                	addi	s0,sp,128
 bde:	12090503          	lb	a0,288(s2)
 be2:	0100                	addi	s0,sp,128
 be4:	16090503          	lb	a0,352(s2)
 be8:	0100                	addi	s0,sp,128
 bea:	16090503          	lb	a0,352(s2)
 bee:	0100                	addi	s0,sp,128
 bf0:	16090503          	lb	a0,352(s2)
 bf4:	0100                	addi	s0,sp,128
 bf6:	16090503          	lb	a0,352(s2)
 bfa:	0100                	addi	s0,sp,128
 bfc:	12090503          	lb	a0,288(s2)
 c00:	0100                	addi	s0,sp,128
 c02:	16090503          	lb	a0,352(s2)
 c06:	0100                	addi	s0,sp,128
 c08:	16090503          	lb	a0,352(s2)
 c0c:	0100                	addi	s0,sp,128
 c0e:	12090503          	lb	a0,288(s2)
 c12:	0100                	addi	s0,sp,128
 c14:	16090503          	lb	a0,352(s2)
 c18:	0100                	addi	s0,sp,128
 c1a:	16090503          	lb	a0,352(s2)
 c1e:	0100                	addi	s0,sp,128
 c20:	16090503          	lb	a0,352(s2)
 c24:	0100                	addi	s0,sp,128
 c26:	16090503          	lb	a0,352(s2)
 c2a:	0100                	addi	s0,sp,128
 c2c:	12090503          	lb	a0,288(s2)
 c30:	0100                	addi	s0,sp,128
 c32:	16090503          	lb	a0,352(s2)
 c36:	0100                	addi	s0,sp,128
 c38:	12090503          	lb	a0,288(s2)
 c3c:	0100                	addi	s0,sp,128
 c3e:	12090503          	lb	a0,288(s2)
 c42:	0100                	addi	s0,sp,128
 c44:	16090503          	lb	a0,352(s2)
 c48:	0100                	addi	s0,sp,128
 c4a:	16090503          	lb	a0,352(s2)
 c4e:	0100                	addi	s0,sp,128
 c50:	16090503          	lb	a0,352(s2)
 c54:	0100                	addi	s0,sp,128
 c56:	16090503          	lb	a0,352(s2)
 c5a:	0100                	addi	s0,sp,128
 c5c:	16090503          	lb	a0,352(s2)
 c60:	0100                	addi	s0,sp,128
 c62:	12090503          	lb	a0,288(s2)
 c66:	0100                	addi	s0,sp,128
 c68:	16090503          	lb	a0,352(s2)
 c6c:	0100                	addi	s0,sp,128
 c6e:	16090503          	lb	a0,352(s2)
 c72:	0100                	addi	s0,sp,128
 c74:	16090503          	lb	a0,352(s2)
 c78:	0100                	addi	s0,sp,128
 c7a:	16090503          	lb	a0,352(s2)
 c7e:	0100                	addi	s0,sp,128
 c80:	12090503          	lb	a0,288(s2)
 c84:	0100                	addi	s0,sp,128
 c86:	16090503          	lb	a0,352(s2)
 c8a:	0100                	addi	s0,sp,128
 c8c:	16090503          	lb	a0,352(s2)
 c90:	0100                	addi	s0,sp,128
 c92:	12090503          	lb	a0,288(s2)
 c96:	0100                	addi	s0,sp,128
 c98:	16090503          	lb	a0,352(s2)
 c9c:	0100                	addi	s0,sp,128
 c9e:	16090503          	lb	a0,352(s2)
 ca2:	0100                	addi	s0,sp,128
 ca4:	16090503          	lb	a0,352(s2)
 ca8:	0100                	addi	s0,sp,128
 caa:	16090503          	lb	a0,352(s2)
 cae:	0100                	addi	s0,sp,128
 cb0:	12090503          	lb	a0,288(s2)
 cb4:	0100                	addi	s0,sp,128
 cb6:	16090503          	lb	a0,352(s2)
 cba:	0100                	addi	s0,sp,128
 cbc:	12090503          	lb	a0,288(s2)
 cc0:	0100                	addi	s0,sp,128
 cc2:	12090503          	lb	a0,288(s2)
 cc6:	0100                	addi	s0,sp,128
 cc8:	16090503          	lb	a0,352(s2)
 ccc:	0100                	addi	s0,sp,128
 cce:	16090103          	lb	sp,352(s2)
 cd2:	0100                	addi	s0,sp,128
 cd4:	08090503          	lb	a0,128(s2)
 cd8:	0100                	addi	s0,sp,128
 cda:	16090503          	lb	a0,352(s2)
 cde:	0100                	addi	s0,sp,128
 ce0:	16090503          	lb	a0,352(s2)
 ce4:	0100                	addi	s0,sp,128
 ce6:	16090503          	lb	a0,352(s2)
 cea:	0100                	addi	s0,sp,128
 cec:	12090503          	lb	a0,288(s2)
 cf0:	0100                	addi	s0,sp,128
 cf2:	16090503          	lb	a0,352(s2)
 cf6:	0100                	addi	s0,sp,128
 cf8:	16090503          	lb	a0,352(s2)
 cfc:	0100                	addi	s0,sp,128
 cfe:	16090503          	lb	a0,352(s2)
 d02:	0100                	addi	s0,sp,128
 d04:	16090503          	lb	a0,352(s2)
 d08:	0100                	addi	s0,sp,128
 d0a:	12090503          	lb	a0,288(s2)
 d0e:	0100                	addi	s0,sp,128
 d10:	16090503          	lb	a0,352(s2)
 d14:	0100                	addi	s0,sp,128
 d16:	16090503          	lb	a0,352(s2)
 d1a:	0100                	addi	s0,sp,128
 d1c:	12090503          	lb	a0,288(s2)
 d20:	0100                	addi	s0,sp,128
 d22:	16090503          	lb	a0,352(s2)
 d26:	0100                	addi	s0,sp,128
 d28:	16090503          	lb	a0,352(s2)
 d2c:	0100                	addi	s0,sp,128
 d2e:	16090503          	lb	a0,352(s2)
 d32:	0100                	addi	s0,sp,128
 d34:	16090503          	lb	a0,352(s2)
 d38:	0100                	addi	s0,sp,128
 d3a:	12090503          	lb	a0,288(s2)
 d3e:	0100                	addi	s0,sp,128
 d40:	16090503          	lb	a0,352(s2)
 d44:	0100                	addi	s0,sp,128
 d46:	12090503          	lb	a0,288(s2)
 d4a:	0100                	addi	s0,sp,128
 d4c:	12090503          	lb	a0,288(s2)
 d50:	0100                	addi	s0,sp,128
 d52:	16090503          	lb	a0,352(s2)
 d56:	0100                	addi	s0,sp,128
 d58:	16090503          	lb	a0,352(s2)
 d5c:	0100                	addi	s0,sp,128
 d5e:	16090503          	lb	a0,352(s2)
 d62:	0100                	addi	s0,sp,128
 d64:	16090503          	lb	a0,352(s2)
 d68:	0100                	addi	s0,sp,128
 d6a:	16090503          	lb	a0,352(s2)
 d6e:	0100                	addi	s0,sp,128
 d70:	12090503          	lb	a0,288(s2)
 d74:	0100                	addi	s0,sp,128
 d76:	16090503          	lb	a0,352(s2)
 d7a:	0100                	addi	s0,sp,128
 d7c:	16090503          	lb	a0,352(s2)
 d80:	0100                	addi	s0,sp,128
 d82:	16090503          	lb	a0,352(s2)
 d86:	0100                	addi	s0,sp,128
 d88:	16090503          	lb	a0,352(s2)
 d8c:	0100                	addi	s0,sp,128
 d8e:	12090503          	lb	a0,288(s2)
 d92:	0100                	addi	s0,sp,128
 d94:	16090503          	lb	a0,352(s2)
 d98:	0100                	addi	s0,sp,128
 d9a:	16090503          	lb	a0,352(s2)
 d9e:	0100                	addi	s0,sp,128
 da0:	12090503          	lb	a0,288(s2)
 da4:	0100                	addi	s0,sp,128
 da6:	16090503          	lb	a0,352(s2)
 daa:	0100                	addi	s0,sp,128
 dac:	16090503          	lb	a0,352(s2)
 db0:	0100                	addi	s0,sp,128
 db2:	16090503          	lb	a0,352(s2)
 db6:	0100                	addi	s0,sp,128
 db8:	16090503          	lb	a0,352(s2)
 dbc:	0100                	addi	s0,sp,128
 dbe:	12090503          	lb	a0,288(s2)
 dc2:	0100                	addi	s0,sp,128
 dc4:	16090503          	lb	a0,352(s2)
 dc8:	0100                	addi	s0,sp,128
 dca:	12090503          	lb	a0,288(s2)
 dce:	0100                	addi	s0,sp,128
 dd0:	12090503          	lb	a0,288(s2)
 dd4:	0100                	addi	s0,sp,128
 dd6:	16090503          	lb	a0,352(s2)
 dda:	0100                	addi	s0,sp,128
 ddc:	16090503          	lb	a0,352(s2)
 de0:	0100                	addi	s0,sp,128
 de2:	16090503          	lb	a0,352(s2)
 de6:	0100                	addi	s0,sp,128
 de8:	16090503          	lb	a0,352(s2)
 dec:	0100                	addi	s0,sp,128
 dee:	16090503          	lb	a0,352(s2)
 df2:	0100                	addi	s0,sp,128
 df4:	12090503          	lb	a0,288(s2)
 df8:	0100                	addi	s0,sp,128
 dfa:	16090503          	lb	a0,352(s2)
 dfe:	0100                	addi	s0,sp,128
 e00:	16090503          	lb	a0,352(s2)
 e04:	0100                	addi	s0,sp,128
 e06:	0e09                	addi	t3,t3,2
 e08:	0000                	unimp
 e0a:	0101                	addi	sp,sp,0

Disassembly of section .debug_info:

00000000 <.debug_info>:
   0:	0022                	c.slli	zero,0x8
   2:	0000                	unimp
   4:	0002                	c.slli64	zero
   6:	0000                	unimp
   8:	0000                	unimp
   a:	0104                	addi	s1,sp,128
   c:	0000                	unimp
   e:	0000                	unimp
  10:	0000                	unimp
  12:	9000                	0x9000
  14:	2d2e                	fld	fs10,200(sp)
  16:	9000                	0x9000
  18:	0000                	unimp
  1a:	0000                	unimp
  1c:	000e                	c.slli	zero,0x3
  1e:	0000                	unimp
  20:	0075                	c.nop	29
  22:	0000                	unimp
  24:	8001                	c.srli64	s0

Disassembly of section .debug_abbrev:

00000000 <.debug_abbrev>:
   0:	1101                	addi	sp,sp,-32
   2:	1000                	addi	s0,sp,32
   4:	1106                	slli	sp,sp,0x21
   6:	1201                	addi	tp,tp,-32
   8:	0301                	addi	t1,t1,0
   a:	1b0e                	slli	s6,s6,0x23
   c:	250e                	fld	fa0,192(sp)
   e:	130e                	slli	t1,t1,0x23
  10:	0005                	c.nop	1
	...

Disassembly of section .debug_aranges:

00000000 <.debug_aranges>:
   0:	001c                	0x1c
   2:	0000                	unimp
   4:	0002                	c.slli64	zero
   6:	0000                	unimp
   8:	0000                	unimp
   a:	0004                	0x4
   c:	0000                	unimp
   e:	0000                	unimp
  10:	0000                	unimp
  12:	9000                	0x9000
  14:	2d2e                	fld	fs10,200(sp)
	...

Disassembly of section .debug_str:

00000000 <.debug_str>:
   0:	2f637273          	csrrci	tp,0x2f6,6
   4:	64646163          	bltu	s0,t1,646 <offset+0x57e>
   8:	302d                	jal	fffff832 <_end+0x6fffad2e>
   a:	2e31                	jal	326 <offset+0x25e>
   c:	682f0053          	0x682f0053
  10:	2f656d6f          	jal	s10,56306 <offset+0x5623e>
  14:	6174                	flw	fa3,68(a0)
  16:	522f616b          	0x522f616b
  1a:	5349                	li	t1,-14
  1c:	6d2f5643          	0x6d2f5643
  20:	526d                	li	tp,-5
  22:	5349                	li	t1,-14
  24:	69732f43          	fmadd.s	ft10,ft6,fs7,fa3,rdn
  28:	756d                	lui	a0,0xffffb
  2a:	616c                	flw	fa1,68(a0)
  2c:	6974                	flw	fa3,84(a0)
  2e:	6d2f6e6f          	jal	t3,f6700 <offset+0xf6638>
  32:	6c65646f          	jal	s0,566f8 <offset+0x56630>
  36:	2f6d6973          	csrrsi	s2,0x2f6,26
  3a:	6972                	flw	fs2,28(sp)
  3c:	2d766373          	csrrsi	t1,0x2d7,12
  40:	7261                	lui	tp,0xffff8
  42:	742d6863          	bltu	s10,sp,792 <offset+0x6ca>
  46:	7365                	lui	t1,0xffff9
  48:	2f74                	fld	fa3,216(a4)
  4a:	6972                	flw	fs2,28(sp)
  4c:	2d766373          	csrrsi	t1,0x2d7,12
  50:	7261                	lui	tp,0xffff8
  52:	742d6863          	bltu	s10,sp,7a2 <offset+0x6da>
  56:	7365                	lui	t1,0xffff9
  58:	2f74                	fld	fa3,216(a4)
  5a:	6972                	flw	fs2,28(sp)
  5c:	2d766373          	csrrsi	t1,0x2d7,12
  60:	6574                	flw	fa3,76(a0)
  62:	732d7473          	csrrci	s0,0x732,26
  66:	6975                	lui	s2,0x1d
  68:	6574                	flw	fa3,76(a0)
  6a:	3376722f          	0x3376722f
  6e:	6932                	flw	fs2,12(sp)
  70:	6d5f 432f 4700      	0x4700432f6d5f
  76:	554e                	lw	a0,240(sp)
  78:	4120                	lw	s0,64(a0)
  7a:	2e322053          	0x2e322053
  7e:	          	snez	a0,zero
