
/home/taka/RISCV/mmRISC/simulation/modelsim/riscv-arch-test/riscv-arch-test/work/rv32i_m/privilege/misalign-bgeu-01.elf:     file format elf32-littleriscv


Disassembly of section .text.init:

90000000 <rvtest_entry_point>:
90000000:	00001097          	auipc	ra,0x1
90000004:	94408093          	addi	ra,ra,-1724 # 90000944 <init_mscratch>
90000008:	000080e7          	jalr	ra

9000000c <rvtest_prolog_done>:
9000000c:	feedc0b7          	lui	ra,0xfeedc
90000010:	ead08093          	addi	ra,ra,-339 # feedbead <_end+0x6eed9ba9>
90000014:	ff76e137          	lui	sp,0xff76e
90000018:	f5610113          	addi	sp,sp,-170 # ff76df56 <_end+0x6f76bc52>
9000001c:	7fbb71b7          	lui	gp,0x7fbb7
90000020:	fab18193          	addi	gp,gp,-85 # 7fbb6fab <value+0x7fbb6f9b>
90000024:	bfddb237          	lui	tp,0xbfddb
90000028:	7d520213          	addi	tp,tp,2005 # bfddb7d5 <_end+0x2fdd94d1>
9000002c:	00000297          	auipc	t0,0x0
90000030:	0d828293          	addi	t0,t0,216 # 90000104 <rvtest_code_begin>
90000034:	00002317          	auipc	t1,0x2
90000038:	fcc30313          	addi	t1,t1,-52 # 90002000 <rvtest_data_begin>
9000003c:	b7fbb3b7          	lui	t2,0xb7fbb
90000040:	6fa38393          	addi	t2,t2,1786 # b7fbb6fa <_end+0x27fb93f6>
90000044:	5bfde437          	lui	s0,0x5bfde
90000048:	b7d40413          	addi	s0,s0,-1155 # 5bfddb7d <value+0x5bfddb6d>
9000004c:	adfef4b7          	lui	s1,0xadfef
90000050:	dbe48493          	addi	s1,s1,-578 # adfeedbe <_end+0x1dfecaba>
90000054:	56ff7537          	lui	a0,0x56ff7
90000058:	6df50513          	addi	a0,a0,1759 # 56ff76df <value+0x56ff76cf>
9000005c:	ab7fc5b7          	lui	a1,0xab7fc
90000060:	b6f58593          	addi	a1,a1,-1169 # ab7fbb6f <_end+0x1b7f986b>
90000064:	d5bfe637          	lui	a2,0xd5bfe
90000068:	db760613          	addi	a2,a2,-585 # d5bfddb7 <_end+0x45bfbab3>
9000006c:	eadff6b7          	lui	a3,0xeadff
90000070:	edb68693          	addi	a3,a3,-293 # eadfeedb <_end+0x5adfcbd7>
90000074:	f56ff737          	lui	a4,0xf56ff
90000078:	76d70713          	addi	a4,a4,1901 # f56ff76d <_end+0x656fd469>
9000007c:	fab807b7          	lui	a5,0xfab80
90000080:	bb678793          	addi	a5,a5,-1098 # fab7fbb6 <_end+0x6ab7d8b2>
90000084:	7d5c0837          	lui	a6,0x7d5c0
90000088:	ddb80813          	addi	a6,a6,-549 # 7d5bfddb <value+0x7d5bfdcb>
9000008c:	beae08b7          	lui	a7,0xbeae0
90000090:	eed88893          	addi	a7,a7,-275 # beadfeed <_end+0x2eaddbe9>
90000094:	df570937          	lui	s2,0xdf570
90000098:	f7690913          	addi	s2,s2,-138 # df56ff76 <_end+0x4f56dc72>
9000009c:	6fab89b7          	lui	s3,0x6fab8
900000a0:	fbb98993          	addi	s3,s3,-69 # 6fab7fbb <value+0x6fab7fab>
900000a4:	b7d5ca37          	lui	s4,0xb7d5c
900000a8:	fdda0a13          	addi	s4,s4,-35 # b7d5bfdd <_end+0x27d59cd9>
900000ac:	dbeaeab7          	lui	s5,0xdbeae
900000b0:	feea8a93          	addi	s5,s5,-18 # dbeadfee <_end+0x4beabcea>
900000b4:	6df57b37          	lui	s6,0x6df57
900000b8:	ff7b0b13          	addi	s6,s6,-9 # 6df56ff7 <value+0x6df56fe7>
900000bc:	b6fabbb7          	lui	s7,0xb6fab
900000c0:	7fbb8b93          	addi	s7,s7,2043 # b6fab7fb <_end+0x26fa94f7>
900000c4:	db7d6c37          	lui	s8,0xdb7d6
900000c8:	bfdc0c13          	addi	s8,s8,-1027 # db7d5bfd <_end+0x4b7d38f9>
900000cc:	edbebcb7          	lui	s9,0xedbeb
900000d0:	dfec8c93          	addi	s9,s9,-514 # edbeadfe <_end+0x5dbe8afa>
900000d4:	76df5d37          	lui	s10,0x76df5
900000d8:	6ffd0d13          	addi	s10,s10,1791 # 76df56ff <value+0x76df56ef>
900000dc:	bb6fbdb7          	lui	s11,0xbb6fb
900000e0:	b7fd8d93          	addi	s11,s11,-1153 # bb6fab7f <_end+0x2b6f887b>
900000e4:	ddb7de37          	lui	t3,0xddb7d
900000e8:	5bfe0e13          	addi	t3,t3,1471 # ddb7d5bf <_end+0x4db7b2bb>
900000ec:	eedbfeb7          	lui	t4,0xeedbf
900000f0:	adfe8e93          	addi	t4,t4,-1313 # eedbeadf <_end+0x5edbc7db>
900000f4:	f76dff37          	lui	t5,0xf76df
900000f8:	56ff0f13          	addi	t5,t5,1391 # f76df56f <_end+0x676dd26b>
900000fc:	fbb70fb7          	lui	t6,0xfbb70
90000100:	ab7f8f93          	addi	t6,t6,-1353 # fbb6fab7 <_end+0x6bb6d7b3>

90000104 <rvtest_code_begin>:
90000104:	00002097          	auipc	ra,0x2
90000108:	f7c08093          	addi	ra,ra,-132 # 90002080 <begin_signature>

9000010c <inst_0>:
9000010c:	55555537          	lui	a0,0x55555
90000110:	55550513          	addi	a0,a0,1365 # 55555555 <value+0x55555545>
90000114:	200005b7          	lui	a1,0x20000
90000118:	00000113          	li	sp,0
9000011c:	0090006f          	j	90000924 <inst_0+0x818>
90000120:	0000                	unimp
90000122:	00110113          	addi	sp,sp,1
90000126:	0170006f          	j	9000093c <inst_0+0x830>
9000012a:	0000                	unimp
9000012c:	00000013          	nop
90000130:	00000013          	nop
90000134:	00000013          	nop
90000138:	00000013          	nop
9000013c:	00000013          	nop
90000140:	00000013          	nop
90000144:	00000013          	nop
90000148:	00000013          	nop
9000014c:	00000013          	nop
90000150:	00000013          	nop
90000154:	00000013          	nop
90000158:	00000013          	nop
9000015c:	00000013          	nop
90000160:	00000013          	nop
90000164:	00000013          	nop
90000168:	00000013          	nop
9000016c:	00000013          	nop
90000170:	00000013          	nop
90000174:	00000013          	nop
90000178:	00000013          	nop
9000017c:	00000013          	nop
90000180:	00000013          	nop
90000184:	00000013          	nop
90000188:	00000013          	nop
9000018c:	00000013          	nop
90000190:	00000013          	nop
90000194:	00000013          	nop
90000198:	00000013          	nop
9000019c:	00000013          	nop
900001a0:	00000013          	nop
900001a4:	00000013          	nop
900001a8:	00000013          	nop
900001ac:	00000013          	nop
900001b0:	00000013          	nop
900001b4:	00000013          	nop
900001b8:	00000013          	nop
900001bc:	00000013          	nop
900001c0:	00000013          	nop
900001c4:	00000013          	nop
900001c8:	00000013          	nop
900001cc:	00000013          	nop
900001d0:	00000013          	nop
900001d4:	00000013          	nop
900001d8:	00000013          	nop
900001dc:	00000013          	nop
900001e0:	00000013          	nop
900001e4:	00000013          	nop
900001e8:	00000013          	nop
900001ec:	00000013          	nop
900001f0:	00000013          	nop
900001f4:	00000013          	nop
900001f8:	00000013          	nop
900001fc:	00000013          	nop
90000200:	00000013          	nop
90000204:	00000013          	nop
90000208:	00000013          	nop
9000020c:	00000013          	nop
90000210:	00000013          	nop
90000214:	00000013          	nop
90000218:	00000013          	nop
9000021c:	00000013          	nop
90000220:	00000013          	nop
90000224:	00000013          	nop
90000228:	00000013          	nop
9000022c:	00000013          	nop
90000230:	00000013          	nop
90000234:	00000013          	nop
90000238:	00000013          	nop
9000023c:	00000013          	nop
90000240:	00000013          	nop
90000244:	00000013          	nop
90000248:	00000013          	nop
9000024c:	00000013          	nop
90000250:	00000013          	nop
90000254:	00000013          	nop
90000258:	00000013          	nop
9000025c:	00000013          	nop
90000260:	00000013          	nop
90000264:	00000013          	nop
90000268:	00000013          	nop
9000026c:	00000013          	nop
90000270:	00000013          	nop
90000274:	00000013          	nop
90000278:	00000013          	nop
9000027c:	00000013          	nop
90000280:	00000013          	nop
90000284:	00000013          	nop
90000288:	00000013          	nop
9000028c:	00000013          	nop
90000290:	00000013          	nop
90000294:	00000013          	nop
90000298:	00000013          	nop
9000029c:	00000013          	nop
900002a0:	00000013          	nop
900002a4:	00000013          	nop
900002a8:	00000013          	nop
900002ac:	00000013          	nop
900002b0:	00000013          	nop
900002b4:	00000013          	nop
900002b8:	00000013          	nop
900002bc:	00000013          	nop
900002c0:	00000013          	nop
900002c4:	00000013          	nop
900002c8:	00000013          	nop
900002cc:	00000013          	nop
900002d0:	00000013          	nop
900002d4:	00000013          	nop
900002d8:	00000013          	nop
900002dc:	00000013          	nop
900002e0:	00000013          	nop
900002e4:	00000013          	nop
900002e8:	00000013          	nop
900002ec:	00000013          	nop
900002f0:	00000013          	nop
900002f4:	00000013          	nop
900002f8:	00000013          	nop
900002fc:	00000013          	nop
90000300:	00000013          	nop
90000304:	00000013          	nop
90000308:	00000013          	nop
9000030c:	00000013          	nop
90000310:	00000013          	nop
90000314:	00000013          	nop
90000318:	00000013          	nop
9000031c:	00000013          	nop
90000320:	00000013          	nop
90000324:	00000013          	nop
90000328:	00000013          	nop
9000032c:	00000013          	nop
90000330:	00000013          	nop
90000334:	00000013          	nop
90000338:	00000013          	nop
9000033c:	00000013          	nop
90000340:	00000013          	nop
90000344:	00000013          	nop
90000348:	00000013          	nop
9000034c:	00000013          	nop
90000350:	00000013          	nop
90000354:	00000013          	nop
90000358:	00000013          	nop
9000035c:	00000013          	nop
90000360:	00000013          	nop
90000364:	00000013          	nop
90000368:	00000013          	nop
9000036c:	00000013          	nop
90000370:	00000013          	nop
90000374:	00000013          	nop
90000378:	00000013          	nop
9000037c:	00000013          	nop
90000380:	00000013          	nop
90000384:	00000013          	nop
90000388:	00000013          	nop
9000038c:	00000013          	nop
90000390:	00000013          	nop
90000394:	00000013          	nop
90000398:	00000013          	nop
9000039c:	00000013          	nop
900003a0:	00000013          	nop
900003a4:	00000013          	nop
900003a8:	00000013          	nop
900003ac:	00000013          	nop
900003b0:	00000013          	nop
900003b4:	00000013          	nop
900003b8:	00000013          	nop
900003bc:	00000013          	nop
900003c0:	00000013          	nop
900003c4:	00000013          	nop
900003c8:	00000013          	nop
900003cc:	00000013          	nop
900003d0:	00000013          	nop
900003d4:	00000013          	nop
900003d8:	00000013          	nop
900003dc:	00000013          	nop
900003e0:	00000013          	nop
900003e4:	00000013          	nop
900003e8:	00000013          	nop
900003ec:	00000013          	nop
900003f0:	00000013          	nop
900003f4:	00000013          	nop
900003f8:	00000013          	nop
900003fc:	00000013          	nop
90000400:	00000013          	nop
90000404:	00000013          	nop
90000408:	00000013          	nop
9000040c:	00000013          	nop
90000410:	00000013          	nop
90000414:	00000013          	nop
90000418:	00000013          	nop
9000041c:	00000013          	nop
90000420:	00000013          	nop
90000424:	00000013          	nop
90000428:	00000013          	nop
9000042c:	00000013          	nop
90000430:	00000013          	nop
90000434:	00000013          	nop
90000438:	00000013          	nop
9000043c:	00000013          	nop
90000440:	00000013          	nop
90000444:	00000013          	nop
90000448:	00000013          	nop
9000044c:	00000013          	nop
90000450:	00000013          	nop
90000454:	00000013          	nop
90000458:	00000013          	nop
9000045c:	00000013          	nop
90000460:	00000013          	nop
90000464:	00000013          	nop
90000468:	00000013          	nop
9000046c:	00000013          	nop
90000470:	00000013          	nop
90000474:	00000013          	nop
90000478:	00000013          	nop
9000047c:	00000013          	nop
90000480:	00000013          	nop
90000484:	00000013          	nop
90000488:	00000013          	nop
9000048c:	00000013          	nop
90000490:	00000013          	nop
90000494:	00000013          	nop
90000498:	00000013          	nop
9000049c:	00000013          	nop
900004a0:	00000013          	nop
900004a4:	00000013          	nop
900004a8:	00000013          	nop
900004ac:	00000013          	nop
900004b0:	00000013          	nop
900004b4:	00000013          	nop
900004b8:	00000013          	nop
900004bc:	00000013          	nop
900004c0:	00000013          	nop
900004c4:	00000013          	nop
900004c8:	00000013          	nop
900004cc:	00000013          	nop
900004d0:	00000013          	nop
900004d4:	00000013          	nop
900004d8:	00000013          	nop
900004dc:	00000013          	nop
900004e0:	00000013          	nop
900004e4:	00000013          	nop
900004e8:	00000013          	nop
900004ec:	00000013          	nop
900004f0:	00000013          	nop
900004f4:	00000013          	nop
900004f8:	00000013          	nop
900004fc:	00000013          	nop
90000500:	00000013          	nop
90000504:	00000013          	nop
90000508:	00000013          	nop
9000050c:	00000013          	nop
90000510:	00000013          	nop
90000514:	00000013          	nop
90000518:	00000013          	nop
9000051c:	00000013          	nop
90000520:	00000013          	nop
90000524:	00000013          	nop
90000528:	00000013          	nop
9000052c:	00000013          	nop
90000530:	00000013          	nop
90000534:	00000013          	nop
90000538:	00000013          	nop
9000053c:	00000013          	nop
90000540:	00000013          	nop
90000544:	00000013          	nop
90000548:	00000013          	nop
9000054c:	00000013          	nop
90000550:	00000013          	nop
90000554:	00000013          	nop
90000558:	00000013          	nop
9000055c:	00000013          	nop
90000560:	00000013          	nop
90000564:	00000013          	nop
90000568:	00000013          	nop
9000056c:	00000013          	nop
90000570:	00000013          	nop
90000574:	00000013          	nop
90000578:	00000013          	nop
9000057c:	00000013          	nop
90000580:	00000013          	nop
90000584:	00000013          	nop
90000588:	00000013          	nop
9000058c:	00000013          	nop
90000590:	00000013          	nop
90000594:	00000013          	nop
90000598:	00000013          	nop
9000059c:	00000013          	nop
900005a0:	00000013          	nop
900005a4:	00000013          	nop
900005a8:	00000013          	nop
900005ac:	00000013          	nop
900005b0:	00000013          	nop
900005b4:	00000013          	nop
900005b8:	00000013          	nop
900005bc:	00000013          	nop
900005c0:	00000013          	nop
900005c4:	00000013          	nop
900005c8:	00000013          	nop
900005cc:	00000013          	nop
900005d0:	00000013          	nop
900005d4:	00000013          	nop
900005d8:	00000013          	nop
900005dc:	00000013          	nop
900005e0:	00000013          	nop
900005e4:	00000013          	nop
900005e8:	00000013          	nop
900005ec:	00000013          	nop
900005f0:	00000013          	nop
900005f4:	00000013          	nop
900005f8:	00000013          	nop
900005fc:	00000013          	nop
90000600:	00000013          	nop
90000604:	00000013          	nop
90000608:	00000013          	nop
9000060c:	00000013          	nop
90000610:	00000013          	nop
90000614:	00000013          	nop
90000618:	00000013          	nop
9000061c:	00000013          	nop
90000620:	00000013          	nop
90000624:	00000013          	nop
90000628:	00000013          	nop
9000062c:	00000013          	nop
90000630:	00000013          	nop
90000634:	00000013          	nop
90000638:	00000013          	nop
9000063c:	00000013          	nop
90000640:	00000013          	nop
90000644:	00000013          	nop
90000648:	00000013          	nop
9000064c:	00000013          	nop
90000650:	00000013          	nop
90000654:	00000013          	nop
90000658:	00000013          	nop
9000065c:	00000013          	nop
90000660:	00000013          	nop
90000664:	00000013          	nop
90000668:	00000013          	nop
9000066c:	00000013          	nop
90000670:	00000013          	nop
90000674:	00000013          	nop
90000678:	00000013          	nop
9000067c:	00000013          	nop
90000680:	00000013          	nop
90000684:	00000013          	nop
90000688:	00000013          	nop
9000068c:	00000013          	nop
90000690:	00000013          	nop
90000694:	00000013          	nop
90000698:	00000013          	nop
9000069c:	00000013          	nop
900006a0:	00000013          	nop
900006a4:	00000013          	nop
900006a8:	00000013          	nop
900006ac:	00000013          	nop
900006b0:	00000013          	nop
900006b4:	00000013          	nop
900006b8:	00000013          	nop
900006bc:	00000013          	nop
900006c0:	00000013          	nop
900006c4:	00000013          	nop
900006c8:	00000013          	nop
900006cc:	00000013          	nop
900006d0:	00000013          	nop
900006d4:	00000013          	nop
900006d8:	00000013          	nop
900006dc:	00000013          	nop
900006e0:	00000013          	nop
900006e4:	00000013          	nop
900006e8:	00000013          	nop
900006ec:	00000013          	nop
900006f0:	00000013          	nop
900006f4:	00000013          	nop
900006f8:	00000013          	nop
900006fc:	00000013          	nop
90000700:	00000013          	nop
90000704:	00000013          	nop
90000708:	00000013          	nop
9000070c:	00000013          	nop
90000710:	00000013          	nop
90000714:	00000013          	nop
90000718:	00000013          	nop
9000071c:	00000013          	nop
90000720:	00000013          	nop
90000724:	00000013          	nop
90000728:	00000013          	nop
9000072c:	00000013          	nop
90000730:	00000013          	nop
90000734:	00000013          	nop
90000738:	00000013          	nop
9000073c:	00000013          	nop
90000740:	00000013          	nop
90000744:	00000013          	nop
90000748:	00000013          	nop
9000074c:	00000013          	nop
90000750:	00000013          	nop
90000754:	00000013          	nop
90000758:	00000013          	nop
9000075c:	00000013          	nop
90000760:	00000013          	nop
90000764:	00000013          	nop
90000768:	00000013          	nop
9000076c:	00000013          	nop
90000770:	00000013          	nop
90000774:	00000013          	nop
90000778:	00000013          	nop
9000077c:	00000013          	nop
90000780:	00000013          	nop
90000784:	00000013          	nop
90000788:	00000013          	nop
9000078c:	00000013          	nop
90000790:	00000013          	nop
90000794:	00000013          	nop
90000798:	00000013          	nop
9000079c:	00000013          	nop
900007a0:	00000013          	nop
900007a4:	00000013          	nop
900007a8:	00000013          	nop
900007ac:	00000013          	nop
900007b0:	00000013          	nop
900007b4:	00000013          	nop
900007b8:	00000013          	nop
900007bc:	00000013          	nop
900007c0:	00000013          	nop
900007c4:	00000013          	nop
900007c8:	00000013          	nop
900007cc:	00000013          	nop
900007d0:	00000013          	nop
900007d4:	00000013          	nop
900007d8:	00000013          	nop
900007dc:	00000013          	nop
900007e0:	00000013          	nop
900007e4:	00000013          	nop
900007e8:	00000013          	nop
900007ec:	00000013          	nop
900007f0:	00000013          	nop
900007f4:	00000013          	nop
900007f8:	00000013          	nop
900007fc:	00000013          	nop
90000800:	00000013          	nop
90000804:	00000013          	nop
90000808:	00000013          	nop
9000080c:	00000013          	nop
90000810:	00000013          	nop
90000814:	00000013          	nop
90000818:	00000013          	nop
9000081c:	00000013          	nop
90000820:	00000013          	nop
90000824:	00000013          	nop
90000828:	00000013          	nop
9000082c:	00000013          	nop
90000830:	00000013          	nop
90000834:	00000013          	nop
90000838:	00000013          	nop
9000083c:	00000013          	nop
90000840:	00000013          	nop
90000844:	00000013          	nop
90000848:	00000013          	nop
9000084c:	00000013          	nop
90000850:	00000013          	nop
90000854:	00000013          	nop
90000858:	00000013          	nop
9000085c:	00000013          	nop
90000860:	00000013          	nop
90000864:	00000013          	nop
90000868:	00000013          	nop
9000086c:	00000013          	nop
90000870:	00000013          	nop
90000874:	00000013          	nop
90000878:	00000013          	nop
9000087c:	00000013          	nop
90000880:	00000013          	nop
90000884:	00000013          	nop
90000888:	00000013          	nop
9000088c:	00000013          	nop
90000890:	00000013          	nop
90000894:	00000013          	nop
90000898:	00000013          	nop
9000089c:	00000013          	nop
900008a0:	00000013          	nop
900008a4:	00000013          	nop
900008a8:	00000013          	nop
900008ac:	00000013          	nop
900008b0:	00000013          	nop
900008b4:	00000013          	nop
900008b8:	00000013          	nop
900008bc:	00000013          	nop
900008c0:	00000013          	nop
900008c4:	00000013          	nop
900008c8:	00000013          	nop
900008cc:	00000013          	nop
900008d0:	00000013          	nop
900008d4:	00000013          	nop
900008d8:	00000013          	nop
900008dc:	00000013          	nop
900008e0:	00000013          	nop
900008e4:	00000013          	nop
900008e8:	00000013          	nop
900008ec:	00000013          	nop
900008f0:	00000013          	nop
900008f4:	00000013          	nop
900008f8:	00000013          	nop
900008fc:	00000013          	nop
90000900:	00000013          	nop
90000904:	00000013          	nop
90000908:	00000013          	nop
9000090c:	00000013          	nop
90000910:	00000013          	nop
90000914:	00000013          	nop
90000918:	00000013          	nop
9000091c:	00000013          	nop
90000920:	00000013          	nop
90000924:	feb57f63          	bgeu	a0,a1,90000122 <inst_0+0x16>
90000928:	00210113          	addi	sp,sp,2
9000092c:	0100006f          	j	9000093c <inst_0+0x830>
90000930:	0000                	unimp
90000932:	00310113          	addi	sp,sp,3
90000936:	0060006f          	j	9000093c <inst_0+0x830>
9000093a:	0000                	unimp
9000093c:	0020a023          	sw	sp,0(ra)

90000940 <rvtest_code_end>:
90000940:	44c0006f          	j	90000d8c <exit_cleanup>

90000944 <init_mscratch>:
90000944:	00001317          	auipc	t1,0x1
90000948:	6bc30313          	addi	t1,t1,1724 # 90002000 <rvtest_data_begin>
9000094c:	34031373          	csrrw	t1,mscratch,t1
90000950:	00001397          	auipc	t2,0x1
90000954:	71438393          	addi	t2,t2,1812 # 90002064 <mscratch_save>
90000958:	0063a023          	sw	t1,0(t2)
9000095c:	34002373          	csrr	t1,mscratch
90000960:	00001397          	auipc	t2,0x1
90000964:	72438393          	addi	t2,t2,1828 # 90002084 <mtrap_sigptr>
90000968:	00732023          	sw	t2,0(t1)

9000096c <init_mtvec>:
9000096c:	00000317          	auipc	t1,0x0
90000970:	08030313          	addi	t1,t1,128 # 900009ec <mtrampoline>
90000974:	00001e97          	auipc	t4,0x1
90000978:	6e8e8e93          	addi	t4,t4,1768 # 9000205c <mtvec_save>
9000097c:	305313f3          	csrrw	t2,mtvec,t1
90000980:	007ea023          	sw	t2,0(t4)
90000984:	30502e73          	csrr	t3,mtvec
90000988:	e86e0263          	beq	t3,t1,9000000c <rvtest_prolog_done>

9000098c <init_tramp>:
9000098c:	30539073          	csrw	mtvec,t2
90000990:	00001e17          	auipc	t3,0x1
90000994:	68ce0e13          	addi	t3,t3,1676 # 9000201c <tramptbl_sv>
90000998:	040e0e93          	addi	t4,t3,64

9000099c <overwrite_tt>:
9000099c:	0003af83          	lw	t6,0(t2)
900009a0:	01fe2023          	sw	t6,0(t3)
900009a4:	00032f03          	lw	t5,0(t1)
900009a8:	01e3a023          	sw	t5,0(t2)
900009ac:	0003af83          	lw	t6,0(t2)
900009b0:	01ef9c63          	bne	t6,t5,900009c8 <resto_tramp>
900009b4:	00430313          	addi	t1,t1,4
900009b8:	00438393          	addi	t2,t2,4
900009bc:	004e0e13          	addi	t3,t3,4
900009c0:	fdde1ee3          	bne	t3,t4,9000099c <overwrite_tt>
900009c4:	e48ff06f          	j	9000000c <rvtest_prolog_done>

900009c8 <resto_tramp>:
900009c8:	010ea303          	lw	t1,16(t4)
900009cc:	34031073          	csrw	mscratch,t1
900009d0:	008eae83          	lw	t4,8(t4)

900009d4 <resto_loop>:
900009d4:	000e2f83          	lw	t6,0(t3)
900009d8:	01f3a023          	sw	t6,0(t2)
900009dc:	ffc38393          	addi	t2,t2,-4
900009e0:	ffce0e13          	addi	t3,t3,-4
900009e4:	ffd398e3          	bne	t2,t4,900009d4 <resto_loop>
900009e8:	3e00006f          	j	90000dc8 <rvtest_end>

900009ec <mtrampoline>:
900009ec:	0800006f          	j	90000a6c <mtrap_handler>
900009f0:	0880006f          	j	90000a78 <mtrap_handler+0xc>
900009f4:	0900006f          	j	90000a84 <mtrap_handler+0x18>
900009f8:	0980006f          	j	90000a90 <mtrap_handler+0x24>
900009fc:	0a00006f          	j	90000a9c <mtrap_handler+0x30>
90000a00:	0a80006f          	j	90000aa8 <mtrap_handler+0x3c>
90000a04:	0b00006f          	j	90000ab4 <mtrap_handler+0x48>
90000a08:	0b80006f          	j	90000ac0 <mtrap_handler+0x54>
90000a0c:	0c00006f          	j	90000acc <mtrap_handler+0x60>
90000a10:	0c80006f          	j	90000ad8 <mtrap_handler+0x6c>
90000a14:	0d00006f          	j	90000ae4 <mtrap_handler+0x78>
90000a18:	0d80006f          	j	90000af0 <mtrap_handler+0x84>
90000a1c:	0e00006f          	j	90000afc <mtrap_handler+0x90>
90000a20:	0e80006f          	j	90000b08 <mtrap_handler+0x9c>
90000a24:	0f00006f          	j	90000b14 <mtrap_handler+0xa8>
90000a28:	0f80006f          	j	90000b20 <mtrap_handler+0xb4>
90000a2c:	30200073          	mret
90000a30:	30200073          	mret
90000a34:	30200073          	mret
90000a38:	30200073          	mret
90000a3c:	30200073          	mret
90000a40:	30200073          	mret
90000a44:	30200073          	mret
90000a48:	30200073          	mret
90000a4c:	30200073          	mret
90000a50:	30200073          	mret
90000a54:	30200073          	mret
90000a58:	30200073          	mret
90000a5c:	30200073          	mret
90000a60:	30200073          	mret
90000a64:	30200073          	mret
90000a68:	30200073          	mret

90000a6c <mtrap_handler>:
90000a6c:	34011173          	csrrw	sp,mscratch,sp
90000a70:	01f12c23          	sw	t6,24(sp)
90000a74:	0b800fef          	jal	t6,90000b2c <common_prolog>
90000a78:	34011173          	csrrw	sp,mscratch,sp
90000a7c:	01f12c23          	sw	t6,24(sp)
90000a80:	0ac00fef          	jal	t6,90000b2c <common_prolog>
90000a84:	34011173          	csrrw	sp,mscratch,sp
90000a88:	01f12c23          	sw	t6,24(sp)
90000a8c:	0a000fef          	jal	t6,90000b2c <common_prolog>
90000a90:	34011173          	csrrw	sp,mscratch,sp
90000a94:	01f12c23          	sw	t6,24(sp)
90000a98:	09400fef          	jal	t6,90000b2c <common_prolog>
90000a9c:	34011173          	csrrw	sp,mscratch,sp
90000aa0:	01f12c23          	sw	t6,24(sp)
90000aa4:	08800fef          	jal	t6,90000b2c <common_prolog>
90000aa8:	34011173          	csrrw	sp,mscratch,sp
90000aac:	01f12c23          	sw	t6,24(sp)
90000ab0:	07c00fef          	jal	t6,90000b2c <common_prolog>
90000ab4:	34011173          	csrrw	sp,mscratch,sp
90000ab8:	01f12c23          	sw	t6,24(sp)
90000abc:	07000fef          	jal	t6,90000b2c <common_prolog>
90000ac0:	34011173          	csrrw	sp,mscratch,sp
90000ac4:	01f12c23          	sw	t6,24(sp)
90000ac8:	06400fef          	jal	t6,90000b2c <common_prolog>
90000acc:	34011173          	csrrw	sp,mscratch,sp
90000ad0:	01f12c23          	sw	t6,24(sp)
90000ad4:	05800fef          	jal	t6,90000b2c <common_prolog>
90000ad8:	34011173          	csrrw	sp,mscratch,sp
90000adc:	01f12c23          	sw	t6,24(sp)
90000ae0:	04c00fef          	jal	t6,90000b2c <common_prolog>
90000ae4:	34011173          	csrrw	sp,mscratch,sp
90000ae8:	01f12c23          	sw	t6,24(sp)
90000aec:	04000fef          	jal	t6,90000b2c <common_prolog>
90000af0:	34011173          	csrrw	sp,mscratch,sp
90000af4:	01f12c23          	sw	t6,24(sp)
90000af8:	03400fef          	jal	t6,90000b2c <common_prolog>
90000afc:	34011173          	csrrw	sp,mscratch,sp
90000b00:	01f12c23          	sw	t6,24(sp)
90000b04:	02800fef          	jal	t6,90000b2c <common_prolog>
90000b08:	34011173          	csrrw	sp,mscratch,sp
90000b0c:	01f12c23          	sw	t6,24(sp)
90000b10:	01c00fef          	jal	t6,90000b2c <common_prolog>
90000b14:	34011173          	csrrw	sp,mscratch,sp
90000b18:	01f12c23          	sw	t6,24(sp)
90000b1c:	01000fef          	jal	t6,90000b2c <common_prolog>
90000b20:	34011173          	csrrw	sp,mscratch,sp
90000b24:	01f12c23          	sw	t6,24(sp)
90000b28:	00400fef          	jal	t6,90000b2c <common_prolog>

90000b2c <common_prolog>:
90000b2c:	00000f17          	auipc	t5,0x0
90000b30:	00cf0f13          	addi	t5,t5,12 # 90000b38 <common_mhandler>
90000b34:	000f0067          	jr	t5

90000b38 <common_mhandler>:
90000b38:	01e12a23          	sw	t5,20(sp)
90000b3c:	01d12823          	sw	t4,16(sp)
90000b40:	01c12623          	sw	t3,12(sp)
90000b44:	00712423          	sw	t2,8(sp)
90000b48:	00612223          	sw	t1,4(sp)
90000b4c:	00012303          	lw	t1,0(sp)
90000b50:	00000e17          	auipc	t3,0x0
90000b54:	e9ce0e13          	addi	t3,t3,-356 # 900009ec <mtrampoline>
90000b58:	41cf83b3          	sub	t2,t6,t3
90000b5c:	00338393          	addi	t2,t2,3
90000b60:	00732023          	sw	t2,0(t1)

90000b64 <sv_mcause>:
90000b64:	342023f3          	csrr	t2,mcause
90000b68:	00732223          	sw	t2,4(t1)
90000b6c:	0c03cc63          	bltz	t2,90000c44 <common_mint_handler>

90000b70 <common_mexcpt_handler>:
90000b70:	341023f3          	csrr	t2,mepc

90000b74 <sv_mepc>:
90000b74:	fffffe17          	auipc	t3,0xfffff
90000b78:	498e0e13          	addi	t3,t3,1176 # 9000000c <rvtest_prolog_done>
90000b7c:	41c38eb3          	sub	t4,t2,t3
90000b80:	01d32423          	sw	t4,8(t1)

90000b84 <adj_mepc>:
90000b84:	0023fe93          	andi	t4,t2,2
90000b88:	41d383b3          	sub	t2,t2,t4
90000b8c:	00838393          	addi	t2,t2,8
90000b90:	34139073          	csrw	mepc,t2

90000b94 <adj_mtval>:
90000b94:	342023f3          	csrr	t2,mcause
90000b98:	d0080eb7          	lui	t4,0xd0080
90000b9c:	007e9eb3          	sll	t4,t4,t2
90000ba0:	060ec863          	bltz	t4,90000c10 <sv_mtval>
90000ba4:	00001e17          	auipc	t3,0x1
90000ba8:	4e0e0e13          	addi	t3,t3,1248 # 90002084 <mtrap_sigptr>
90000bac:	0f050eb7          	lui	t4,0xf050
90000bb0:	007e9eb3          	sll	t4,t4,t2
90000bb4:	000ede63          	bgez	t4,90000bd0 <no_adj>

90000bb8 <sigbound_chk>:
90000bb8:	34302ef3          	csrr	t4,mtval
90000bbc:	05de5a63          	bge	t3,t4,90000c10 <sv_mtval>
90000bc0:	00001e17          	auipc	t3,0x1
90000bc4:	440e0e13          	addi	t3,t3,1088 # 90002000 <rvtest_data_begin>
90000bc8:	05de4463          	blt	t3,t4,90000c10 <sv_mtval>
90000bcc:	000e0e93          	mv	t4,t3

90000bd0 <no_adj>:
90000bd0:	00000e13          	li	t3,0
90000bd4:	ffe38393          	addi	t2,t2,-2
90000bd8:	02039c63          	bnez	t2,90000c10 <sv_mtval>
90000bdc:	343023f3          	csrr	t2,mtval
90000be0:	02039863          	bnez	t2,90000c10 <sv_mtval>

90000be4 <illop>:
90000be4:	00020f37          	lui	t5,0x20
90000be8:	300f2f73          	csrrs	t5,mstatus,t5
90000bec:	34102e73          	csrr	t3,mepc
90000bf0:	000e5383          	lhu	t2,0(t3)
90000bf4:	0033fe93          	andi	t4,t2,3
90000bf8:	ffde8e93          	addi	t4,t4,-3 # f04fffd <value+0xf04ffed>
90000bfc:	000e9a63          	bnez	t4,90000c10 <sv_mtval>
90000c00:	002e5e83          	lhu	t4,2(t3)
90000c04:	010e9e93          	slli	t4,t4,0x10
90000c08:	01d3ee33          	or	t3,t2,t4
90000c0c:	300f1073          	csrw	mstatus,t5

90000c10 <sv_mtval>:
90000c10:	343023f3          	csrr	t2,mtval
90000c14:	41c383b3          	sub	t2,t2,t3
90000c18:	00732623          	sw	t2,12(t1)

90000c1c <resto_rtn>:
90000c1c:	01030313          	addi	t1,t1,16
90000c20:	00612023          	sw	t1,0(sp)
90000c24:	00412303          	lw	t1,4(sp)
90000c28:	00812383          	lw	t2,8(sp)
90000c2c:	00c12e03          	lw	t3,12(sp)
90000c30:	01012e83          	lw	t4,16(sp)
90000c34:	01412f03          	lw	t5,20(sp)
90000c38:	01812f83          	lw	t6,24(sp)
90000c3c:	34011173          	csrrw	sp,mscratch,sp
90000c40:	30200073          	mret

90000c44 <common_mint_handler>:
90000c44:	00100e13          	li	t3,1
90000c48:	007e1e33          	sll	t3,t3,t2
90000c4c:	344e3ef3          	csrrc	t4,mip,t3
90000c50:	304e3ef3          	csrrc	t4,mie,t3

90000c54 <sv_mip>:
90000c54:	01d32423          	sw	t4,8(t1)
90000c58:	00339393          	slli	t2,t2,0x3
90000c5c:	00000e17          	auipc	t3,0x0
90000c60:	02ce0e13          	addi	t3,t3,44 # 90000c88 <clrint_tbl>
90000c64:	007e0e33          	add	t3,t3,t2
90000c68:	000e2e03          	lw	t3,0(t3)
90000c6c:	000e0067          	jr	t3

90000c70 <clr_sw_int>:
90000c70:	020003b7          	lui	t2,0x2000
90000c74:	0003a023          	sw	zero,0(t2) # 2000000 <value+0x1fffff0>
90000c78:	fa5ff06f          	j	90000c1c <resto_rtn>

90000c7c <clr_tmr_int>:
90000c7c:	fa1ff06f          	j	90000c1c <resto_rtn>

90000c80 <clr_ext_int>:
90000c80:	ffc32a23          	sw	t3,-12(t1)
90000c84:	f99ff06f          	j	90000c1c <resto_rtn>

90000c88 <clrint_tbl>:
90000c88:	0c1c                	addi	a5,sp,528
90000c8a:	9000                	0x9000
90000c8c:	0000                	unimp
90000c8e:	0000                	unimp
90000c90:	0c70                	addi	a2,sp,540
90000c92:	9000                	0x9000
90000c94:	0000                	unimp
90000c96:	0000                	unimp
90000c98:	0c1c                	addi	a5,sp,528
90000c9a:	9000                	0x9000
90000c9c:	0000                	unimp
90000c9e:	0000                	unimp
90000ca0:	0c70                	addi	a2,sp,540
90000ca2:	9000                	0x9000
90000ca4:	0000                	unimp
90000ca6:	0000                	unimp
90000ca8:	0c1c                	addi	a5,sp,528
90000caa:	9000                	0x9000
90000cac:	0000                	unimp
90000cae:	0000                	unimp
90000cb0:	0c7c                	addi	a5,sp,540
90000cb2:	9000                	0x9000
90000cb4:	0000                	unimp
90000cb6:	0000                	unimp
90000cb8:	0c1c                	addi	a5,sp,528
90000cba:	9000                	0x9000
90000cbc:	0000                	unimp
90000cbe:	0000                	unimp
90000cc0:	0c7c                	addi	a5,sp,540
90000cc2:	9000                	0x9000
90000cc4:	0000                	unimp
90000cc6:	0000                	unimp
90000cc8:	0c1c                	addi	a5,sp,528
90000cca:	9000                	0x9000
90000ccc:	0000                	unimp
90000cce:	0000                	unimp
90000cd0:	0c80                	addi	s0,sp,592
90000cd2:	9000                	0x9000
90000cd4:	0000                	unimp
90000cd6:	0000                	unimp
90000cd8:	0c1c                	addi	a5,sp,528
90000cda:	9000                	0x9000
90000cdc:	0000                	unimp
90000cde:	0000                	unimp
90000ce0:	0c80                	addi	s0,sp,592
90000ce2:	9000                	0x9000
90000ce4:	0000                	unimp
90000ce6:	0000                	unimp
90000ce8:	0c1c                	addi	a5,sp,528
90000cea:	9000                	0x9000
90000cec:	0000                	unimp
90000cee:	0000                	unimp
90000cf0:	0c1c                	addi	a5,sp,528
90000cf2:	9000                	0x9000
90000cf4:	0000                	unimp
90000cf6:	0000                	unimp
90000cf8:	0c1c                	addi	a5,sp,528
90000cfa:	9000                	0x9000
90000cfc:	0000                	unimp
90000cfe:	0000                	unimp
90000d00:	0c1c                	addi	a5,sp,528
90000d02:	9000                	0x9000
90000d04:	0000                	unimp
90000d06:	0000                	unimp
90000d08:	0c1c                	addi	a5,sp,528
90000d0a:	9000                	0x9000
90000d0c:	0000                	unimp
90000d0e:	0000                	unimp
90000d10:	0c1c                	addi	a5,sp,528
90000d12:	9000                	0x9000
90000d14:	0000                	unimp
90000d16:	0000                	unimp
90000d18:	0c1c                	addi	a5,sp,528
90000d1a:	9000                	0x9000
90000d1c:	0000                	unimp
90000d1e:	0000                	unimp
90000d20:	0c1c                	addi	a5,sp,528
90000d22:	9000                	0x9000
90000d24:	0000                	unimp
90000d26:	0000                	unimp
90000d28:	0c1c                	addi	a5,sp,528
90000d2a:	9000                	0x9000
90000d2c:	0000                	unimp
90000d2e:	0000                	unimp
90000d30:	0c1c                	addi	a5,sp,528
90000d32:	9000                	0x9000
90000d34:	0000                	unimp
90000d36:	0000                	unimp
90000d38:	0c1c                	addi	a5,sp,528
90000d3a:	9000                	0x9000
90000d3c:	0000                	unimp
90000d3e:	0000                	unimp
90000d40:	0c1c                	addi	a5,sp,528
90000d42:	9000                	0x9000
90000d44:	0000                	unimp
90000d46:	0000                	unimp
90000d48:	0c1c                	addi	a5,sp,528
90000d4a:	9000                	0x9000
90000d4c:	0000                	unimp
90000d4e:	0000                	unimp
90000d50:	0c1c                	addi	a5,sp,528
90000d52:	9000                	0x9000
90000d54:	0000                	unimp
90000d56:	0000                	unimp
90000d58:	0c1c                	addi	a5,sp,528
90000d5a:	9000                	0x9000
90000d5c:	0000                	unimp
90000d5e:	0000                	unimp
90000d60:	0c1c                	addi	a5,sp,528
90000d62:	9000                	0x9000
90000d64:	0000                	unimp
90000d66:	0000                	unimp
90000d68:	0c1c                	addi	a5,sp,528
90000d6a:	9000                	0x9000
90000d6c:	0000                	unimp
90000d6e:	0000                	unimp
90000d70:	0c1c                	addi	a5,sp,528
90000d72:	9000                	0x9000
90000d74:	0000                	unimp
90000d76:	0000                	unimp
90000d78:	0c1c                	addi	a5,sp,528
90000d7a:	9000                	0x9000
90000d7c:	0000                	unimp
90000d7e:	0000                	unimp
90000d80:	0c1c                	addi	a5,sp,528
90000d82:	9000                	0x9000
90000d84:	0000                	unimp
90000d86:	0000                	unimp
90000d88:	00008067          	ret

90000d8c <exit_cleanup>:
90000d8c:	00001e17          	auipc	t3,0x1
90000d90:	2d0e0e13          	addi	t3,t3,720 # 9000205c <mtvec_save>
90000d94:	00001f17          	auipc	t5,0x1
90000d98:	2c8f0f13          	addi	t5,t5,712 # 9000205c <mtvec_save>
90000d9c:	008f2303          	lw	t1,8(t5)
90000da0:	34031073          	csrw	mscratch,t1
90000da4:	000f2e83          	lw	t4,0(t5)
90000da8:	305e93f3          	csrrw	t2,mtvec,t4
90000dac:	007e9e63          	bne	t4,t2,90000dc8 <rvtest_end>
90000db0:	040e8393          	addi	t2,t4,64

90000db4 <resto_vec>:
90000db4:	000e2f83          	lw	t6,0(t3)
90000db8:	01f3a023          	sw	t6,0(t2)
90000dbc:	ffc38393          	addi	t2,t2,-4
90000dc0:	ffce0e13          	addi	t3,t3,-4
90000dc4:	ffd398e3          	bne	t2,t4,90000db4 <resto_vec>

90000dc8 <rvtest_end>:
90000dc8:	00408093          	addi	ra,ra,4
90000dcc:	00100093          	li	ra,1

90000dd0 <write_tohost>:
90000dd0:	00000f17          	auipc	t5,0x0
90000dd4:	221f2823          	sw	ra,560(t5) # 90001000 <tohost>

90000dd8 <self_loop>:
90000dd8:	0000006f          	j	90000dd8 <self_loop>
	...

Disassembly of section .tohost:

90001000 <tohost>:
	...

90001100 <fromhost>:
	...

Disassembly of section .data:

90002000 <rvtest_data_begin>:
90002000:	deadbeef          	jal	t4,8ffdd5ea <value+0x8ffdd5da>
90002004:	deadbeef          	jal	t4,8ffdd5ee <value+0x8ffdd5de>
90002008:	deadbeef          	jal	t4,8ffdd5f2 <value+0x8ffdd5e2>
9000200c:	deadbeef          	jal	t4,8ffdd5f6 <value+0x8ffdd5e6>
90002010:	deadbeef          	jal	t4,8ffdd5fa <value+0x8ffdd5ea>
90002014:	deadbeef          	jal	t4,8ffdd5fe <value+0x8ffdd5ee>
90002018:	deadbeef          	jal	t4,8ffdd602 <value+0x8ffdd5f2>

9000201c <tramptbl_sv>:
9000201c:	0000006f          	j	9000201c <tramptbl_sv>
90002020:	0000006f          	j	90002020 <tramptbl_sv+0x4>
90002024:	0000006f          	j	90002024 <tramptbl_sv+0x8>
90002028:	0000006f          	j	90002028 <tramptbl_sv+0xc>
9000202c:	0000006f          	j	9000202c <tramptbl_sv+0x10>
90002030:	0000006f          	j	90002030 <tramptbl_sv+0x14>
90002034:	0000006f          	j	90002034 <tramptbl_sv+0x18>
90002038:	0000006f          	j	90002038 <tramptbl_sv+0x1c>
9000203c:	0000006f          	j	9000203c <tramptbl_sv+0x20>
90002040:	0000006f          	j	90002040 <tramptbl_sv+0x24>
90002044:	0000006f          	j	90002044 <tramptbl_sv+0x28>
90002048:	0000006f          	j	90002048 <tramptbl_sv+0x2c>
9000204c:	0000006f          	j	9000204c <tramptbl_sv+0x30>
90002050:	0000006f          	j	90002050 <tramptbl_sv+0x34>
90002054:	0000006f          	j	90002054 <tramptbl_sv+0x38>
90002058:	0000006f          	j	90002058 <tramptbl_sv+0x3c>

9000205c <mtvec_save>:
	...

90002064 <mscratch_save>:
	...

90002070 <rvtest_data>:
90002070:	cafe                	sw	t6,84(sp)
90002072:	babe                	fsd	fa5,368(sp)

90002074 <rvtest_data_end>:
	...

90002080 <begin_signature>:
90002080:	deadbeef          	jal	t4,8ffdd66a <value+0x8ffdd65a>

90002084 <mtrap_sigptr>:
90002084:	deadbeef          	jal	t4,8ffdd66e <value+0x8ffdd65e>
90002088:	deadbeef          	jal	t4,8ffdd672 <value+0x8ffdd662>
9000208c:	deadbeef          	jal	t4,8ffdd676 <value+0x8ffdd666>
90002090:	deadbeef          	jal	t4,8ffdd67a <value+0x8ffdd66a>
90002094:	deadbeef          	jal	t4,8ffdd67e <value+0x8ffdd66e>
90002098:	deadbeef          	jal	t4,8ffdd682 <value+0x8ffdd672>
9000209c:	deadbeef          	jal	t4,8ffdd686 <value+0x8ffdd676>
900020a0:	deadbeef          	jal	t4,8ffdd68a <value+0x8ffdd67a>
900020a4:	deadbeef          	jal	t4,8ffdd68e <value+0x8ffdd67e>
900020a8:	deadbeef          	jal	t4,8ffdd692 <value+0x8ffdd682>
900020ac:	deadbeef          	jal	t4,8ffdd696 <value+0x8ffdd686>
900020b0:	deadbeef          	jal	t4,8ffdd69a <value+0x8ffdd68a>
900020b4:	deadbeef          	jal	t4,8ffdd69e <value+0x8ffdd68e>
900020b8:	deadbeef          	jal	t4,8ffdd6a2 <value+0x8ffdd692>
900020bc:	deadbeef          	jal	t4,8ffdd6a6 <value+0x8ffdd696>
900020c0:	deadbeef          	jal	t4,8ffdd6aa <value+0x8ffdd69a>
900020c4:	deadbeef          	jal	t4,8ffdd6ae <value+0x8ffdd69e>
900020c8:	deadbeef          	jal	t4,8ffdd6b2 <value+0x8ffdd6a2>
900020cc:	deadbeef          	jal	t4,8ffdd6b6 <value+0x8ffdd6a6>
900020d0:	deadbeef          	jal	t4,8ffdd6ba <value+0x8ffdd6aa>
900020d4:	deadbeef          	jal	t4,8ffdd6be <value+0x8ffdd6ae>
900020d8:	deadbeef          	jal	t4,8ffdd6c2 <value+0x8ffdd6b2>
900020dc:	deadbeef          	jal	t4,8ffdd6c6 <value+0x8ffdd6b6>
900020e0:	deadbeef          	jal	t4,8ffdd6ca <value+0x8ffdd6ba>
900020e4:	deadbeef          	jal	t4,8ffdd6ce <value+0x8ffdd6be>
900020e8:	deadbeef          	jal	t4,8ffdd6d2 <value+0x8ffdd6c2>
900020ec:	deadbeef          	jal	t4,8ffdd6d6 <value+0x8ffdd6c6>
900020f0:	deadbeef          	jal	t4,8ffdd6da <value+0x8ffdd6ca>
900020f4:	deadbeef          	jal	t4,8ffdd6de <value+0x8ffdd6ce>
900020f8:	deadbeef          	jal	t4,8ffdd6e2 <value+0x8ffdd6d2>
900020fc:	deadbeef          	jal	t4,8ffdd6e6 <value+0x8ffdd6d6>
90002100:	deadbeef          	jal	t4,8ffdd6ea <value+0x8ffdd6da>
90002104:	deadbeef          	jal	t4,8ffdd6ee <value+0x8ffdd6de>
90002108:	deadbeef          	jal	t4,8ffdd6f2 <value+0x8ffdd6e2>
9000210c:	deadbeef          	jal	t4,8ffdd6f6 <value+0x8ffdd6e6>
90002110:	deadbeef          	jal	t4,8ffdd6fa <value+0x8ffdd6ea>
90002114:	deadbeef          	jal	t4,8ffdd6fe <value+0x8ffdd6ee>
90002118:	deadbeef          	jal	t4,8ffdd702 <value+0x8ffdd6f2>
9000211c:	deadbeef          	jal	t4,8ffdd706 <value+0x8ffdd6f6>
90002120:	deadbeef          	jal	t4,8ffdd70a <value+0x8ffdd6fa>
90002124:	deadbeef          	jal	t4,8ffdd70e <value+0x8ffdd6fe>
90002128:	deadbeef          	jal	t4,8ffdd712 <value+0x8ffdd702>
9000212c:	deadbeef          	jal	t4,8ffdd716 <value+0x8ffdd706>
90002130:	deadbeef          	jal	t4,8ffdd71a <value+0x8ffdd70a>
90002134:	deadbeef          	jal	t4,8ffdd71e <value+0x8ffdd70e>
90002138:	deadbeef          	jal	t4,8ffdd722 <value+0x8ffdd712>
9000213c:	deadbeef          	jal	t4,8ffdd726 <value+0x8ffdd716>
90002140:	deadbeef          	jal	t4,8ffdd72a <value+0x8ffdd71a>
90002144:	deadbeef          	jal	t4,8ffdd72e <value+0x8ffdd71e>
90002148:	deadbeef          	jal	t4,8ffdd732 <value+0x8ffdd722>
9000214c:	deadbeef          	jal	t4,8ffdd736 <value+0x8ffdd726>
90002150:	deadbeef          	jal	t4,8ffdd73a <value+0x8ffdd72a>
90002154:	deadbeef          	jal	t4,8ffdd73e <value+0x8ffdd72e>
90002158:	deadbeef          	jal	t4,8ffdd742 <value+0x8ffdd732>
9000215c:	deadbeef          	jal	t4,8ffdd746 <value+0x8ffdd736>
90002160:	deadbeef          	jal	t4,8ffdd74a <value+0x8ffdd73a>
90002164:	deadbeef          	jal	t4,8ffdd74e <value+0x8ffdd73e>
90002168:	deadbeef          	jal	t4,8ffdd752 <value+0x8ffdd742>
9000216c:	deadbeef          	jal	t4,8ffdd756 <value+0x8ffdd746>
90002170:	deadbeef          	jal	t4,8ffdd75a <value+0x8ffdd74a>
90002174:	deadbeef          	jal	t4,8ffdd75e <value+0x8ffdd74e>
90002178:	deadbeef          	jal	t4,8ffdd762 <value+0x8ffdd752>
9000217c:	deadbeef          	jal	t4,8ffdd766 <value+0x8ffdd756>
90002180:	deadbeef          	jal	t4,8ffdd76a <value+0x8ffdd75a>
	...

90002190 <end_signature>:
	...

90002200 <begin_regstate>:
90002200:	0080                	addi	s0,sp,64
	...

90002300 <end_regstate>:
90002300:	0004                	0x4
	...

Disassembly of section .riscv.attributes:

00000000 <.riscv.attributes>:
   0:	1d41                	addi	s10,s10,-16
   2:	0000                	unimp
   4:	7200                	flw	fs0,32(a2)
   6:	7369                	lui	t1,0xffffa
   8:	01007663          	bgeu	zero,a6,14 <value+0x4>
   c:	00000013          	nop
  10:	7205                	lui	tp,0xfffe1
  12:	3376                	fld	ft6,376(sp)
  14:	6932                	flw	fs2,12(sp)
  16:	7032                	flw	ft0,44(sp)
  18:	0030                	addi	a2,sp,8
  1a:	0108                	addi	a0,sp,128
  1c:	0b0a                	slli	s6,s6,0x2

Disassembly of section .debug_line:

00000000 <.debug_line>:
   0:	0000006b          	0x6b
   4:	002d0003          	lb	zero,2(s10)
   8:	0000                	unimp
   a:	0101                	addi	sp,sp,0
   c:	000d0efb          	0xd0efb
  10:	0101                	addi	sp,sp,0
  12:	0101                	addi	sp,sp,0
  14:	0000                	unimp
  16:	0100                	addi	s0,sp,128
  18:	0000                	unimp
  1a:	7301                	lui	t1,0xfffe0
  1c:	6372                	flw	ft6,28(sp)
  1e:	0000                	unimp
  20:	696d                	lui	s2,0x1b
  22:	696c6173          	csrrsi	sp,0x696,24
  26:	622d6e67          	0x622d6e67
  2a:	2d756567          	0x2d756567
  2e:	3130                	fld	fa2,96(a0)
  30:	532e                	lw	t1,232(sp)
  32:	0100                	addi	s0,sp,128
  34:	0000                	unimp
  36:	0000                	unimp
  38:	0205                	addi	tp,tp,1
  3a:	0000                	unimp
  3c:	9000                	0x9000
  3e:	03011903          	lh	s2,48(sp)
  42:	0908                	addi	a0,sp,144
  44:	0104                	addi	s1,sp,128
  46:	0301                	addi	t1,t1,0
  48:	0905                	addi	s2,s2,1
  4a:	0008                	0x8
  4c:	0301                	addi	t1,t1,0
  4e:	0904                	addi	s1,sp,144
  50:	0834                	addi	a3,sp,24
  52:	0301                	addi	t1,t1,0
  54:	0901                	addi	s2,s2,0
  56:	0488                	addi	a0,sp,576
  58:	0901                	addi	s2,s2,0
  5a:	0014                	0x14
  5c:	0100                	addi	s0,sp,128
  5e:	0001                	nop
  60:	0205                	addi	tp,tp,1
  62:	201c                	fld	fa5,0(s0)
  64:	9000                	0x9000
  66:	09012d03          	lw	s10,144(sp)
  6a:	02e8                	addi	a0,sp,332
  6c:	0100                	addi	s0,sp,128
  6e:	01              	Address 0x000000000000006e is out of bounds.


Disassembly of section .debug_info:

00000000 <.debug_info>:
   0:	001e                	c.slli	zero,0x7
   2:	0000                	unimp
   4:	0002                	c.slli64	zero
   6:	0000                	unimp
   8:	0000                	unimp
   a:	0104                	addi	s1,sp,128
	...
  18:	00000017          	auipc	zero,0x0
  1c:	0086                	slli	ra,ra,0x1
  1e:	0000                	unimp
  20:	8001                	c.srli64	s0

Disassembly of section .debug_abbrev:

00000000 <.debug_abbrev>:
   0:	1101                	addi	sp,sp,-32
   2:	1000                	addi	s0,sp,32
   4:	5506                	lw	a0,96(sp)
   6:	0306                	slli	t1,t1,0x1
   8:	1b0e                	slli	s6,s6,0x23
   a:	250e                	fld	fa0,192(sp)
   c:	130e                	slli	t1,t1,0x23
   e:	0005                	c.nop	1
	...

Disassembly of section .debug_aranges:

00000000 <.debug_aranges>:
   0:	0024                	addi	s1,sp,8
   2:	0000                	unimp
   4:	0002                	c.slli64	zero
   6:	0000                	unimp
   8:	0000                	unimp
   a:	0004                	0x4
   c:	0000                	unimp
   e:	0000                	unimp
  10:	0000                	unimp
  12:	9000                	0x9000
  14:	0ddc                	addi	a5,sp,724
  16:	0000                	unimp
  18:	2000                	fld	fs0,0(s0)
  1a:	9000                	0x9000
  1c:	0304                	addi	s1,sp,384
	...

Disassembly of section .debug_str:

00000000 <.debug_str>:
   0:	2f637273          	csrrci	tp,0x2f6,6
   4:	696d                	lui	s2,0x1b
   6:	696c6173          	csrrsi	sp,0x696,24
   a:	622d6e67          	0x622d6e67
   e:	2d756567          	0x2d756567
  12:	3130                	fld	fa2,96(a0)
  14:	532e                	lw	t1,232(sp)
  16:	2f00                	fld	fs0,24(a4)
  18:	6f68                	flw	fa0,92(a4)
  1a:	656d                	lui	a0,0x1b
  1c:	6b61742f          	0x6b61742f
  20:	2f61                	jal	7b8 <value+0x7a8>
  22:	4952                	lw	s2,20(sp)
  24:	2f564353          	0x2f564353
  28:	6d6d                	lui	s10,0x1b
  2a:	4952                	lw	s2,20(sp)
  2c:	732f4353          	0x732f4353
  30:	6d69                	lui	s10,0x1a
  32:	6c75                	lui	s8,0x1d
  34:	7461                	lui	s0,0xffff8
  36:	6f69                	lui	t5,0x1a
  38:	2f6e                	fld	ft10,216(sp)
  3a:	6f6d                	lui	t5,0x1b
  3c:	6564                	flw	fs1,76(a0)
  3e:	736c                	flw	fa1,100(a4)
  40:	6d69                	lui	s10,0x1a
  42:	7369722f          	0x7369722f
  46:	612d7663          	bgeu	s10,s2,652 <value+0x642>
  4a:	6372                	flw	ft6,28(sp)
  4c:	2d68                	fld	fa0,216(a0)
  4e:	6574                	flw	fa3,76(a0)
  50:	722f7473          	csrrci	s0,0x722,30
  54:	7369                	lui	t1,0xffffa
  56:	612d7663          	bgeu	s10,s2,662 <value+0x652>
  5a:	6372                	flw	ft6,28(sp)
  5c:	2d68                	fld	fa0,216(a0)
  5e:	6574                	flw	fa3,76(a0)
  60:	722f7473          	csrrci	s0,0x722,30
  64:	7369                	lui	t1,0xffffa
  66:	742d7663          	bgeu	s10,sp,7b2 <value+0x7a2>
  6a:	7365                	lui	t1,0xffff9
  6c:	2d74                	fld	fa3,216(a0)
  6e:	74697573          	csrrci	a0,0x746,18
  72:	2f65                	jal	82a <value+0x81a>
  74:	7672                	flw	fa2,60(sp)
  76:	5f693233          	0x5f693233
  7a:	2f6d                	jal	834 <value+0x824>
  7c:	7270                	flw	fa2,100(a2)
  7e:	7669                	lui	a2,0xffffa
  80:	6c69                	lui	s8,0x1a
  82:	6765                	lui	a4,0x19
  84:	0065                	c.nop	25
  86:	20554e47          	fmsub.s	ft8,fa0,ft5,ft4,rmm
  8a:	5341                	li	t1,-16
  8c:	3220                	fld	fs0,96(a2)
  8e:	332e                	fld	ft6,232(sp)
  90:	0035                	c.nop	13

Disassembly of section .debug_ranges:

00000000 <.debug_ranges>:
   0:	ffff                	0xffff
   2:	ffff                	0xffff
   4:	0000                	unimp
   6:	0000                	unimp
   8:	0000                	unimp
   a:	9000                	0x9000
   c:	0ddc                	addi	a5,sp,724
   e:	9000                	0x9000
  10:	2000                	fld	fs0,0(s0)
  12:	9000                	0x9000
  14:	2304                	fld	fs1,0(a4)
  16:	9000                	0x9000
	...
