
mm.riscv:     file format elf64-littleriscv


Disassembly of section .text.init:

0000000080000000 <_start>:
    80000000:	4081                	li	ra,0
    80000002:	4101                	li	sp,0
    80000004:	4181                	li	gp,0
    80000006:	4201                	li	tp,0
    80000008:	4281                	li	t0,0
    8000000a:	4301                	li	t1,0
    8000000c:	4381                	li	t2,0
    8000000e:	4401                	li	s0,0
    80000010:	4481                	li	s1,0
    80000012:	4501                	li	a0,0
    80000014:	4581                	li	a1,0
    80000016:	4601                	li	a2,0
    80000018:	4681                	li	a3,0
    8000001a:	4701                	li	a4,0
    8000001c:	4781                	li	a5,0
    8000001e:	4801                	li	a6,0
    80000020:	4881                	li	a7,0
    80000022:	4901                	li	s2,0
    80000024:	4981                	li	s3,0
    80000026:	4a01                	li	s4,0
    80000028:	4a81                	li	s5,0
    8000002a:	4b01                	li	s6,0
    8000002c:	4b81                	li	s7,0
    8000002e:	4c01                	li	s8,0
    80000030:	4c81                	li	s9,0
    80000032:	4d01                	li	s10,0
    80000034:	4d81                	li	s11,0
    80000036:	4e01                	li	t3,0
    80000038:	4e81                	li	t4,0
    8000003a:	4f01                	li	t5,0
    8000003c:	4f81                	li	t6,0
    8000003e:	62f9                	lui	t0,0x1e
    80000040:	3002a073          	csrs	mstatus,t0
    80000044:	4285                	li	t0,1
    80000046:	02fe                	slli	t0,t0,0x1f
    80000048:	0002d863          	bgez	t0,80000058 <_start+0x58>
    8000004c:	4505                	li	a0,1
    8000004e:	00001297          	auipc	t0,0x1
    80000052:	faa2a923          	sw	a0,-78(t0) # 80001000 <tohost>
    80000056:	bfdd                	j	8000004c <_start+0x4c>
    80000058:	00000297          	auipc	t0,0x0
    8000005c:	09028293          	addi	t0,t0,144 # 800000e8 <_start+0xe8>
    80000060:	30529073          	csrw	mtvec,t0
    80000064:	00301073          	fscsr	zero
    80000068:	f0000053          	fmv.w.x	ft0,zero
    8000006c:	f00000d3          	fmv.w.x	ft1,zero
    80000070:	f0000153          	fmv.w.x	ft2,zero
    80000074:	f00001d3          	fmv.w.x	ft3,zero
    80000078:	f0000253          	fmv.w.x	ft4,zero
    8000007c:	f00002d3          	fmv.w.x	ft5,zero
    80000080:	f0000353          	fmv.w.x	ft6,zero
    80000084:	f00003d3          	fmv.w.x	ft7,zero
    80000088:	f0000453          	fmv.w.x	fs0,zero
    8000008c:	f00004d3          	fmv.w.x	fs1,zero
    80000090:	f0000553          	fmv.w.x	fa0,zero
    80000094:	f00005d3          	fmv.w.x	fa1,zero
    80000098:	f0000653          	fmv.w.x	fa2,zero
    8000009c:	f00006d3          	fmv.w.x	fa3,zero
    800000a0:	f0000753          	fmv.w.x	fa4,zero
    800000a4:	f00007d3          	fmv.w.x	fa5,zero
    800000a8:	f0000853          	fmv.w.x	fa6,zero
    800000ac:	f00008d3          	fmv.w.x	fa7,zero
    800000b0:	f0000953          	fmv.w.x	fs2,zero
    800000b4:	f00009d3          	fmv.w.x	fs3,zero
    800000b8:	f0000a53          	fmv.w.x	fs4,zero
    800000bc:	f0000ad3          	fmv.w.x	fs5,zero
    800000c0:	f0000b53          	fmv.w.x	fs6,zero
    800000c4:	f0000bd3          	fmv.w.x	fs7,zero
    800000c8:	f0000c53          	fmv.w.x	fs8,zero
    800000cc:	f0000cd3          	fmv.w.x	fs9,zero
    800000d0:	f0000d53          	fmv.w.x	fs10,zero
    800000d4:	f0000dd3          	fmv.w.x	fs11,zero
    800000d8:	f0000e53          	fmv.w.x	ft8,zero
    800000dc:	f0000ed3          	fmv.w.x	ft9,zero
    800000e0:	f0000f53          	fmv.w.x	ft10,zero
    800000e4:	f0000fd3          	fmv.w.x	ft11,zero
    800000e8:	00000297          	auipc	t0,0x0
    800000ec:	03828293          	addi	t0,t0,56 # 80000120 <trap_entry>
    800000f0:	30529073          	csrw	mtvec,t0
    800000f4:	00005197          	auipc	gp,0x5
    800000f8:	6c418193          	addi	gp,gp,1732 # 800057b8 <__global_pointer$>
    800000fc:	ac718213          	addi	tp,gp,-1337 # 8000527f <_end+0x3f>
    80000100:	fc027213          	andi	tp,tp,-64
    80000104:	f1402573          	csrr	a0,mhartid
    80000108:	4585                	li	a1,1
    8000010a:	00b57063          	bgeu	a0,a1,8000010a <_start+0x10a>
    8000010e:	00150113          	addi	sp,a0,1
    80000112:	0146                	slli	sp,sp,0x11
    80000114:	9112                	add	sp,sp,tp
    80000116:	01151613          	slli	a2,a0,0x11
    8000011a:	9232                	add	tp,tp,a2
    8000011c:	4f50406f          	j	80004e10 <_init>

0000000080000120 <trap_entry>:
    80000120:	716d                	addi	sp,sp,-272
    80000122:	e406                	sd	ra,8(sp)
    80000124:	e80a                	sd	sp,16(sp)
    80000126:	ec0e                	sd	gp,24(sp)
    80000128:	f012                	sd	tp,32(sp)
    8000012a:	f416                	sd	t0,40(sp)
    8000012c:	f81a                	sd	t1,48(sp)
    8000012e:	fc1e                	sd	t2,56(sp)
    80000130:	e0a2                	sd	s0,64(sp)
    80000132:	e4a6                	sd	s1,72(sp)
    80000134:	e8aa                	sd	a0,80(sp)
    80000136:	ecae                	sd	a1,88(sp)
    80000138:	f0b2                	sd	a2,96(sp)
    8000013a:	f4b6                	sd	a3,104(sp)
    8000013c:	f8ba                	sd	a4,112(sp)
    8000013e:	fcbe                	sd	a5,120(sp)
    80000140:	e142                	sd	a6,128(sp)
    80000142:	e546                	sd	a7,136(sp)
    80000144:	e94a                	sd	s2,144(sp)
    80000146:	ed4e                	sd	s3,152(sp)
    80000148:	f152                	sd	s4,160(sp)
    8000014a:	f556                	sd	s5,168(sp)
    8000014c:	f95a                	sd	s6,176(sp)
    8000014e:	fd5e                	sd	s7,184(sp)
    80000150:	e1e2                	sd	s8,192(sp)
    80000152:	e5e6                	sd	s9,200(sp)
    80000154:	e9ea                	sd	s10,208(sp)
    80000156:	edee                	sd	s11,216(sp)
    80000158:	f1f2                	sd	t3,224(sp)
    8000015a:	f5f6                	sd	t4,232(sp)
    8000015c:	f9fa                	sd	t5,240(sp)
    8000015e:	fdfe                	sd	t6,248(sp)
    80000160:	34202573          	csrr	a0,mcause
    80000164:	341025f3          	csrr	a1,mepc
    80000168:	860a                	mv	a2,sp
    8000016a:	2e9040ef          	jal	ra,80004c52 <handle_trap>
    8000016e:	34151073          	csrw	mepc,a0
    80000172:	6289                	lui	t0,0x2
    80000174:	8002829b          	addiw	t0,t0,-2048
    80000178:	3002a073          	csrs	mstatus,t0
    8000017c:	60a2                	ld	ra,8(sp)
    8000017e:	6142                	ld	sp,16(sp)
    80000180:	61e2                	ld	gp,24(sp)
    80000182:	7202                	ld	tp,32(sp)
    80000184:	72a2                	ld	t0,40(sp)
    80000186:	7342                	ld	t1,48(sp)
    80000188:	73e2                	ld	t2,56(sp)
    8000018a:	6406                	ld	s0,64(sp)
    8000018c:	64a6                	ld	s1,72(sp)
    8000018e:	6546                	ld	a0,80(sp)
    80000190:	65e6                	ld	a1,88(sp)
    80000192:	7606                	ld	a2,96(sp)
    80000194:	76a6                	ld	a3,104(sp)
    80000196:	7746                	ld	a4,112(sp)
    80000198:	77e6                	ld	a5,120(sp)
    8000019a:	680a                	ld	a6,128(sp)
    8000019c:	68aa                	ld	a7,136(sp)
    8000019e:	694a                	ld	s2,144(sp)
    800001a0:	69ea                	ld	s3,152(sp)
    800001a2:	7a0a                	ld	s4,160(sp)
    800001a4:	7aaa                	ld	s5,168(sp)
    800001a6:	7b4a                	ld	s6,176(sp)
    800001a8:	7bea                	ld	s7,184(sp)
    800001aa:	6c0e                	ld	s8,192(sp)
    800001ac:	6cae                	ld	s9,200(sp)
    800001ae:	6d4e                	ld	s10,208(sp)
    800001b0:	6dee                	ld	s11,216(sp)
    800001b2:	7e0e                	ld	t3,224(sp)
    800001b4:	7eae                	ld	t4,232(sp)
    800001b6:	7f4e                	ld	t5,240(sp)
    800001b8:	7fee                	ld	t6,248(sp)
    800001ba:	6151                	addi	sp,sp,272
    800001bc:	30200073          	mret
    800001c0:	0000                	unimp

Disassembly of section .text:

0000000080002000 <mm_naive>:
    80002000:	14050763          	beqz	a0,8000214e <mm_naive+0x14e>
    80002004:	7159                	addi	sp,sp,-112
    80002006:	ffc67293          	andi	t0,a2,-4
    8000200a:	e4d2                	sd	s4,72(sp)
    8000200c:	83be                	mv	t2,a5
    8000200e:	8a36                	mv	s4,a3
    80002010:	ffc28793          	addi	a5,t0,-4 # 1ffc <buflen.1+0x1f7c>
    80002014:	00181313          	slli	t1,a6,0x1
    80002018:	ec6a                	sd	s10,24(sp)
    8000201a:	9342                	add	t1,t1,a6
    8000201c:	8d46                	mv	s10,a7
    8000201e:	e03e                	sd	a5,0(sp)
    80002020:	00361893          	slli	a7,a2,0x3
    80002024:	020a0793          	addi	a5,s4,32
    80002028:	f0a6                	sd	s1,96(sp)
    8000202a:	ecca                	sd	s2,88(sp)
    8000202c:	e8ce                	sd	s3,80(sp)
    8000202e:	e0d6                	sd	s5,64(sp)
    80002030:	fc5a                	sd	s6,56(sp)
    80002032:	f85e                	sd	s7,48(sp)
    80002034:	f462                	sd	s8,40(sp)
    80002036:	f066                	sd	s9,32(sp)
    80002038:	e86e                	sd	s11,16(sp)
    8000203a:	98b6                	add	a7,a7,a3
    8000203c:	f4a2                	sd	s0,104(sp)
    8000203e:	8caa                	mv	s9,a0
    80002040:	892e                	mv	s2,a1
    80002042:	89b2                	mv	s3,a2
    80002044:	8c3a                	mv	s8,a4
    80002046:	8ac2                	mv	s5,a6
    80002048:	00371d93          	slli	s11,a4,0x3
    8000204c:	00581e93          	slli	t4,a6,0x5
    80002050:	00381693          	slli	a3,a6,0x3
    80002054:	00481e13          	slli	t3,a6,0x4
    80002058:	030e                	slli	t1,t1,0x3
    8000205a:	4b81                	li	s7,0
    8000205c:	4481                	li	s1,0
    8000205e:	4b01                	li	s6,0
    80002060:	e43e                	sd	a5,8(sp)
    80002062:	0a090d63          	beqz	s2,8000211c <mm_naive+0x11c>
    80002066:	6782                	ld	a5,0(sp)
    80002068:	003b9f93          	slli	t6,s7,0x3
    8000206c:	00349413          	slli	s0,s1,0x3
    80002070:	00f48833          	add	a6,s1,a5
    80002074:	67a2                	ld	a5,8(sp)
    80002076:	080e                	slli	a6,a6,0x3
    80002078:	9fea                	add	t6,t6,s10
    8000207a:	9452                	add	s0,s0,s4
    8000207c:	983e                	add	a6,a6,a5
    8000207e:	4f01                	li	t5,0
    80002080:	000fb787          	fld	fa5,0(t6)
    80002084:	0c028163          	beqz	t0,80002146 <mm_naive+0x146>
    80002088:	f20006d3          	fmv.d.x	fa3,zero
    8000208c:	003f1713          	slli	a4,t5,0x3
    80002090:	971e                	add	a4,a4,t2
    80002092:	22d68653          	fmv.d	fa2,fa3
    80002096:	22d68753          	fmv.d	fa4,fa3
    8000209a:	87a2                	mv	a5,s0
    8000209c:	00d70533          	add	a0,a4,a3
    800020a0:	01c705b3          	add	a1,a4,t3
    800020a4:	00670633          	add	a2,a4,t1
    800020a8:	0007b287          	fld	ft5,0(a5)
    800020ac:	00073207          	fld	ft4,0(a4)
    800020b0:	0087b187          	fld	ft3,8(a5)
    800020b4:	0107b087          	fld	ft1,16(a5)
    800020b8:	2f88                	fld	fa0,24(a5)
    800020ba:	00053107          	fld	ft2,0(a0)
    800020be:	0005b007          	fld	ft0,0(a1)
    800020c2:	220c                	fld	fa1,0(a2)
    800020c4:	02078793          	addi	a5,a5,32
    800020c8:	7a42f7c3          	fmadd.d	fa5,ft5,ft4,fa5
    800020cc:	7221f743          	fmadd.d	fa4,ft3,ft2,fa4
    800020d0:	6200f643          	fmadd.d	fa2,ft1,ft0,fa2
    800020d4:	6ab576c3          	fmadd.d	fa3,fa0,fa1,fa3
    800020d8:	9776                	add	a4,a4,t4
    800020da:	fcf811e3          	bne	a6,a5,8000209c <mm_naive+0x9c>
    800020de:	02c77753          	fadd.d	fa4,fa4,fa2
    800020e2:	8796                	mv	a5,t0
    800020e4:	02d77753          	fadd.d	fa4,fa4,fa3
    800020e8:	0337f263          	bgeu	a5,s3,8000210c <mm_naive+0x10c>
    800020ec:	02fa8733          	mul	a4,s5,a5
    800020f0:	97a6                	add	a5,a5,s1
    800020f2:	078e                	slli	a5,a5,0x3
    800020f4:	97d2                	add	a5,a5,s4
    800020f6:	977a                	add	a4,a4,t5
    800020f8:	070e                	slli	a4,a4,0x3
    800020fa:	971e                	add	a4,a4,t2
    800020fc:	2390                	fld	fa2,0(a5)
    800020fe:	2314                	fld	fa3,0(a4)
    80002100:	07a1                	addi	a5,a5,8
    80002102:	9736                	add	a4,a4,a3
    80002104:	7ad677c3          	fmadd.d	fa5,fa2,fa3,fa5
    80002108:	fef89ae3          	bne	a7,a5,800020fc <mm_naive+0xfc>
    8000210c:	02e7f7d3          	fadd.d	fa5,fa5,fa4
    80002110:	0f05                	addi	t5,t5,1
    80002112:	0fa1                	addi	t6,t6,8
    80002114:	feffbc27          	fsd	fa5,-8(t6)
    80002118:	f7e914e3          	bne	s2,t5,80002080 <mm_naive+0x80>
    8000211c:	77c6                	ld	a5,112(sp)
    8000211e:	0b05                	addi	s6,s6,1
    80002120:	94e2                	add	s1,s1,s8
    80002122:	98ee                	add	a7,a7,s11
    80002124:	9bbe                	add	s7,s7,a5
    80002126:	f36c9ee3          	bne	s9,s6,80002062 <mm_naive+0x62>
    8000212a:	7426                	ld	s0,104(sp)
    8000212c:	7486                	ld	s1,96(sp)
    8000212e:	6966                	ld	s2,88(sp)
    80002130:	69c6                	ld	s3,80(sp)
    80002132:	6a26                	ld	s4,72(sp)
    80002134:	6a86                	ld	s5,64(sp)
    80002136:	7b62                	ld	s6,56(sp)
    80002138:	7bc2                	ld	s7,48(sp)
    8000213a:	7c22                	ld	s8,40(sp)
    8000213c:	7c82                	ld	s9,32(sp)
    8000213e:	6d62                	ld	s10,24(sp)
    80002140:	6dc2                	ld	s11,16(sp)
    80002142:	6165                	addi	sp,sp,112
    80002144:	8082                	ret
    80002146:	f2000753          	fmv.d.x	fa4,zero
    8000214a:	4781                	li	a5,0
    8000214c:	bf71                	j	800020e8 <mm_naive+0xe8>
    8000214e:	8082                	ret

0000000080002150 <mm_cb>:
    80002150:	d8010113          	addi	sp,sp,-640
    80002154:	26813823          	sd	s0,624(sp)
    80002158:	26913423          	sd	s1,616(sp)
    8000215c:	0500                	addi	s0,sp,640
    8000215e:	26113c23          	sd	ra,632(sp)
    80002162:	27213023          	sd	s2,608(sp)
    80002166:	25313c23          	sd	s3,600(sp)
    8000216a:	25413823          	sd	s4,592(sp)
    8000216e:	25513423          	sd	s5,584(sp)
    80002172:	25613023          	sd	s6,576(sp)
    80002176:	23713c23          	sd	s7,568(sp)
    8000217a:	23813823          	sd	s8,560(sp)
    8000217e:	23913423          	sd	s9,552(sp)
    80002182:	23a13023          	sd	s10,544(sp)
    80002186:	21b13c23          	sd	s11,536(sp)
    8000218a:	20813427          	fsd	fs0,520(sp)
    8000218e:	20913027          	fsd	fs1,512(sp)
    80002192:	bfca                	fsd	fs2,504(sp)
    80002194:	bbce                	fsd	fs3,496(sp)
    80002196:	b7d2                	fsd	fs4,488(sp)
    80002198:	b3d6                	fsd	fs5,480(sp)
    8000219a:	afda                	fsd	fs6,472(sp)
    8000219c:	abde                	fsd	fs7,464(sp)
    8000219e:	a7e2                	fsd	fs8,456(sp)
    800021a0:	a3e6                	fsd	fs9,448(sp)
    800021a2:	bf6a                	fsd	fs10,440(sp)
    800021a4:	bb6e                	fsd	fs11,432(sp)
    800021a6:	8f32                	mv	t5,a2
    800021a8:	f0c43c23          	sd	a2,-232(s0)
    800021ac:	4665                	li	a2,25
    800021ae:	02c5d4b3          	divu	s1,a1,a2
    800021b2:	4361                	li	t1,24
    800021b4:	f2e43023          	sd	a4,-224(s0)
    800021b8:	8eba                	mv	t4,a4
    800021ba:	e8a43023          	sd	a0,-384(s0)
    800021be:	ecb43c23          	sd	a1,-296(s0)
    800021c2:	e2d43c23          	sd	a3,-456(s0)
    800021c6:	6609                	lui	a2,0x2
    800021c8:	167d                	addi	a2,a2,-1
    800021ca:	75f9                	lui	a1,0xffffe
    800021cc:	026f5733          	divu	a4,t5,t1
    800021d0:	f0943023          	sd	s1,-256(s0)
    800021d4:	e6f43c23          	sd	a5,-392(s0)
    800021d8:	00149793          	slli	a5,s1,0x1
    800021dc:	97a6                	add	a5,a5,s1
    800021de:	078e                	slli	a5,a5,0x3
    800021e0:	eb143c23          	sd	a7,-328(s0)
    800021e4:	009788b3          	add	a7,a5,s1
    800021e8:	f3043423          	sd	a6,-216(s0)
    800021ec:	ef143c23          	sd	a7,-264(s0)
    800021f0:	02655333          	divu	t1,a0,t1
    800021f4:	00171513          	slli	a0,a4,0x1
    800021f8:	00e507b3          	add	a5,a0,a4
    800021fc:	00379493          	slli	s1,a5,0x3
    80002200:	eae43423          	sd	a4,-344(s0)
    80002204:	f0943423          	sd	s1,-248(s0)
    80002208:	00131793          	slli	a5,t1,0x1
    8000220c:	933e                	add	t1,t1,a5
    8000220e:	00331813          	slli	a6,t1,0x3
    80002212:	029807b3          	mul	a5,a6,s1
    80002216:	f1043823          	sd	a6,-240(s0)
    8000221a:	40078793          	addi	a5,a5,1024
    8000221e:	078e                	slli	a5,a5,0x3
    80002220:	40f10133          	sub	sp,sp,a5
    80002224:	081c                	addi	a5,sp,16
    80002226:	97b2                	add	a5,a5,a2
    80002228:	8fed                	and	a5,a5,a1
    8000222a:	02988733          	mul	a4,a7,s1
    8000222e:	e6f43023          	sd	a5,-416(s0)
    80002232:	031807b3          	mul	a5,a6,a7
    80002236:	40070713          	addi	a4,a4,1024
    8000223a:	070e                	slli	a4,a4,0x3
    8000223c:	40e10133          	sub	sp,sp,a4
    80002240:	0818                	addi	a4,sp,16
    80002242:	9732                	add	a4,a4,a2
    80002244:	8f6d                	and	a4,a4,a1
    80002246:	e4e43c23          	sd	a4,-424(s0)
    8000224a:	40078793          	addi	a5,a5,1024
    8000224e:	078e                	slli	a5,a5,0x3
    80002250:	40f10133          	sub	sp,sp,a5
    80002254:	081c                	addi	a5,sp,16
    80002256:	963e                	add	a2,a2,a5
    80002258:	00b677b3          	and	a5,a2,a1
    8000225c:	ecf43823          	sd	a5,-304(s0)
    80002260:	00081463          	bnez	a6,80002268 <mm_cb+0x118>
    80002264:	50e0106f          	j	80003772 <mm_cb+0x1622>
    80002268:	001e9813          	slli	a6,t4,0x1
    8000226c:	87f6                	mv	a5,t4
    8000226e:	9ec2                	add	t4,t4,a6
    80002270:	0e9a                	slli	t4,t4,0x6
    80002272:	8e36                	mv	t3,a3
    80002274:	00379b93          	slli	s7,a5,0x3
    80002278:	4881                	li	a7,0
    8000227a:	42e1                	li	t0,24
    8000227c:	24000393          	li	t2,576
    80002280:	ccad                	beqz	s1,800022fa <mm_cb+0x1aa>
    80002282:	0258d5b3          	divu	a1,a7,t0
    80002286:	ea843783          	ld	a5,-344(s0)
    8000228a:	8f72                	mv	t5,t3
    8000228c:	4301                	li	t1,0
    8000228e:	02f585b3          	mul	a1,a1,a5
    80002292:	0c0f0f13          	addi	t5,t5,192
    80002296:	86fa                	mv	a3,t5
    80002298:	4f81                	li	t6,0
    8000229a:	025357b3          	divu	a5,t1,t0
    8000229e:	97ae                	add	a5,a5,a1
    800022a0:	00379613          	slli	a2,a5,0x3
    800022a4:	963e                	add	a2,a2,a5
    800022a6:	e6043783          	ld	a5,-416(s0)
    800022aa:	0626                	slli	a2,a2,0x9
    800022ac:	963e                	add	a2,a2,a5
    800022ae:	f4068793          	addi	a5,a3,-192
    800022b2:	8732                	mv	a4,a2
    800022b4:	0007b087          	fld	ft1,0(a5)
    800022b8:	0087b007          	fld	ft0,8(a5)
    800022bc:	2b88                	fld	fa0,16(a5)
    800022be:	2f8c                	fld	fa1,24(a5)
    800022c0:	3390                	fld	fa2,32(a5)
    800022c2:	3794                	fld	fa3,40(a5)
    800022c4:	3b98                	fld	fa4,48(a5)
    800022c6:	3f9c                	fld	fa5,56(a5)
    800022c8:	00173027          	fsd	ft1,0(a4)
    800022cc:	00073427          	fsd	ft0,8(a4)
    800022d0:	ab08                	fsd	fa0,16(a4)
    800022d2:	af0c                	fsd	fa1,24(a4)
    800022d4:	b310                	fsd	fa2,32(a4)
    800022d6:	b714                	fsd	fa3,40(a4)
    800022d8:	bb18                	fsd	fa4,48(a4)
    800022da:	bf1c                	fsd	fa5,56(a4)
    800022dc:	04078793          	addi	a5,a5,64
    800022e0:	04070713          	addi	a4,a4,64
    800022e4:	fcf698e3          	bne	a3,a5,800022b4 <mm_cb+0x164>
    800022e8:	0fe1                	addi	t6,t6,24
    800022ea:	0c060613          	addi	a2,a2,192 # 20c0 <buflen.1+0x2040>
    800022ee:	96de                	add	a3,a3,s7
    800022f0:	fa7f9fe3          	bne	t6,t2,800022ae <mm_cb+0x15e>
    800022f4:	0361                	addi	t1,t1,24
    800022f6:	f8936ee3          	bltu	t1,s1,80002292 <mm_cb+0x142>
    800022fa:	f1043783          	ld	a5,-240(s0)
    800022fe:	08e1                	addi	a7,a7,24
    80002300:	9e76                	add	t3,t3,t4
    80002302:	f6f8efe3          	bltu	a7,a5,80002280 <mm_cb+0x130>
    80002306:	f0843783          	ld	a5,-248(s0)
    8000230a:	e399                	bnez	a5,80002310 <mm_cb+0x1c0>
    8000230c:	39f0106f          	j	80003eaa <mm_cb+0x1d5a>
    80002310:	f2843783          	ld	a5,-216(s0)
    80002314:	e7843e83          	ld	t4,-392(s0)
    80002318:	ef843983          	ld	s3,-264(s0)
    8000231c:	00179593          	slli	a1,a5,0x1
    80002320:	00f58f33          	add	t5,a1,a5
    80002324:	6e05                	lui	t3,0x1
    80002326:	0f1a                	slli	t5,t5,0x6
    80002328:	00379d13          	slli	s10,a5,0x3
    8000232c:	4881                	li	a7,0
    8000232e:	4961                	li	s2,24
    80002330:	44e5                	li	s1,25
    80002332:	2c0e0e13          	addi	t3,t3,704 # 12c0 <buflen.1+0x1240>
    80002336:	25800393          	li	t2,600
    8000233a:	08098063          	beqz	s3,800023ba <mm_cb+0x26a>
    8000233e:	0328d833          	divu	a6,a7,s2
    80002342:	f0043783          	ld	a5,-256(s0)
    80002346:	8ff6                	mv	t6,t4
    80002348:	4301                	li	t1,0
    8000234a:	02f80833          	mul	a6,a6,a5
    8000234e:	e5843783          	ld	a5,-424(s0)
    80002352:	0c0f8693          	addi	a3,t6,192
    80002356:	4281                	li	t0,0
    80002358:	02935633          	divu	a2,t1,s1
    8000235c:	9642                	add	a2,a2,a6
    8000235e:	03c60633          	mul	a2,a2,t3
    80002362:	963e                	add	a2,a2,a5
    80002364:	f4068793          	addi	a5,a3,-192
    80002368:	8732                	mv	a4,a2
    8000236a:	0007b087          	fld	ft1,0(a5)
    8000236e:	0087b007          	fld	ft0,8(a5)
    80002372:	2b88                	fld	fa0,16(a5)
    80002374:	2f8c                	fld	fa1,24(a5)
    80002376:	3390                	fld	fa2,32(a5)
    80002378:	3794                	fld	fa3,40(a5)
    8000237a:	3b98                	fld	fa4,48(a5)
    8000237c:	3f9c                	fld	fa5,56(a5)
    8000237e:	00173027          	fsd	ft1,0(a4)
    80002382:	00073427          	fsd	ft0,8(a4)
    80002386:	ab08                	fsd	fa0,16(a4)
    80002388:	af0c                	fsd	fa1,24(a4)
    8000238a:	b310                	fsd	fa2,32(a4)
    8000238c:	b714                	fsd	fa3,40(a4)
    8000238e:	bb18                	fsd	fa4,48(a4)
    80002390:	bf1c                	fsd	fa5,56(a4)
    80002392:	04078793          	addi	a5,a5,64
    80002396:	04070713          	addi	a4,a4,64
    8000239a:	fcf698e3          	bne	a3,a5,8000236a <mm_cb+0x21a>
    8000239e:	229c                	fld	fa5,0(a3)
    800023a0:	02e5                	addi	t0,t0,25
    800023a2:	0c860613          	addi	a2,a2,200
    800023a6:	fef63c27          	fsd	fa5,-8(a2)
    800023aa:	96ea                	add	a3,a3,s10
    800023ac:	fa729ce3          	bne	t0,t2,80002364 <mm_cb+0x214>
    800023b0:	0365                	addi	t1,t1,25
    800023b2:	0c8f8f93          	addi	t6,t6,200
    800023b6:	f9336ce3          	bltu	t1,s3,8000234e <mm_cb+0x1fe>
    800023ba:	f0843783          	ld	a5,-248(s0)
    800023be:	08e1                	addi	a7,a7,24
    800023c0:	9efa                	add	t4,t4,t5
    800023c2:	f6f8ece3          	bltu	a7,a5,8000233a <mm_cb+0x1ea>
    800023c6:	f2043783          	ld	a5,-224(s0)
    800023ca:	00179813          	slli	a6,a5,0x1
    800023ce:	00379b93          	slli	s7,a5,0x3
    800023d2:	f1043783          	ld	a5,-240(s0)
    800023d6:	e399                	bnez	a5,800023dc <mm_cb+0x28c>
    800023d8:	3a40106f          	j	8000377c <mm_cb+0x162c>
    800023dc:	601c                	ld	a5,0(s0)
    800023de:	6018                	ld	a4,0(s0)
    800023e0:	eb843f03          	ld	t5,-328(s0)
    800023e4:	0786                	slli	a5,a5,0x1
    800023e6:	e2f43423          	sd	a5,-472(s0)
    800023ea:	97ba                	add	a5,a5,a4
    800023ec:	079a                	slli	a5,a5,0x6
    800023ee:	ef843983          	ld	s3,-264(s0)
    800023f2:	eaf43823          	sd	a5,-336(s0)
    800023f6:	6e85                	lui	t4,0x1
    800023f8:	00371793          	slli	a5,a4,0x3
    800023fc:	eef43823          	sd	a5,-272(s0)
    80002400:	4301                	li	t1,0
    80002402:	4961                	li	s2,24
    80002404:	44e5                	li	s1,25
    80002406:	2c0e8e93          	addi	t4,t4,704 # 12c0 <buflen.1+0x1240>
    8000240a:	25800393          	li	t2,600
    8000240e:	08098163          	beqz	s3,80002490 <mm_cb+0x340>
    80002412:	032358b3          	divu	a7,t1,s2
    80002416:	f0043783          	ld	a5,-256(s0)
    8000241a:	8ffa                	mv	t6,t5
    8000241c:	4e01                	li	t3,0
    8000241e:	02f888b3          	mul	a7,a7,a5
    80002422:	ed043783          	ld	a5,-304(s0)
    80002426:	0c0f8693          	addi	a3,t6,192
    8000242a:	4281                	li	t0,0
    8000242c:	029e5633          	divu	a2,t3,s1
    80002430:	9646                	add	a2,a2,a7
    80002432:	03d60633          	mul	a2,a2,t4
    80002436:	963e                	add	a2,a2,a5
    80002438:	f4068793          	addi	a5,a3,-192
    8000243c:	8732                	mv	a4,a2
    8000243e:	0007b087          	fld	ft1,0(a5)
    80002442:	0087b007          	fld	ft0,8(a5)
    80002446:	2b88                	fld	fa0,16(a5)
    80002448:	2f8c                	fld	fa1,24(a5)
    8000244a:	3390                	fld	fa2,32(a5)
    8000244c:	3794                	fld	fa3,40(a5)
    8000244e:	3b98                	fld	fa4,48(a5)
    80002450:	3f9c                	fld	fa5,56(a5)
    80002452:	00173027          	fsd	ft1,0(a4)
    80002456:	00073427          	fsd	ft0,8(a4)
    8000245a:	ab08                	fsd	fa0,16(a4)
    8000245c:	af0c                	fsd	fa1,24(a4)
    8000245e:	b310                	fsd	fa2,32(a4)
    80002460:	b714                	fsd	fa3,40(a4)
    80002462:	bb18                	fsd	fa4,48(a4)
    80002464:	bf1c                	fsd	fa5,56(a4)
    80002466:	04078793          	addi	a5,a5,64
    8000246a:	04070713          	addi	a4,a4,64
    8000246e:	fcf698e3          	bne	a3,a5,8000243e <mm_cb+0x2ee>
    80002472:	229c                	fld	fa5,0(a3)
    80002474:	ef043783          	ld	a5,-272(s0)
    80002478:	02e5                	addi	t0,t0,25
    8000247a:	a27c                	fsd	fa5,192(a2)
    8000247c:	0c860613          	addi	a2,a2,200
    80002480:	96be                	add	a3,a3,a5
    80002482:	fa729be3          	bne	t0,t2,80002438 <mm_cb+0x2e8>
    80002486:	0e65                	addi	t3,t3,25
    80002488:	0c8f8f93          	addi	t6,t6,200
    8000248c:	f93e6be3          	bltu	t3,s3,80002422 <mm_cb+0x2d2>
    80002490:	eb043783          	ld	a5,-336(s0)
    80002494:	0361                	addi	t1,t1,24
    80002496:	9f3e                	add	t5,t5,a5
    80002498:	f1043783          	ld	a5,-240(s0)
    8000249c:	f6f369e3          	bltu	t1,a5,8000240e <mm_cb+0x2be>
    800024a0:	f1843703          	ld	a4,-232(s0)
    800024a4:	f2843483          	ld	s1,-216(s0)
    800024a8:	ea843303          	ld	t1,-344(s0)
    800024ac:	f2043e03          	ld	t3,-224(s0)
    800024b0:	47e1                	li	a5,24
    800024b2:	02f778b3          	remu	a7,a4,a5
    800024b6:	00249713          	slli	a4,s1,0x2
    800024ba:	9726                	add	a4,a4,s1
    800024bc:	00231793          	slli	a5,t1,0x2
    800024c0:	9872                	add	a6,a6,t3
    800024c2:	00371c13          	slli	s8,a4,0x3
    800024c6:	40f307b3          	sub	a5,t1,a5
    800024ca:	00681713          	slli	a4,a6,0x6
    800024ce:	95a6                	add	a1,a1,s1
    800024d0:	079a                	slli	a5,a5,0x6
    800024d2:	e6e43823          	sd	a4,-400(s0)
    800024d6:	e3843703          	ld	a4,-456(s0)
    800024da:	951a                	add	a0,a0,t1
    800024dc:	dcf43423          	sd	a5,-568(s0)
    800024e0:	00659793          	slli	a5,a1,0x6
    800024e4:	00651613          	slli	a2,a0,0x6
    800024e8:	dcf43023          	sd	a5,-576(s0)
    800024ec:	601c                	ld	a5,0(s0)
    800024ee:	9732                	add	a4,a4,a2
    800024f0:	eee43423          	sd	a4,-280(s0)
    800024f4:	005e1713          	slli	a4,t3,0x5
    800024f8:	0796                	slli	a5,a5,0x5
    800024fa:	e4e43023          	sd	a4,-448(s0)
    800024fe:	ed843703          	ld	a4,-296(s0)
    80002502:	dcf43c23          	sd	a5,-552(s0)
    80002506:	77fd                	lui	a5,0xfffff
    80002508:	d4078a93          	addi	s5,a5,-704 # ffffffffffffed40 <__global_pointer$+0xffffffff7fff9588>
    8000250c:	47e5                	li	a5,25
    8000250e:	00449a13          	slli	s4,s1,0x4
    80002512:	00549c93          	slli	s9,s1,0x5
    80002516:	8526                	mv	a0,s1
    80002518:	4695                	li	a3,5
    8000251a:	00459b13          	slli	s6,a1,0x4
    8000251e:	00359393          	slli	t2,a1,0x3
    80002522:	e8043c23          	sd	zero,-360(s0)
    80002526:	02f774b3          	remu	s1,a4,a5
    8000252a:	00389793          	slli	a5,a7,0x3
    8000252e:	def43823          	sd	a5,-528(s0)
    80002532:	4799                	li	a5,6
    80002534:	e5143823          	sd	a7,-432(s0)
    80002538:	02f8d7b3          	divu	a5,a7,a5
    8000253c:	e0943423          	sd	s1,-504(s0)
    80002540:	02d4d633          	divu	a2,s1,a3
    80002544:	00179713          	slli	a4,a5,0x1
    80002548:	973e                	add	a4,a4,a5
    8000254a:	0712                	slli	a4,a4,0x4
    8000254c:	dce43823          	sd	a4,-560(s0)
    80002550:	f0843703          	ld	a4,-248(s0)
    80002554:	02a70733          	mul	a4,a4,a0
    80002558:	00261593          	slli	a1,a2,0x2
    8000255c:	962e                	add	a2,a2,a1
    8000255e:	f0043583          	ld	a1,-256(s0)
    80002562:	ecc43023          	sd	a2,-320(s0)
    80002566:	060e                	slli	a2,a2,0x3
    80002568:	e2c43823          	sd	a2,-464(s0)
    8000256c:	0c800613          	li	a2,200
    80002570:	02c58633          	mul	a2,a1,a2
    80002574:	e7843583          	ld	a1,-392(s0)
    80002578:	070e                	slli	a4,a4,0x3
    8000257a:	972e                	add	a4,a4,a1
    8000257c:	e4e43423          	sd	a4,-440(s0)
    80002580:	02d4f733          	remu	a4,s1,a3
    80002584:	02fb07b3          	mul	a5,s6,a5
    80002588:	dee43423          	sd	a4,-536(s0)
    8000258c:	eb843703          	ld	a4,-328(s0)
    80002590:	9732                	add	a4,a4,a2
    80002592:	eee43023          	sd	a4,-288(s0)
    80002596:	00c58733          	add	a4,a1,a2
    8000259a:	dee43023          	sd	a4,-544(s0)
    8000259e:	def43c23          	sd	a5,-520(s0)
    800025a2:	87ea                	mv	a5,s10
    800025a4:	8d5e                	mv	s10,s7
    800025a6:	8be6                	mv	s7,s9
    800025a8:	8cd2                	mv	s9,s4
    800025aa:	8a5a                	mv	s4,s6
    800025ac:	8b62                	mv	s6,s8
    800025ae:	8c1e                	mv	s8,t2
    800025b0:	83be                	mv	t2,a5
    800025b2:	ef843783          	ld	a5,-264(s0)
    800025b6:	e399                	bnez	a5,800025bc <mm_cb+0x46c>
    800025b8:	0520106f          	j	8000360a <mm_cb+0x14ba>
    800025bc:	e9843703          	ld	a4,-360(s0)
    800025c0:	47e1                	li	a5,24
    800025c2:	ee843683          	ld	a3,-280(s0)
    800025c6:	02f757b3          	divu	a5,a4,a5
    800025ca:	e7043703          	ld	a4,-400(s0)
    800025ce:	ec043423          	sd	zero,-312(s0)
    800025d2:	e3943023          	sd	s9,-480(s0)
    800025d6:	9736                	add	a4,a4,a3
    800025d8:	e6e43423          	sd	a4,-408(s0)
    800025dc:	e4843703          	ld	a4,-440(s0)
    800025e0:	899e                	mv	s3,t2
    800025e2:	e8e43823          	sd	a4,-368(s0)
    800025e6:	ea843703          	ld	a4,-344(s0)
    800025ea:	02e78733          	mul	a4,a5,a4
    800025ee:	e0e43c23          	sd	a4,-488(s0)
    800025f2:	f0043703          	ld	a4,-256(s0)
    800025f6:	02e787b3          	mul	a5,a5,a4
    800025fa:	e8f43423          	sd	a5,-376(s0)
    800025fe:	f0843783          	ld	a5,-248(s0)
    80002602:	46078563          	beqz	a5,80002a6c <mm_cb+0x91c>
    80002606:	ec843783          	ld	a5,-312(s0)
    8000260a:	4765                	li	a4,25
    8000260c:	ea043023          	sd	zero,-352(s0)
    80002610:	02e7d7b3          	divu	a5,a5,a4
    80002614:	e8843703          	ld	a4,-376(s0)
    80002618:	db743823          	sd	s7,-592(s0)
    8000261c:	db643423          	sd	s6,-600(s0)
    80002620:	db443023          	sd	s4,-608(s0)
    80002624:	d9343c23          	sd	s3,-616(s0)
    80002628:	e0f43823          	sd	a5,-496(s0)
    8000262c:	97ba                	add	a5,a5,a4
    8000262e:	6705                	lui	a4,0x1
    80002630:	2c070693          	addi	a3,a4,704 # 12c0 <buflen.1+0x1240>
    80002634:	02d787b3          	mul	a5,a5,a3
    80002638:	ed043683          	ld	a3,-304(s0)
    8000263c:	2c070713          	addi	a4,a4,704
    80002640:	97b6                	add	a5,a5,a3
    80002642:	973e                	add	a4,a4,a5
    80002644:	0c878793          	addi	a5,a5,200
    80002648:	e0e43023          	sd	a4,-512(s0)
    8000264c:	daf43c23          	sd	a5,-584(s0)
    80002650:	ea043703          	ld	a4,-352(s0)
    80002654:	47e1                	li	a5,24
    80002656:	db843b83          	ld	s7,-584(s0)
    8000265a:	02f757b3          	divu	a5,a4,a5
    8000265e:	f0043703          	ld	a4,-256(s0)
    80002662:	4b01                	li	s6,0
    80002664:	02e78933          	mul	s2,a5,a4
    80002668:	e1843703          	ld	a4,-488(s0)
    8000266c:	97ba                	add	a5,a5,a4
    8000266e:	00379713          	slli	a4,a5,0x3
    80002672:	97ba                	add	a5,a5,a4
    80002674:	e6043703          	ld	a4,-416(s0)
    80002678:	07a6                	slli	a5,a5,0x9
    8000267a:	00f709b3          	add	s3,a4,a5
    8000267e:	e1043783          	ld	a5,-496(s0)
    80002682:	8dce                	mv	s11,s3
    80002684:	993e                	add	s2,s2,a5
    80002686:	6785                	lui	a5,0x1
    80002688:	2c078713          	addi	a4,a5,704 # 12c0 <buflen.1+0x1240>
    8000268c:	02e90933          	mul	s2,s2,a4
    80002690:	e5843703          	ld	a4,-424(s0)
    80002694:	993a                	add	s2,s2,a4
    80002696:	2c078713          	addi	a4,a5,704
    8000269a:	38878793          	addi	a5,a5,904
    8000269e:	0c890c93          	addi	s9,s2,200
    800026a2:	00e904b3          	add	s1,s2,a4
    800026a6:	00f90a33          	add	s4,s2,a5
    800026aa:	f38b8793          	addi	a5,s7,-200
    800026ae:	86a6                	mv	a3,s1
    800026b0:	0007ba87          	fld	fs5,0(a5)
    800026b4:	0087ba07          	fld	fs4,8(a5)
    800026b8:	0107b987          	fld	fs3,16(a5)
    800026bc:	0187b907          	fld	fs2,24(a5)
    800026c0:	3394                	fld	fa3,32(a5)
    800026c2:	27e4                	fld	fs1,200(a5)
    800026c4:	2be0                	fld	fs0,208(a5)
    800026c6:	0d87bc87          	fld	fs9,216(a5)
    800026ca:	0e07bf07          	fld	ft10,224(a5)
    800026ce:	37f8                	fld	fa4,232(a5)
    800026d0:	1907be87          	fld	ft9,400(a5)
    800026d4:	1987be07          	fld	ft8,408(a5)
    800026d8:	1a07b887          	fld	fa7,416(a5)
    800026dc:	1a87b807          	fld	fa6,424(a5)
    800026e0:	1b07b787          	fld	fa5,432(a5)
    800026e4:	2587b107          	fld	ft2,600(a5)
    800026e8:	2607b187          	fld	ft3,608(a5)
    800026ec:	2687b287          	fld	ft5,616(a5)
    800026f0:	2707b207          	fld	ft4,624(a5)
    800026f4:	2787b087          	fld	ft1,632(a5)
    800026f8:	01568733          	add	a4,a3,s5
    800026fc:	866e                	mv	a2,s11
    800026fe:	2208                	fld	fa0,0(a2)
    80002700:	226c                	fld	fa1,192(a2)
    80002702:	18063607          	fld	fa2,384(a2)
    80002706:	24063007          	fld	ft0,576(a2)
    8000270a:	00073b87          	fld	fs7,0(a4)
    8000270e:	00873b07          	fld	fs6,8(a4)
    80002712:	01073387          	fld	ft7,16(a4)
    80002716:	01873307          	fld	ft6,24(a4)
    8000271a:	02073f87          	fld	ft11,32(a4)
    8000271e:	ab757ac3          	fmadd.d	fs5,fa0,fs7,fs5
    80002722:	a3657a43          	fmadd.d	fs4,fa0,fs6,fs4
    80002726:	9a7579c3          	fmadd.d	fs3,fa0,ft7,fs3
    8000272a:	92657943          	fmadd.d	fs2,fa0,ft6,fs2
    8000272e:	6bf576c3          	fmadd.d	fa3,fa0,ft11,fa3
    80002732:	4b75f4c3          	fmadd.d	fs1,fa1,fs7,fs1
    80002736:	4365f443          	fmadd.d	fs0,fa1,fs6,fs0
    8000273a:	ca75fcc3          	fmadd.d	fs9,fa1,ft7,fs9
    8000273e:	f265ff43          	fmadd.d	ft10,fa1,ft6,ft10
    80002742:	73f5f743          	fmadd.d	fa4,fa1,ft11,fa4
    80002746:	eb767ec3          	fmadd.d	ft9,fa2,fs7,ft9
    8000274a:	e3667e43          	fmadd.d	ft8,fa2,fs6,ft8
    8000274e:	8a7678c3          	fmadd.d	fa7,fa2,ft7,fa7
    80002752:	82667843          	fmadd.d	fa6,fa2,ft6,fa6
    80002756:	7bf677c3          	fmadd.d	fa5,fa2,ft11,fa5
    8000275a:	13707143          	fmadd.d	ft2,ft0,fs7,ft2
    8000275e:	1b6071c3          	fmadd.d	ft3,ft0,fs6,ft3
    80002762:	2a7072c3          	fmadd.d	ft5,ft0,ft7,ft5
    80002766:	22607243          	fmadd.d	ft4,ft0,ft6,ft4
    8000276a:	0bf07043          	fmadd.d	ft0,ft0,ft11,ft1
    8000276e:	2608                	fld	fa0,8(a2)
    80002770:	266c                	fld	fa1,200(a2)
    80002772:	18863607          	fld	fa2,392(a2)
    80002776:	24863087          	fld	ft1,584(a2)
    8000277a:	0c873f87          	fld	ft11,200(a4)
    8000277e:	0d073b87          	fld	fs7,208(a4)
    80002782:	0d873b07          	fld	fs6,216(a4)
    80002786:	0e073387          	fld	ft7,224(a4)
    8000278a:	0e873307          	fld	ft6,232(a4)
    8000278e:	abf57ac3          	fmadd.d	fs5,fa0,ft11,fs5
    80002792:	a3757a43          	fmadd.d	fs4,fa0,fs7,fs4
    80002796:	6a6576c3          	fmadd.d	fa3,fa0,ft6,fa3
    8000279a:	7265f743          	fmadd.d	fa4,fa1,ft6,fa4
    8000279e:	7a6677c3          	fmadd.d	fa5,fa2,ft6,fa5
    800027a2:	9b6579c3          	fmadd.d	fs3,fa0,fs6,fs3
    800027a6:	92757943          	fmadd.d	fs2,fa0,ft7,fs2
    800027aa:	4bf5f4c3          	fmadd.d	fs1,fa1,ft11,fs1
    800027ae:	4375f443          	fmadd.d	fs0,fa1,fs7,fs0
    800027b2:	cb65fcc3          	fmadd.d	fs9,fa1,fs6,fs9
    800027b6:	f275ff43          	fmadd.d	ft10,fa1,ft7,ft10
    800027ba:	ebf67ec3          	fmadd.d	ft9,fa2,ft11,ft9
    800027be:	e3767e43          	fmadd.d	ft8,fa2,fs7,ft8
    800027c2:	8b6678c3          	fmadd.d	fa7,fa2,fs6,fa7
    800027c6:	82767843          	fmadd.d	fa6,fa2,ft7,fa6
    800027ca:	13f0f143          	fmadd.d	ft2,ft1,ft11,ft2
    800027ce:	1b70f1c3          	fmadd.d	ft3,ft1,fs7,ft3
    800027d2:	2b60f2c3          	fmadd.d	ft5,ft1,fs6,ft5
    800027d6:	2270f243          	fmadd.d	ft4,ft1,ft7,ft4
    800027da:	0260f043          	fmadd.d	ft0,ft1,ft6,ft0
    800027de:	2a08                	fld	fa0,16(a2)
    800027e0:	25063087          	fld	ft1,592(a2)
    800027e4:	2a6c                	fld	fa1,208(a2)
    800027e6:	19063607          	fld	fa2,400(a2)
    800027ea:	19073f87          	fld	ft11,400(a4)
    800027ee:	19873b87          	fld	fs7,408(a4)
    800027f2:	1a073b07          	fld	fs6,416(a4)
    800027f6:	1a873387          	fld	ft7,424(a4)
    800027fa:	1b073307          	fld	ft6,432(a4)
    800027fe:	13f0f143          	fmadd.d	ft2,ft1,ft11,ft2
    80002802:	1b70f1c3          	fmadd.d	ft3,ft1,fs7,ft3
    80002806:	2b60f2c3          	fmadd.d	ft5,ft1,fs6,ft5
    8000280a:	2270f243          	fmadd.d	ft4,ft1,ft7,ft4
    8000280e:	abf57ac3          	fmadd.d	fs5,fa0,ft11,fs5
    80002812:	a3757a43          	fmadd.d	fs4,fa0,fs7,fs4
    80002816:	9b6579c3          	fmadd.d	fs3,fa0,fs6,fs3
    8000281a:	92757943          	fmadd.d	fs2,fa0,ft7,fs2
    8000281e:	4bf5f4c3          	fmadd.d	fs1,fa1,ft11,fs1
    80002822:	6a657543          	fmadd.d	fa0,fa0,ft6,fa3
    80002826:	4375f443          	fmadd.d	fs0,fa1,fs7,fs0
    8000282a:	cb65fcc3          	fmadd.d	fs9,fa1,fs6,fs9
    8000282e:	f275ff43          	fmadd.d	ft10,fa1,ft7,ft10
    80002832:	ebf67ec3          	fmadd.d	ft9,fa2,ft11,ft9
    80002836:	7265f5c3          	fmadd.d	fa1,fa1,ft6,fa4
    8000283a:	e3767e43          	fmadd.d	ft8,fa2,fs7,ft8
    8000283e:	8b6678c3          	fmadd.d	fa7,fa2,fs6,fa7
    80002842:	82767843          	fmadd.d	fa6,fa2,ft7,fa6
    80002846:	0260f043          	fmadd.d	ft0,ft1,ft6,ft0
    8000284a:	7a667643          	fmadd.d	fa2,fa2,ft6,fa5
    8000284e:	2e14                	fld	fa3,24(a2)
    80002850:	25873f87          	fld	ft11,600(a4)
    80002854:	26073c07          	fld	fs8,608(a4)
    80002858:	26873b87          	fld	fs7,616(a4)
    8000285c:	27073307          	fld	ft6,624(a4)
    80002860:	27873d07          	fld	fs10,632(a4)
    80002864:	2e78                	fld	fa4,216(a2)
    80002866:	19863787          	fld	fa5,408(a2)
    8000286a:	25863087          	fld	ft1,600(a2)
    8000286e:	abf6fac3          	fmadd.d	fs5,fa3,ft11,fs5
    80002872:	a386fa43          	fmadd.d	fs4,fa3,fs8,fs4
    80002876:	9b76f9c3          	fmadd.d	fs3,fa3,fs7,fs3
    8000287a:	9266f943          	fmadd.d	fs2,fa3,ft6,fs2
    8000287e:	53a6f543          	fmadd.d	fa0,fa3,fs10,fa0
    80002882:	4bf774c3          	fmadd.d	fs1,fa4,ft11,fs1
    80002886:	43877443          	fmadd.d	fs0,fa4,fs8,fs0
    8000288a:	cb777cc3          	fmadd.d	fs9,fa4,fs7,fs9
    8000288e:	f2677f43          	fmadd.d	ft10,fa4,ft6,ft10
    80002892:	5ba775c3          	fmadd.d	fa1,fa4,fs10,fa1
    80002896:	ebf7fec3          	fmadd.d	ft9,fa5,ft11,ft9
    8000289a:	e387fe43          	fmadd.d	ft8,fa5,fs8,ft8
    8000289e:	8b77f8c3          	fmadd.d	fa7,fa5,fs7,fa7
    800028a2:	8267f843          	fmadd.d	fa6,fa5,ft6,fa6
    800028a6:	63a7f643          	fmadd.d	fa2,fa5,fs10,fa2
    800028aa:	2260f343          	fmadd.d	ft6,ft1,ft6,ft4
    800028ae:	13f0ffc3          	fmadd.d	ft11,ft1,ft11,ft2
    800028b2:	1b80fc43          	fmadd.d	fs8,ft1,fs8,ft3
    800028b6:	2b70fbc3          	fmadd.d	fs7,ft1,fs7,ft5
    800028ba:	03a0f043          	fmadd.d	ft0,ft1,fs10,ft0
    800028be:	3214                	fld	fa3,32(a2)
    800028c0:	3278                	fld	fa4,224(a2)
    800028c2:	1a063787          	fld	fa5,416(a2)
    800028c6:	26063087          	fld	ft1,608(a2)
    800028ca:	32073107          	fld	ft2,800(a4)
    800028ce:	32873187          	fld	ft3,808(a4)
    800028d2:	33073287          	fld	ft5,816(a4)
    800028d6:	33873b07          	fld	fs6,824(a4)
    800028da:	34073d07          	fld	fs10,832(a4)
    800028de:	aa26fac3          	fmadd.d	fs5,fa3,ft2,fs5
    800028e2:	a236fa43          	fmadd.d	fs4,fa3,ft3,fs4
    800028e6:	9a56f9c3          	fmadd.d	fs3,fa3,ft5,fs3
    800028ea:	9366f943          	fmadd.d	fs2,fa3,fs6,fs2
    800028ee:	4a2774c3          	fmadd.d	fs1,fa4,ft2,fs1
    800028f2:	42377443          	fmadd.d	fs0,fa4,ft3,fs0
    800028f6:	ca577cc3          	fmadd.d	fs9,fa4,ft5,fs9
    800028fa:	f3677f43          	fmadd.d	ft10,fa4,fs6,ft10
    800028fe:	ea27fec3          	fmadd.d	ft9,fa5,ft2,ft9
    80002902:	e237fe43          	fmadd.d	ft8,fa5,ft3,ft8
    80002906:	8a57f8c3          	fmadd.d	fa7,fa5,ft5,fa7
    8000290a:	8367f843          	fmadd.d	fa6,fa5,fs6,fa6
    8000290e:	fa20ffc3          	fmadd.d	ft11,ft1,ft2,ft11
    80002912:	c230fc43          	fmadd.d	fs8,ft1,ft3,fs8
    80002916:	ba50fbc3          	fmadd.d	fs7,ft1,ft5,fs7
    8000291a:	3360fb43          	fmadd.d	fs6,ft1,fs6,ft6
    8000291e:	53a6f543          	fmadd.d	fa0,fa3,fs10,fa0
    80002922:	5ba775c3          	fmadd.d	fa1,fa4,fs10,fa1
    80002926:	63a7f643          	fmadd.d	fa2,fa5,fs10,fa2
    8000292a:	03a0f0c3          	fmadd.d	ft1,ft1,fs10,ft0
    8000292e:	3614                	fld	fa3,40(a2)
    80002930:	3678                	fld	fa4,232(a2)
    80002932:	1a863787          	fld	fa5,424(a2)
    80002936:	26863307          	fld	ft6,616(a2)
    8000293a:	3e873107          	fld	ft2,1000(a4)
    8000293e:	3f073187          	fld	ft3,1008(a4)
    80002942:	3f873287          	fld	ft5,1016(a4)
    80002946:	40073207          	fld	ft4,1024(a4)
    8000294a:	40873387          	fld	ft7,1032(a4)
    8000294e:	4b070713          	addi	a4,a4,1200
    80002952:	aa26fac3          	fmadd.d	fs5,fa3,ft2,fs5
    80002956:	a236fa43          	fmadd.d	fs4,fa3,ft3,fs4
    8000295a:	9a56f9c3          	fmadd.d	fs3,fa3,ft5,fs3
    8000295e:	9246f943          	fmadd.d	fs2,fa3,ft4,fs2
    80002962:	4a2774c3          	fmadd.d	fs1,fa4,ft2,fs1
    80002966:	42377443          	fmadd.d	fs0,fa4,ft3,fs0
    8000296a:	ca577cc3          	fmadd.d	fs9,fa4,ft5,fs9
    8000296e:	f2477f43          	fmadd.d	ft10,fa4,ft4,ft10
    80002972:	ea27fec3          	fmadd.d	ft9,fa5,ft2,ft9
    80002976:	e237fe43          	fmadd.d	ft8,fa5,ft3,ft8
    8000297a:	8a57f8c3          	fmadd.d	fa7,fa5,ft5,fa7
    8000297e:	8247f843          	fmadd.d	fa6,fa5,ft4,fa6
    80002982:	5276f6c3          	fmadd.d	fa3,fa3,ft7,fa0
    80002986:	5a777743          	fmadd.d	fa4,fa4,ft7,fa1
    8000298a:	6277f7c3          	fmadd.d	fa5,fa5,ft7,fa2
    8000298e:	fa237143          	fmadd.d	ft2,ft6,ft2,ft11
    80002992:	c23371c3          	fmadd.d	ft3,ft6,ft3,fs8
    80002996:	ba5372c3          	fmadd.d	ft5,ft6,ft5,fs7
    8000299a:	b2437243          	fmadd.d	ft4,ft6,ft4,fs6
    8000299e:	0a7370c3          	fmadd.d	ft1,ft6,ft7,ft1
    800029a2:	03060613          	addi	a2,a2,48
    800029a6:	d4d71ce3          	bne	a4,a3,800026fe <mm_cb+0x5ae>
    800029aa:	0157b027          	fsd	fs5,0(a5)
    800029ae:	0147b427          	fsd	fs4,8(a5)
    800029b2:	0137b827          	fsd	fs3,16(a5)
    800029b6:	0127bc27          	fsd	fs2,24(a5)
    800029ba:	b394                	fsd	fa3,32(a5)
    800029bc:	a7e4                	fsd	fs1,200(a5)
    800029be:	abe0                	fsd	fs0,208(a5)
    800029c0:	0d97bc27          	fsd	fs9,216(a5)
    800029c4:	0fe7b027          	fsd	ft10,224(a5)
    800029c8:	b7f8                	fsd	fa4,232(a5)
    800029ca:	19d7b827          	fsd	ft9,400(a5)
    800029ce:	19c7bc27          	fsd	ft8,408(a5)
    800029d2:	1b17b027          	fsd	fa7,416(a5)
    800029d6:	1b07b427          	fsd	fa6,424(a5)
    800029da:	1af7b827          	fsd	fa5,432(a5)
    800029de:	2427bc27          	fsd	ft2,600(a5)
    800029e2:	2637b027          	fsd	ft3,608(a5)
    800029e6:	2657b427          	fsd	ft5,616(a5)
    800029ea:	2647b827          	fsd	ft4,624(a5)
    800029ee:	2617bc27          	fsd	ft1,632(a5)
    800029f2:	02870693          	addi	a3,a4,40
    800029f6:	02878793          	addi	a5,a5,40
    800029fa:	cada1be3          	bne	s4,a3,800026b0 <mm_cb+0x560>
    800029fe:	47e5                	li	a5,25
    80002a00:	88de                	mv	a7,s7
    80002a02:	86ee                	mv	a3,s11
    80002a04:	e03e                	sd	a5,0(sp)
    80002a06:	4865                	li	a6,25
    80002a08:	87e6                	mv	a5,s9
    80002a0a:	4761                	li	a4,24
    80002a0c:	4661                	li	a2,24
    80002a0e:	4581                	li	a1,0
    80002a10:	4511                	li	a0,4
    80002a12:	deeff0ef          	jal	ra,80002000 <mm_naive>
    80002a16:	064b0b13          	addi	s6,s6,100
    80002a1a:	25800793          	li	a5,600
    80002a1e:	300d8d93          	addi	s11,s11,768
    80002a22:	320b8b93          	addi	s7,s7,800
    80002a26:	c8fb12e3          	bne	s6,a5,800026aa <mm_cb+0x55a>
    80002a2a:	ea043483          	ld	s1,-352(s0)
    80002a2e:	e0043883          	ld	a7,-512(s0)
    80002a32:	6685                	lui	a3,0x1
    80002a34:	47e5                	li	a5,25
    80002a36:	20068693          	addi	a3,a3,512 # 1200 <buflen.1+0x1180>
    80002a3a:	e03e                	sd	a5,0(sp)
    80002a3c:	4865                	li	a6,25
    80002a3e:	87ca                	mv	a5,s2
    80002a40:	4761                	li	a4,24
    80002a42:	96ce                	add	a3,a3,s3
    80002a44:	4661                	li	a2,24
    80002a46:	45e5                	li	a1,25
    80002a48:	4501                	li	a0,0
    80002a4a:	04e1                	addi	s1,s1,24
    80002a4c:	ea943023          	sd	s1,-352(s0)
    80002a50:	db0ff0ef          	jal	ra,80002000 <mm_naive>
    80002a54:	f0843783          	ld	a5,-248(s0)
    80002a58:	bef4ece3          	bltu	s1,a5,80002650 <mm_cb+0x500>
    80002a5c:	db043b83          	ld	s7,-592(s0)
    80002a60:	da843b03          	ld	s6,-600(s0)
    80002a64:	da043a03          	ld	s4,-608(s0)
    80002a68:	d9843983          	ld	s3,-616(s0)
    80002a6c:	e9043783          	ld	a5,-368(s0)
    80002a70:	f0843703          	ld	a4,-248(s0)
    80002a74:	0c878f13          	addi	t5,a5,200
    80002a78:	f1843783          	ld	a5,-232(s0)
    80002a7c:	60f76863          	bltu	a4,a5,8000308c <mm_cb+0xf3c>
    80002a80:	ec843783          	ld	a5,-312(s0)
    80002a84:	ef843703          	ld	a4,-264(s0)
    80002a88:	e9e43823          	sd	t5,-368(s0)
    80002a8c:	07e5                	addi	a5,a5,25
    80002a8e:	ecf43423          	sd	a5,-312(s0)
    80002a92:	b6e7e6e3          	bltu	a5,a4,800025fe <mm_cb+0x4ae>
    80002a96:	ed843783          	ld	a5,-296(s0)
    80002a9a:	ef843703          	ld	a4,-264(s0)
    80002a9e:	e2043c83          	ld	s9,-480(s0)
    80002aa2:	83ce                	mv	t2,s3
    80002aa4:	38f770e3          	bgeu	a4,a5,80003624 <mm_cb+0x14d4>
    80002aa8:	f1843783          	ld	a5,-232(s0)
    80002aac:	36078ce3          	beqz	a5,80003624 <mm_cb+0x14d4>
    80002ab0:	ee043703          	ld	a4,-288(s0)
    80002ab4:	eb043783          	ld	a5,-336(s0)
    80002ab8:	de043d83          	ld	s11,-544(s0)
    80002abc:	ea043023          	sd	zero,-352(s0)
    80002ac0:	97ba                	add	a5,a5,a4
    80002ac2:	ecf43423          	sd	a5,-312(s0)
    80002ac6:	ee843703          	ld	a4,-280(s0)
    80002aca:	dc843783          	ld	a5,-568(s0)
    80002ace:	efb43423          	sd	s11,-280(s0)
    80002ad2:	849e                	mv	s1,t2
    80002ad4:	97ba                	add	a5,a5,a4
    80002ad6:	e8f43823          	sd	a5,-368(s0)
    80002ada:	f1843783          	ld	a5,-232(s0)
    80002ade:	ea043703          	ld	a4,-352(s0)
    80002ae2:	40e783b3          	sub	t2,a5,a4
    80002ae6:	47e1                	li	a5,24
    80002ae8:	0077f363          	bgeu	a5,t2,80002aee <mm_cb+0x99e>
    80002aec:	43e1                	li	t2,24
    80002aee:	4799                	li	a5,6
    80002af0:	02f3d7b3          	divu	a5,t2,a5
    80002af4:	ee843683          	ld	a3,-280(s0)
    80002af8:	e3043703          	ld	a4,-464(s0)
    80002afc:	ee043283          	ld	t0,-288(s0)
    80002b00:	00339993          	slli	s3,t2,0x3
    80002b04:	9736                	add	a4,a4,a3
    80002b06:	e0e43c23          	sd	a4,-488(s0)
    80002b0a:	e9043703          	ld	a4,-368(s0)
    80002b0e:	4699                	li	a3,6
    80002b10:	e8d43423          	sd	a3,-376(s0)
    80002b14:	99ba                	add	s3,s3,a4
    80002b16:	8dba                	mv	s11,a4
    80002b18:	00179913          	slli	s2,a5,0x1
    80002b1c:	993e                	add	s2,s2,a5
    80002b1e:	02fa07b3          	mul	a5,s4,a5
    80002b22:	0912                	slli	s2,s2,0x4
    80002b24:	993a                	add	s2,s2,a4
    80002b26:	e2f43023          	sd	a5,-480(s0)
    80002b2a:	ec043783          	ld	a5,-320(s0)
    80002b2e:	4a078763          	beqz	a5,80002fdc <mm_cb+0xe8c>
    80002b32:	ef043783          	ld	a5,-272(s0)
    80002b36:	ee843f03          	ld	t5,-280(s0)
    80002b3a:	e2043083          	ld	ra,-480(s0)
    80002b3e:	00578833          	add	a6,a5,t0
    80002b42:	01078533          	add	a0,a5,a6
    80002b46:	00a78333          	add	t1,a5,a0
    80002b4a:	8896                	mv	a7,t0
    80002b4c:	4f81                	li	t6,0
    80002b4e:	0008be07          	fld	ft8,0(a7)
    80002b52:	0088bf87          	fld	ft11,8(a7)
    80002b56:	0108bf07          	fld	ft10,16(a7)
    80002b5a:	0188be87          	fld	ft9,24(a7)
    80002b5e:	0208b507          	fld	fa0,32(a7)
    80002b62:	00083887          	fld	fa7,0(a6)
    80002b66:	00883807          	fld	fa6,8(a6)
    80002b6a:	01083387          	fld	ft7,16(a6)
    80002b6e:	01883307          	fld	ft6,24(a6)
    80002b72:	02083607          	fld	fa2,32(a6)
    80002b76:	00053107          	fld	ft2,0(a0)
    80002b7a:	00853287          	fld	ft5,8(a0)
    80002b7e:	01053207          	fld	ft4,16(a0)
    80002b82:	01853187          	fld	ft3,24(a0)
    80002b86:	3118                	fld	fa4,32(a0)
    80002b88:	00033587          	fld	fa1,0(t1)
    80002b8c:	00833087          	fld	ft1,8(t1)
    80002b90:	01033007          	fld	ft0,16(t1)
    80002b94:	01833687          	fld	fa3,24(t1)
    80002b98:	02033787          	fld	fa5,32(t1)
    80002b9c:	87fa                	mv	a5,t5
    80002b9e:	352df263          	bgeu	s11,s2,80002ee2 <mm_cb+0xd92>
    80002ba2:	22210dd3          	fmv.d	fs11,ft2
    80002ba6:	221084d3          	fmv.d	fs1,ft1
    80002baa:	22e70153          	fmv.d	ft2,fa4
    80002bae:	22000953          	fmv.d	fs2,ft0
    80002bb2:	22f78ad3          	fmv.d	fs5,fa5
    80002bb6:	01bd0633          	add	a2,s10,s11
    80002bba:	23de8c53          	fmv.d	fs8,ft9
    80002bbe:	23ff8753          	fmv.d	fa4,ft11
    80002bc2:	22b58453          	fmv.d	fs0,fa1
    80002bc6:	223180d3          	fmv.d	ft1,ft3
    80002bca:	23ce0053          	fmv.d	ft0,ft8
    80002bce:	22d689d3          	fmv.d	fs3,fa3
    80002bd2:	23ef07d3          	fmv.d	fa5,ft10
    80002bd6:	00cd06b3          	add	a3,s10,a2
    80002bda:	00dd05b3          	add	a1,s10,a3
    80002bde:	876e                	mv	a4,s11
    80002be0:	00073d07          	fld	fs10,0(a4)
    80002be4:	00063b87          	fld	fs7,0(a2)
    80002be8:	0006bc87          	fld	fs9,0(a3)
    80002bec:	0005bb07          	fld	fs6,0(a1) # ffffffffffffe000 <__global_pointer$+0xffffffff7fff8848>
    80002bf0:	0007ba07          	fld	fs4,0(a5)
    80002bf4:	0087be87          	fld	ft9,8(a5)
    80002bf8:	0107b187          	fld	ft3,16(a5)
    80002bfc:	2f8c                	fld	fa1,24(a5)
    80002bfe:	3394                	fld	fa3,32(a5)
    80002c00:	db4cfdc3          	fmadd.d	fs11,fs9,fs4,fs11
    80002c04:	c2bd7e43          	fmadd.d	ft8,fs10,fa1,fs8
    80002c08:	12dcf143          	fmadd.d	ft2,fs9,fa3,ft2
    80002c0c:	32bbfc43          	fmadd.d	fs8,fs7,fa1,ft6
    80002c10:	034d7043          	fmadd.d	ft0,fs10,fs4,ft0
    80002c14:	2bdcf343          	fmadd.d	ft6,fs9,ft9,ft5
    80002c18:	73dd7743          	fmadd.d	fa4,fs10,ft9,fa4
    80002c1c:	7a3d77c3          	fmadd.d	fa5,fs10,ft3,fa5
    80002c20:	52dd7543          	fmadd.d	fa0,fs10,fa3,fa0
    80002c24:	8b4bf8c3          	fmadd.d	fa7,fs7,fs4,fa7
    80002c28:	83dbf843          	fmadd.d	fa6,fs7,ft9,fa6
    80002c2c:	3a3bf3c3          	fmadd.d	ft7,fs7,ft3,ft7
    80002c30:	62dbf643          	fmadd.d	fa2,fs7,fa3,fa2
    80002c34:	0abcf0c3          	fmadd.d	ft1,fs9,fa1,ft1
    80002c38:	223cfbc3          	fmadd.d	fs7,fs9,ft3,ft4
    80002c3c:	434b7443          	fmadd.d	fs0,fs6,fs4,fs0
    80002c40:	4bdb74c3          	fmadd.d	fs1,fs6,ft9,fs1
    80002c44:	923b7943          	fmadd.d	fs2,fs6,ft3,fs2
    80002c48:	9abb79c3          	fmadd.d	fs3,fs6,fa1,fs3
    80002c4c:	aadb7b43          	fmadd.d	fs6,fs6,fa3,fs5
    80002c50:	00978e33          	add	t3,a5,s1
    80002c54:	00873187          	fld	ft3,8(a4)
    80002c58:	00863207          	fld	ft4,8(a2)
    80002c5c:	268c                	fld	fa1,8(a3)
    80002c5e:	2594                	fld	fa3,8(a1)
    80002c60:	000e3a87          	fld	fs5,0(t3)
    80002c64:	008e3a07          	fld	fs4,8(t3)
    80002c68:	010e3f87          	fld	ft11,16(t3)
    80002c6c:	018e3f07          	fld	ft10,24(t3)
    80002c70:	020e3e87          	fld	ft9,32(t3)
    80002c74:	db55f2c3          	fmadd.d	ft5,fa1,fs5,fs11
    80002c78:	3345f343          	fmadd.d	ft6,fa1,fs4,ft6
    80002c7c:	0351f043          	fmadd.d	ft0,ft3,fs5,ft0
    80002c80:	7341f743          	fmadd.d	fa4,ft3,fs4,fa4
    80002c84:	7bf1f7c3          	fmadd.d	fa5,ft3,ft11,fa5
    80002c88:	e3e1fe43          	fmadd.d	ft8,ft3,ft10,ft8
    80002c8c:	53d1f543          	fmadd.d	fa0,ft3,ft9,fa0
    80002c90:	8b5278c3          	fmadd.d	fa7,ft4,fs5,fa7
    80002c94:	c3e271c3          	fmadd.d	ft3,ft4,ft10,fs8
    80002c98:	83427843          	fmadd.d	fa6,ft4,fs4,fa6
    80002c9c:	3bf273c3          	fmadd.d	ft7,ft4,ft11,ft7
    80002ca0:	63d27643          	fmadd.d	fa2,ft4,ft9,fa2
    80002ca4:	bbf5fbc3          	fmadd.d	fs7,fa1,ft11,fs7
    80002ca8:	0be5f0c3          	fmadd.d	ft1,fa1,ft10,ft1
    80002cac:	4356f443          	fmadd.d	fs0,fa3,fs5,fs0
    80002cb0:	13d5f5c3          	fmadd.d	fa1,fa1,ft9,ft2
    80002cb4:	4b46f4c3          	fmadd.d	fs1,fa3,fs4,fs1
    80002cb8:	93f6f943          	fmadd.d	fs2,fa3,ft11,fs2
    80002cbc:	9be6f9c3          	fmadd.d	fs3,fa3,ft10,fs3
    80002cc0:	b3d6f6c3          	fmadd.d	fa3,fa3,ft9,fs6
    80002cc4:	00fc8e33          	add	t3,s9,a5
    80002cc8:	01073207          	fld	ft4,16(a4)
    80002ccc:	01063b07          	fld	fs6,16(a2)
    80002cd0:	0106b107          	fld	ft2,16(a3)
    80002cd4:	0105be87          	fld	ft9,16(a1)
    80002cd8:	000e3c07          	fld	fs8,0(t3)
    80002cdc:	008e3a87          	fld	fs5,8(t3)
    80002ce0:	010e3a07          	fld	fs4,16(t3)
    80002ce4:	018e3f87          	fld	ft11,24(t3)
    80002ce8:	020e3f07          	fld	ft10,32(t3)
    80002cec:	3b4b73c3          	fmadd.d	ft7,fs6,fs4,ft7
    80002cf0:	03827043          	fmadd.d	ft0,ft4,fs8,ft0
    80002cf4:	5be175c3          	fmadd.d	fa1,ft2,ft10,fa1
    80002cf8:	6beef6c3          	fmadd.d	fa3,ft9,ft10,fa3
    80002cfc:	73527743          	fmadd.d	fa4,ft4,fs5,fa4
    80002d00:	7b4277c3          	fmadd.d	fa5,ft4,fs4,fa5
    80002d04:	e3f27e43          	fmadd.d	ft8,ft4,ft11,ft8
    80002d08:	53e27543          	fmadd.d	fa0,ft4,ft10,fa0
    80002d0c:	8b8b78c3          	fmadd.d	fa7,fs6,fs8,fa7
    80002d10:	1bfb7243          	fmadd.d	ft4,fs6,ft11,ft3
    80002d14:	835b7843          	fmadd.d	fa6,fs6,fs5,fa6
    80002d18:	63eb7643          	fmadd.d	fa2,fs6,ft10,fa2
    80002d1c:	2b8172c3          	fmadd.d	ft5,ft2,fs8,ft5
    80002d20:	33517b43          	fmadd.d	fs6,ft2,fs5,ft6
    80002d24:	bb417bc3          	fmadd.d	fs7,ft2,fs4,fs7
    80002d28:	0bf170c3          	fmadd.d	ft1,ft2,ft11,ft1
    80002d2c:	438ef443          	fmadd.d	fs0,ft9,fs8,fs0
    80002d30:	4b5ef4c3          	fmadd.d	fs1,ft9,fs5,fs1
    80002d34:	934ef943          	fmadd.d	fs2,ft9,fs4,fs2
    80002d38:	9bfef9c3          	fmadd.d	fs3,ft9,ft11,fs3
    80002d3c:	01878e33          	add	t3,a5,s8
    80002d40:	01873307          	fld	ft6,24(a4)
    80002d44:	000e3a07          	fld	fs4,0(t3)
    80002d48:	008e3f87          	fld	ft11,8(t3)
    80002d4c:	010e3f07          	fld	ft10,16(t3)
    80002d50:	018e3e87          	fld	ft9,24(t3)
    80002d54:	020e3187          	fld	ft3,32(t3)
    80002d58:	01863c07          	fld	fs8,24(a2)
    80002d5c:	0186b107          	fld	ft2,24(a3)
    80002d60:	0185ba87          	fld	fs5,24(a1)
    80002d64:	52337543          	fmadd.d	fa0,ft6,ft3,fa0
    80002d68:	03437043          	fmadd.d	ft0,ft6,fs4,ft0
    80002d6c:	434af443          	fmadd.d	fs0,fs5,fs4,fs0
    80002d70:	4bfaf4c3          	fmadd.d	fs1,fs5,ft11,fs1
    80002d74:	93eaf943          	fmadd.d	fs2,fs5,ft10,fs2
    80002d78:	9bdaf9c3          	fmadd.d	fs3,fs5,ft9,fs3
    80002d7c:	73f37743          	fmadd.d	fa4,ft6,ft11,fa4
    80002d80:	6a3afac3          	fmadd.d	fs5,fs5,ft3,fa3
    80002d84:	7be377c3          	fmadd.d	fa5,ft6,ft10,fa5
    80002d88:	e3d37e43          	fmadd.d	ft8,ft6,ft9,ft8
    80002d8c:	8b4c78c3          	fmadd.d	fa7,fs8,fs4,fa7
    80002d90:	3bec7343          	fmadd.d	ft6,fs8,ft10,ft7
    80002d94:	83fc7843          	fmadd.d	fa6,fs8,ft11,fa6
    80002d98:	23dc7243          	fmadd.d	ft4,fs8,ft9,ft4
    80002d9c:	623c7643          	fmadd.d	fa2,fs8,ft3,fa2
    80002da0:	2b4172c3          	fmadd.d	ft5,ft2,fs4,ft5
    80002da4:	b3f17b43          	fmadd.d	fs6,ft2,ft11,fs6
    80002da8:	bbe17bc3          	fmadd.d	fs7,ft2,ft10,fs7
    80002dac:	0bd170c3          	fmadd.d	ft1,ft2,ft9,ft1
    80002db0:	5a317143          	fmadd.d	ft2,ft2,ft3,fa1
    80002db4:	00fb8e33          	add	t3,s7,a5
    80002db8:	3294                	fld	fa3,32(a3)
    80002dba:	0205bd87          	fld	fs11,32(a1)
    80002dbe:	330c                	fld	fa1,32(a4)
    80002dc0:	02063f87          	fld	ft11,32(a2)
    80002dc4:	000e3e87          	fld	ft9,0(t3)
    80002dc8:	008e3f07          	fld	ft10,8(t3)
    80002dcc:	010e3d07          	fld	fs10,16(t3)
    80002dd0:	018e3c87          	fld	fs9,24(t3)
    80002dd4:	020e3187          	fld	ft3,32(t3)
    80002dd8:	2bd6f2c3          	fmadd.d	ft5,fa3,ft9,ft5
    80002ddc:	03d5f043          	fmadd.d	ft0,fa1,ft9,ft0
    80002de0:	73e5f743          	fmadd.d	fa4,fa1,ft10,fa4
    80002de4:	7ba5f7c3          	fmadd.d	fa5,fa1,fs10,fa5
    80002de8:	e395fc43          	fmadd.d	fs8,fa1,fs9,ft8
    80002dec:	33aff343          	fmadd.d	ft6,ft11,fs10,ft6
    80002df0:	5235f5c3          	fmadd.d	fa1,fa1,ft3,fa0
    80002df4:	239ff243          	fmadd.d	ft4,ft11,fs9,ft4
    80002df8:	b3e6fb43          	fmadd.d	fs6,fa3,ft10,fs6
    80002dfc:	bba6fbc3          	fmadd.d	fs7,fa3,fs10,fs7
    80002e00:	0b96f0c3          	fmadd.d	ft1,fa3,fs9,ft1
    80002e04:	1236f143          	fmadd.d	ft2,fa3,ft3,ft2
    80002e08:	93adfd43          	fmadd.d	fs10,fs11,fs10,fs2
    80002e0c:	9b9dfcc3          	fmadd.d	fs9,fs11,fs9,fs3
    80002e10:	8bdff8c3          	fmadd.d	fa7,ft11,ft9,fa7
    80002e14:	83eff843          	fmadd.d	fa6,ft11,ft10,fa6
    80002e18:	43ddfec3          	fmadd.d	ft9,fs11,ft9,fs0
    80002e1c:	4bedff43          	fmadd.d	ft10,fs11,ft10,fs1
    80002e20:	623ff643          	fmadd.d	fa2,ft11,ft3,fa2
    80002e24:	aa3df1c3          	fmadd.d	ft3,fs11,ft3,fs5
    80002e28:	01678e33          	add	t3,a5,s6
    80002e2c:	02863d87          	fld	fs11,40(a2)
    80002e30:	3708                	fld	fa0,40(a4)
    80002e32:	3694                	fld	fa3,40(a3)
    80002e34:	0285ba87          	fld	fs5,40(a1)
    80002e38:	000e3407          	fld	fs0,0(t3)
    80002e3c:	008e3487          	fld	fs1,8(t3)
    80002e40:	010e3907          	fld	fs2,16(t3)
    80002e44:	018e3987          	fld	fs3,24(t3)
    80002e48:	020e3a07          	fld	fs4,32(t3)
    80002e4c:	03070713          	addi	a4,a4,48
    80002e50:	332df3c3          	fmadd.d	ft7,fs11,fs2,ft6
    80002e54:	02857043          	fmadd.d	ft0,fa0,fs0,ft0
    80002e58:	233df343          	fmadd.d	ft6,fs11,fs3,ft4
    80002e5c:	72957743          	fmadd.d	fa4,fa0,fs1,fa4
    80002e60:	7b2577c3          	fmadd.d	fa5,fa0,fs2,fa5
    80002e64:	c3357c43          	fmadd.d	fs8,fa0,fs3,fs8
    80002e68:	8a8df8c3          	fmadd.d	fa7,fs11,fs0,fa7
    80002e6c:	829df843          	fmadd.d	fa6,fs11,fs1,fa6
    80002e70:	634df643          	fmadd.d	fa2,fs11,fs4,fa2
    80002e74:	bb26f243          	fmadd.d	ft4,fa3,fs2,fs7
    80002e78:	2a86fdc3          	fmadd.d	fs11,fa3,fs0,ft5
    80002e7c:	0b36f0c3          	fmadd.d	ft1,fa3,fs3,ft1
    80002e80:	b296f2c3          	fmadd.d	ft5,fa3,fs1,fs6
    80002e84:	ea8af443          	fmadd.d	fs0,fs5,fs0,ft9
    80002e88:	f29af4c3          	fmadd.d	fs1,fs5,fs1,ft10
    80002e8c:	d32af943          	fmadd.d	fs2,fs5,fs2,fs10
    80002e90:	cb3af9c3          	fmadd.d	fs3,fs5,fs3,fs9
    80002e94:	5b457543          	fmadd.d	fa0,fa0,fs4,fa1
    80002e98:	1346f143          	fmadd.d	ft2,fa3,fs4,ft2
    80002e9c:	1b4afac3          	fmadd.d	fs5,fs5,fs4,ft3
    80002ea0:	97d2                	add	a5,a5,s4
    80002ea2:	03060613          	addi	a2,a2,48
    80002ea6:	03068693          	addi	a3,a3,48
    80002eaa:	03058593          	addi	a1,a1,48
    80002eae:	d32769e3          	bltu	a4,s2,80002be0 <mm_cb+0xa90>
    80002eb2:	22000e53          	fmv.d	ft8,ft0
    80002eb6:	22e70fd3          	fmv.d	ft11,fa4
    80002eba:	22f78f53          	fmv.d	ft10,fa5
    80002ebe:	221081d3          	fmv.d	ft3,ft1
    80002ec2:	22210753          	fmv.d	fa4,ft2
    80002ec6:	238c0ed3          	fmv.d	ft9,fs8
    80002eca:	23bd8153          	fmv.d	ft2,fs11
    80002ece:	228405d3          	fmv.d	fa1,fs0
    80002ed2:	229480d3          	fmv.d	ft1,fs1
    80002ed6:	23290053          	fmv.d	ft0,fs2
    80002eda:	233986d3          	fmv.d	fa3,fs3
    80002ede:	235a87d3          	fmv.d	fa5,fs5
    80002ee2:	01e087b3          	add	a5,ra,t5
    80002ee6:	09397563          	bgeu	s2,s3,80002f70 <mm_cb+0xe20>
    80002eea:	874a                	mv	a4,s2
    80002eec:	01a705b3          	add	a1,a4,s10
    80002ef0:	01a58633          	add	a2,a1,s10
    80002ef4:	01a606b3          	add	a3,a2,s10
    80002ef8:	00073987          	fld	fs3,0(a4)
    80002efc:	0007bc07          	fld	fs8,0(a5)
    80002f00:	0087bb87          	fld	fs7,8(a5)
    80002f04:	0107bb07          	fld	fs6,16(a5)
    80002f08:	0187ba87          	fld	fs5,24(a5)
    80002f0c:	0207ba07          	fld	fs4,32(a5)
    80002f10:	0005b907          	fld	fs2,0(a1)
    80002f14:	2204                	fld	fs1,0(a2)
    80002f16:	2280                	fld	fs0,0(a3)
    80002f18:	0721                	addi	a4,a4,8
    80002f1a:	e389fe43          	fmadd.d	ft8,fs3,fs8,ft8
    80002f1e:	fb79ffc3          	fmadd.d	ft11,fs3,fs7,ft11
    80002f22:	f369ff43          	fmadd.d	ft10,fs3,fs6,ft10
    80002f26:	eb59fec3          	fmadd.d	ft9,fs3,fs5,ft9
    80002f2a:	5349f543          	fmadd.d	fa0,fs3,fs4,fa0
    80002f2e:	8b8978c3          	fmadd.d	fa7,fs2,fs8,fa7
    80002f32:	83797843          	fmadd.d	fa6,fs2,fs7,fa6
    80002f36:	3b6973c3          	fmadd.d	ft7,fs2,fs6,ft7
    80002f3a:	33597343          	fmadd.d	ft6,fs2,fs5,ft6
    80002f3e:	63497643          	fmadd.d	fa2,fs2,fs4,fa2
    80002f42:	1384f143          	fmadd.d	ft2,fs1,fs8,ft2
    80002f46:	2b74f2c3          	fmadd.d	ft5,fs1,fs7,ft5
    80002f4a:	2364f243          	fmadd.d	ft4,fs1,fs6,ft4
    80002f4e:	1b54f1c3          	fmadd.d	ft3,fs1,fs5,ft3
    80002f52:	7344f743          	fmadd.d	fa4,fs1,fs4,fa4
    80002f56:	5b8475c3          	fmadd.d	fa1,fs0,fs8,fa1
    80002f5a:	0b7470c3          	fmadd.d	ft1,fs0,fs7,ft1
    80002f5e:	03647043          	fmadd.d	ft0,fs0,fs6,ft0
    80002f62:	6b5476c3          	fmadd.d	fa3,fs0,fs5,fa3
    80002f66:	7b4477c3          	fmadd.d	fa5,fs0,fs4,fa5
    80002f6a:	97a6                	add	a5,a5,s1
    80002f6c:	f93760e3          	bltu	a4,s3,80002eec <mm_cb+0xd9c>
    80002f70:	01c8b027          	fsd	ft8,0(a7)
    80002f74:	01f8b427          	fsd	ft11,8(a7)
    80002f78:	01e8b827          	fsd	ft10,16(a7)
    80002f7c:	01d8bc27          	fsd	ft9,24(a7)
    80002f80:	02a8b027          	fsd	fa0,32(a7)
    80002f84:	01183027          	fsd	fa7,0(a6)
    80002f88:	01083427          	fsd	fa6,8(a6)
    80002f8c:	00783827          	fsd	ft7,16(a6)
    80002f90:	00683c27          	fsd	ft6,24(a6)
    80002f94:	02c83027          	fsd	fa2,32(a6)
    80002f98:	ec043783          	ld	a5,-320(s0)
    80002f9c:	00253027          	fsd	ft2,0(a0)
    80002fa0:	00553427          	fsd	ft5,8(a0)
    80002fa4:	00453827          	fsd	ft4,16(a0)
    80002fa8:	00353c27          	fsd	ft3,24(a0)
    80002fac:	b118                	fsd	fa4,32(a0)
    80002fae:	00b33027          	fsd	fa1,0(t1)
    80002fb2:	00133427          	fsd	ft1,8(t1)
    80002fb6:	00033827          	fsd	ft0,16(t1)
    80002fba:	00d33c27          	fsd	fa3,24(t1)
    80002fbe:	02f33027          	fsd	fa5,32(t1)
    80002fc2:	0f95                	addi	t6,t6,5
    80002fc4:	02888893          	addi	a7,a7,40
    80002fc8:	02880813          	addi	a6,a6,40
    80002fcc:	02850513          	addi	a0,a0,40
    80002fd0:	02830313          	addi	t1,t1,40
    80002fd4:	028f0f13          	addi	t5,t5,40
    80002fd8:	b6ffebe3          	bltu	t6,a5,80002b4e <mm_cb+0x9fe>
    80002fdc:	e3043783          	ld	a5,-464(s0)
    80002fe0:	e8843303          	ld	t1,-376(s0)
    80002fe4:	f2043703          	ld	a4,-224(s0)
    80002fe8:	005788b3          	add	a7,a5,t0
    80002fec:	601c                	ld	a5,0(s0)
    80002fee:	f2843803          	ld	a6,-216(s0)
    80002ff2:	de843583          	ld	a1,-536(s0)
    80002ff6:	e03e                	sd	a5,0(sp)
    80002ff8:	e1843783          	ld	a5,-488(s0)
    80002ffc:	86ee                	mv	a3,s11
    80002ffe:	861e                	mv	a2,t2
    80003000:	137d                	addi	t1,t1,-1
    80003002:	4511                	li	a0,4
    80003004:	e0543023          	sd	t0,-512(s0)
    80003008:	e0743823          	sd	t2,-496(s0)
    8000300c:	e8643423          	sd	t1,-376(s0)
    80003010:	ff1fe0ef          	jal	ra,80002000 <mm_naive>
    80003014:	e4043783          	ld	a5,-448(s0)
    80003018:	dd843703          	ld	a4,-552(s0)
    8000301c:	e0043283          	ld	t0,-512(s0)
    80003020:	9dbe                	add	s11,s11,a5
    80003022:	993e                	add	s2,s2,a5
    80003024:	99be                	add	s3,s3,a5
    80003026:	e8843783          	ld	a5,-376(s0)
    8000302a:	e1043383          	ld	t2,-496(s0)
    8000302e:	92ba                	add	t0,t0,a4
    80003030:	ae079de3          	bnez	a5,80002b2a <mm_cb+0x9da>
    80003034:	e7043703          	ld	a4,-400(s0)
    80003038:	e9043903          	ld	s2,-368(s0)
    8000303c:	ee843d83          	ld	s11,-280(s0)
    80003040:	ea043303          	ld	t1,-352(s0)
    80003044:	012706b3          	add	a3,a4,s2
    80003048:	6018                	ld	a4,0(s0)
    8000304a:	ec843883          	ld	a7,-312(s0)
    8000304e:	f2843803          	ld	a6,-216(s0)
    80003052:	e03a                	sd	a4,0(sp)
    80003054:	e0843583          	ld	a1,-504(s0)
    80003058:	f2043703          	ld	a4,-224(s0)
    8000305c:	87ee                	mv	a5,s11
    8000305e:	01830993          	addi	s3,t1,24
    80003062:	861e                	mv	a2,t2
    80003064:	4501                	li	a0,0
    80003066:	eb343023          	sd	s3,-352(s0)
    8000306a:	f97fe0ef          	jal	ra,80002000 <mm_naive>
    8000306e:	0c090793          	addi	a5,s2,192
    80003072:	e8f43823          	sd	a5,-368(s0)
    80003076:	dc043783          	ld	a5,-576(s0)
    8000307a:	97ee                	add	a5,a5,s11
    8000307c:	eef43423          	sd	a5,-280(s0)
    80003080:	f1843783          	ld	a5,-232(s0)
    80003084:	a4f9ebe3          	bltu	s3,a5,80002ada <mm_cb+0x98a>
    80003088:	83a6                	mv	t2,s1
    8000308a:	a365                	j	80003632 <mm_cb+0x14e2>
    8000308c:	ec843783          	ld	a5,-312(s0)
    80003090:	4765                	li	a4,25
    80003092:	ee843f83          	ld	t6,-280(s0)
    80003096:	02e7de33          	divu	t3,a5,a4
    8000309a:	00379e93          	slli	t4,a5,0x3
    8000309e:	dd043783          	ld	a5,-560(s0)
    800030a2:	4d81                	li	s11,0
    800030a4:	01f784b3          	add	s1,a5,t6
    800030a8:	df043783          	ld	a5,-528(s0)
    800030ac:	01f78933          	add	s2,a5,t6
    800030b0:	e4843783          	ld	a5,-440(s0)
    800030b4:	9ebe                	add	t4,t4,a5
    800030b6:	e8843783          	ld	a5,-376(s0)
    800030ba:	9e3e                	add	t3,t3,a5
    800030bc:	6785                	lui	a5,0x1
    800030be:	2c078793          	addi	a5,a5,704 # 12c0 <buflen.1+0x1240>
    800030c2:	02fe0e33          	mul	t3,t3,a5
    800030c6:	ed043783          	ld	a5,-304(s0)
    800030ca:	9e3e                	add	t3,t3,a5
    800030cc:	0c8e0c93          	addi	s9,t3,200
    800030d0:	83f2                	mv	t2,t3
    800030d2:	8e66                	mv	t3,s9
    800030d4:	e2043c83          	ld	s9,-480(s0)
    800030d8:	87fe                	mv	a5,t6
    800030da:	8ff6                	mv	t6,t4
    800030dc:	8eee                	mv	t4,s11
    800030de:	8dbe                	mv	s11,a5
    800030e0:	df843083          	ld	ra,-520(s0)
    800030e4:	f38e0513          	addi	a0,t3,-200
    800030e8:	837e                	mv	t1,t6
    800030ea:	00053e07          	fld	ft8,0(a0)
    800030ee:	00853f87          	fld	ft11,8(a0)
    800030f2:	01053f07          	fld	ft10,16(a0)
    800030f6:	01853e87          	fld	ft9,24(a0)
    800030fa:	3108                	fld	fa0,32(a0)
    800030fc:	0c853887          	fld	fa7,200(a0)
    80003100:	0d053807          	fld	fa6,208(a0)
    80003104:	0d853387          	fld	ft7,216(a0)
    80003108:	0e053307          	fld	ft6,224(a0)
    8000310c:	3570                	fld	fa2,232(a0)
    8000310e:	19053107          	fld	ft2,400(a0)
    80003112:	19853287          	fld	ft5,408(a0)
    80003116:	1a053207          	fld	ft4,416(a0)
    8000311a:	1a853187          	fld	ft3,424(a0)
    8000311e:	1b053707          	fld	fa4,432(a0)
    80003122:	25853587          	fld	fa1,600(a0)
    80003126:	26053087          	fld	ft1,608(a0)
    8000312a:	26853007          	fld	ft0,616(a0)
    8000312e:	27053687          	fld	fa3,624(a0)
    80003132:	27853787          	fld	fa5,632(a0)
    80003136:	879a                	mv	a5,t1
    80003138:	349dfb63          	bgeu	s11,s1,8000348e <mm_cb+0x133e>
    8000313c:	22b58453          	fmv.d	fs0,fa1
    80003140:	221084d3          	fmv.d	fs1,ft1
    80003144:	225285d3          	fmv.d	fa1,ft5
    80003148:	22000953          	fmv.d	fs2,ft0
    8000314c:	222102d3          	fmv.d	ft5,ft2
    80003150:	22f78ad3          	fmv.d	fs5,fa5
    80003154:	22e70153          	fmv.d	ft2,fa4
    80003158:	01bd0633          	add	a2,s10,s11
    8000315c:	23de8c53          	fmv.d	fs8,ft9
    80003160:	23080dd3          	fmv.d	fs11,fa6
    80003164:	23ff8753          	fmv.d	fa4,ft11
    80003168:	223180d3          	fmv.d	ft1,ft3
    8000316c:	23ce0053          	fmv.d	ft0,ft8
    80003170:	22d689d3          	fmv.d	fs3,fa3
    80003174:	23ef07d3          	fmv.d	fa5,ft10
    80003178:	00cd06b3          	add	a3,s10,a2
    8000317c:	00dd05b3          	add	a1,s10,a3
    80003180:	876e                	mv	a4,s11
    80003182:	00073807          	fld	fa6,0(a4)
    80003186:	00063b87          	fld	fs7,0(a2)
    8000318a:	0006bf07          	fld	ft10,0(a3)
    8000318e:	0005bb07          	fld	fs6,0(a1)
    80003192:	0007bd07          	fld	fs10,0(a5)
    80003196:	0087ba07          	fld	fs4,8(a5)
    8000319a:	0107be87          	fld	ft9,16(a5)
    8000319e:	0187b187          	fld	ft3,24(a5)
    800031a2:	3394                	fld	fa3,32(a5)
    800031a4:	03a87043          	fmadd.d	ft0,fa6,fs10,ft0
    800031a8:	c2387e43          	fmadd.d	ft8,fa6,ft3,fs8
    800031ac:	323bfcc3          	fmadd.d	fs9,fs7,ft3,ft6
    800031b0:	12df7143          	fmadd.d	ft2,ft10,fa3,ft2
    800031b4:	5b4f7343          	fmadd.d	ft6,ft10,fs4,fa1
    800031b8:	73487743          	fmadd.d	fa4,fa6,fs4,fa4
    800031bc:	7bd877c3          	fmadd.d	fa5,fa6,ft9,fa5
    800031c0:	52d87543          	fmadd.d	fa0,fa6,fa3,fa0
    800031c4:	8babf8c3          	fmadd.d	fa7,fs7,fs10,fa7
    800031c8:	db4bf843          	fmadd.d	fa6,fs7,fs4,fs11
    800031cc:	3bdbf3c3          	fmadd.d	ft7,fs7,ft9,ft7
    800031d0:	62dbf643          	fmadd.d	fa2,fs7,fa3,fa2
    800031d4:	2baf72c3          	fmadd.d	ft5,ft10,fs10,ft5
    800031d8:	23df7bc3          	fmadd.d	fs7,ft10,ft9,ft4
    800031dc:	0a3f70c3          	fmadd.d	ft1,ft10,ft3,ft1
    800031e0:	43ab7443          	fmadd.d	fs0,fs6,fs10,fs0
    800031e4:	4b4b74c3          	fmadd.d	fs1,fs6,fs4,fs1
    800031e8:	93db7943          	fmadd.d	fs2,fs6,ft9,fs2
    800031ec:	9a3b79c3          	fmadd.d	fs3,fs6,ft3,fs3
    800031f0:	aadb7b43          	fmadd.d	fs6,fs6,fa3,fs5
    800031f4:	01378833          	add	a6,a5,s3
    800031f8:	00863207          	fld	ft4,8(a2)
    800031fc:	00873187          	fld	ft3,8(a4)
    80003200:	268c                	fld	fa1,8(a3)
    80003202:	2594                	fld	fa3,8(a1)
    80003204:	00083a87          	fld	fs5,0(a6)
    80003208:	00883a07          	fld	fs4,8(a6)
    8000320c:	01083f87          	fld	ft11,16(a6)
    80003210:	01883f07          	fld	ft10,24(a6)
    80003214:	02083e87          	fld	ft9,32(a6)
    80003218:	3345f343          	fmadd.d	ft6,fa1,fs4,ft6
    8000321c:	cbe27cc3          	fmadd.d	fs9,ft4,ft10,fs9
    80003220:	0351f043          	fmadd.d	ft0,ft3,fs5,ft0
    80003224:	7341f743          	fmadd.d	fa4,ft3,fs4,fa4
    80003228:	7bf1f7c3          	fmadd.d	fa5,ft3,ft11,fa5
    8000322c:	e3e1fe43          	fmadd.d	ft8,ft3,ft10,ft8
    80003230:	53d1f543          	fmadd.d	fa0,ft3,ft9,fa0
    80003234:	8b5278c3          	fmadd.d	fa7,ft4,fs5,fa7
    80003238:	83427843          	fmadd.d	fa6,ft4,fs4,fa6
    8000323c:	3bf273c3          	fmadd.d	ft7,ft4,ft11,ft7
    80003240:	63d27643          	fmadd.d	fa2,ft4,ft9,fa2
    80003244:	2b55f2c3          	fmadd.d	ft5,fa1,fs5,ft5
    80003248:	bbf5fbc3          	fmadd.d	fs7,fa1,ft11,fs7
    8000324c:	0be5f0c3          	fmadd.d	ft1,fa1,ft10,ft1
    80003250:	4356f443          	fmadd.d	fs0,fa3,fs5,fs0
    80003254:	13d5f5c3          	fmadd.d	fa1,fa1,ft9,ft2
    80003258:	4b46f4c3          	fmadd.d	fs1,fa3,fs4,fs1
    8000325c:	93f6f943          	fmadd.d	fs2,fa3,ft11,fs2
    80003260:	9be6f9c3          	fmadd.d	fs3,fa3,ft10,fs3
    80003264:	b3d6f6c3          	fmadd.d	fa3,fa3,ft9,fs6
    80003268:	00fc8833          	add	a6,s9,a5
    8000326c:	01073207          	fld	ft4,16(a4)
    80003270:	01063b07          	fld	fs6,16(a2)
    80003274:	0106b107          	fld	ft2,16(a3)
    80003278:	0105be87          	fld	ft9,16(a1)
    8000327c:	00083c07          	fld	fs8,0(a6)
    80003280:	00883a87          	fld	fs5,8(a6)
    80003284:	01083a07          	fld	fs4,16(a6)
    80003288:	01883f87          	fld	ft11,24(a6)
    8000328c:	02083f07          	fld	ft10,32(a6)
    80003290:	3b4b73c3          	fmadd.d	ft7,fs6,fs4,ft7
    80003294:	03827043          	fmadd.d	ft0,ft4,fs8,ft0
    80003298:	5be175c3          	fmadd.d	fa1,ft2,ft10,fa1
    8000329c:	6beef6c3          	fmadd.d	fa3,ft9,ft10,fa3
    800032a0:	73527743          	fmadd.d	fa4,ft4,fs5,fa4
    800032a4:	7b4277c3          	fmadd.d	fa5,ft4,fs4,fa5
    800032a8:	e3f27e43          	fmadd.d	ft8,ft4,ft11,ft8
    800032ac:	53e27543          	fmadd.d	fa0,ft4,ft10,fa0
    800032b0:	8b8b78c3          	fmadd.d	fa7,fs6,fs8,fa7
    800032b4:	cbfb7243          	fmadd.d	ft4,fs6,ft11,fs9
    800032b8:	835b7843          	fmadd.d	fa6,fs6,fs5,fa6
    800032bc:	63eb7643          	fmadd.d	fa2,fs6,ft10,fa2
    800032c0:	2b8172c3          	fmadd.d	ft5,ft2,fs8,ft5
    800032c4:	33517b43          	fmadd.d	fs6,ft2,fs5,ft6
    800032c8:	bb417bc3          	fmadd.d	fs7,ft2,fs4,fs7
    800032cc:	0bf170c3          	fmadd.d	ft1,ft2,ft11,ft1
    800032d0:	438ef443          	fmadd.d	fs0,ft9,fs8,fs0
    800032d4:	4b5ef4c3          	fmadd.d	fs1,ft9,fs5,fs1
    800032d8:	934ef943          	fmadd.d	fs2,ft9,fs4,fs2
    800032dc:	9bfef9c3          	fmadd.d	fs3,ft9,ft11,fs3
    800032e0:	01878833          	add	a6,a5,s8
    800032e4:	01873307          	fld	ft6,24(a4)
    800032e8:	00083a07          	fld	fs4,0(a6)
    800032ec:	00883f87          	fld	ft11,8(a6)
    800032f0:	01083f07          	fld	ft10,16(a6)
    800032f4:	01883e87          	fld	ft9,24(a6)
    800032f8:	02083187          	fld	ft3,32(a6)
    800032fc:	01863c07          	fld	fs8,24(a2)
    80003300:	0186b107          	fld	ft2,24(a3)
    80003304:	0185ba87          	fld	fs5,24(a1)
    80003308:	52337543          	fmadd.d	fa0,ft6,ft3,fa0
    8000330c:	83fc7843          	fmadd.d	fa6,fs8,ft11,fa6
    80003310:	434af443          	fmadd.d	fs0,fs5,fs4,fs0
    80003314:	4bfaf4c3          	fmadd.d	fs1,fs5,ft11,fs1
    80003318:	93eaf943          	fmadd.d	fs2,fs5,ft10,fs2
    8000331c:	9bdaf9c3          	fmadd.d	fs3,fs5,ft9,fs3
    80003320:	03437043          	fmadd.d	ft0,ft6,fs4,ft0
    80003324:	6a3afac3          	fmadd.d	fs5,fs5,ft3,fa3
    80003328:	73f37743          	fmadd.d	fa4,ft6,ft11,fa4
    8000332c:	7be377c3          	fmadd.d	fa5,ft6,ft10,fa5
    80003330:	e3d37e43          	fmadd.d	ft8,ft6,ft9,ft8
    80003334:	8b4c78c3          	fmadd.d	fa7,fs8,fs4,fa7
    80003338:	3bec7343          	fmadd.d	ft6,fs8,ft10,ft7
    8000333c:	23dc7243          	fmadd.d	ft4,fs8,ft9,ft4
    80003340:	623c7643          	fmadd.d	fa2,fs8,ft3,fa2
    80003344:	2b4172c3          	fmadd.d	ft5,ft2,fs4,ft5
    80003348:	b3f17b43          	fmadd.d	fs6,ft2,ft11,fs6
    8000334c:	bbe17bc3          	fmadd.d	fs7,ft2,ft10,fs7
    80003350:	0bd170c3          	fmadd.d	ft1,ft2,ft9,ft1
    80003354:	5a317143          	fmadd.d	ft2,ft2,ft3,fa1
    80003358:	00fb8833          	add	a6,s7,a5
    8000335c:	3294                	fld	fa3,32(a3)
    8000335e:	0205bd87          	fld	fs11,32(a1)
    80003362:	330c                	fld	fa1,32(a4)
    80003364:	02063f87          	fld	ft11,32(a2)
    80003368:	00083e87          	fld	ft9,0(a6)
    8000336c:	00883f07          	fld	ft10,8(a6)
    80003370:	01083d07          	fld	fs10,16(a6)
    80003374:	01883c87          	fld	fs9,24(a6)
    80003378:	02083187          	fld	ft3,32(a6)
    8000337c:	83eff3c3          	fmadd.d	ft7,ft11,ft10,fa6
    80003380:	03d5f043          	fmadd.d	ft0,fa1,ft9,ft0
    80003384:	73e5f743          	fmadd.d	fa4,fa1,ft10,fa4
    80003388:	7ba5f7c3          	fmadd.d	fa5,fa1,fs10,fa5
    8000338c:	e395fc43          	fmadd.d	fs8,fa1,fs9,ft8
    80003390:	33aff343          	fmadd.d	ft6,ft11,fs10,ft6
    80003394:	5235f5c3          	fmadd.d	fa1,fa1,ft3,fa0
    80003398:	239ff243          	fmadd.d	ft4,ft11,fs9,ft4
    8000339c:	2bd6f2c3          	fmadd.d	ft5,fa3,ft9,ft5
    800033a0:	b3e6fb43          	fmadd.d	fs6,fa3,ft10,fs6
    800033a4:	bba6fbc3          	fmadd.d	fs7,fa3,fs10,fs7
    800033a8:	0b96f0c3          	fmadd.d	ft1,fa3,fs9,ft1
    800033ac:	1236f143          	fmadd.d	ft2,fa3,ft3,ft2
    800033b0:	4bedff43          	fmadd.d	ft10,fs11,ft10,fs1
    800033b4:	93adfd43          	fmadd.d	fs10,fs11,fs10,fs2
    800033b8:	9b9dfcc3          	fmadd.d	fs9,fs11,fs9,fs3
    800033bc:	8bdff8c3          	fmadd.d	fa7,ft11,ft9,fa7
    800033c0:	623ff643          	fmadd.d	fa2,ft11,ft3,fa2
    800033c4:	43ddfec3          	fmadd.d	ft9,fs11,ft9,fs0
    800033c8:	aa3df1c3          	fmadd.d	ft3,fs11,ft3,fs5
    800033cc:	01678833          	add	a6,a5,s6
    800033d0:	3708                	fld	fa0,40(a4)
    800033d2:	02863807          	fld	fa6,40(a2)
    800033d6:	3694                	fld	fa3,40(a3)
    800033d8:	0285ba87          	fld	fs5,40(a1)
    800033dc:	00083407          	fld	fs0,0(a6)
    800033e0:	00883487          	fld	fs1,8(a6)
    800033e4:	01083907          	fld	fs2,16(a6)
    800033e8:	01883987          	fld	fs3,24(a6)
    800033ec:	02083a07          	fld	fs4,32(a6)
    800033f0:	03070713          	addi	a4,a4,48
    800033f4:	02857043          	fmadd.d	ft0,fa0,fs0,ft0
    800033f8:	72957743          	fmadd.d	fa4,fa0,fs1,fa4
    800033fc:	7b2577c3          	fmadd.d	fa5,fa0,fs2,fa5
    80003400:	c3357c43          	fmadd.d	fs8,fa0,fs3,fs8
    80003404:	3a987dc3          	fmadd.d	fs11,fa6,fs1,ft7
    80003408:	5b457543          	fmadd.d	fa0,fa0,fs4,fa1
    8000340c:	332873c3          	fmadd.d	ft7,fa6,fs2,ft6
    80003410:	8a8878c3          	fmadd.d	fa7,fa6,fs0,fa7
    80003414:	23387343          	fmadd.d	ft6,fa6,fs3,ft4
    80003418:	2a86f2c3          	fmadd.d	ft5,fa3,fs0,ft5
    8000341c:	b296f5c3          	fmadd.d	fa1,fa3,fs1,fs6
    80003420:	bb26f243          	fmadd.d	ft4,fa3,fs2,fs7
    80003424:	0b36f0c3          	fmadd.d	ft1,fa3,fs3,ft1
    80003428:	ea8af443          	fmadd.d	fs0,fs5,fs0,ft9
    8000342c:	f29af4c3          	fmadd.d	fs1,fs5,fs1,ft10
    80003430:	d32af943          	fmadd.d	fs2,fs5,fs2,fs10
    80003434:	cb3af9c3          	fmadd.d	fs3,fs5,fs3,fs9
    80003438:	63487643          	fmadd.d	fa2,fa6,fs4,fa2
    8000343c:	1346f143          	fmadd.d	ft2,fa3,fs4,ft2
    80003440:	1b4afac3          	fmadd.d	fs5,fs5,fs4,ft3
    80003444:	97d2                	add	a5,a5,s4
    80003446:	03060613          	addi	a2,a2,48
    8000344a:	03068693          	addi	a3,a3,48
    8000344e:	03058593          	addi	a1,a1,48
    80003452:	d29768e3          	bltu	a4,s1,80003182 <mm_cb+0x1032>
    80003456:	22e70fd3          	fmv.d	ft11,fa4
    8000345a:	22f78f53          	fmv.d	ft10,fa5
    8000345e:	22000e53          	fmv.d	ft8,ft0
    80003462:	221081d3          	fmv.d	ft3,ft1
    80003466:	22210753          	fmv.d	fa4,ft2
    8000346a:	238c0ed3          	fmv.d	ft9,fs8
    8000346e:	22528153          	fmv.d	ft2,ft5
    80003472:	23bd8853          	fmv.d	fa6,fs11
    80003476:	22b582d3          	fmv.d	ft5,fa1
    8000347a:	229480d3          	fmv.d	ft1,fs1
    8000347e:	228405d3          	fmv.d	fa1,fs0
    80003482:	23290053          	fmv.d	ft0,fs2
    80003486:	233986d3          	fmv.d	fa3,fs3
    8000348a:	235a87d3          	fmv.d	fa5,fs5
    8000348e:	006087b3          	add	a5,ra,t1
    80003492:	0924f563          	bgeu	s1,s2,8000351c <mm_cb+0x13cc>
    80003496:	8726                	mv	a4,s1
    80003498:	01a705b3          	add	a1,a4,s10
    8000349c:	01a58633          	add	a2,a1,s10
    800034a0:	01a606b3          	add	a3,a2,s10
    800034a4:	00073987          	fld	fs3,0(a4)
    800034a8:	0007bc07          	fld	fs8,0(a5)
    800034ac:	0087bb87          	fld	fs7,8(a5)
    800034b0:	0107bb07          	fld	fs6,16(a5)
    800034b4:	0187ba87          	fld	fs5,24(a5)
    800034b8:	0207ba07          	fld	fs4,32(a5)
    800034bc:	0005b907          	fld	fs2,0(a1)
    800034c0:	2204                	fld	fs1,0(a2)
    800034c2:	2280                	fld	fs0,0(a3)
    800034c4:	0721                	addi	a4,a4,8
    800034c6:	e389fe43          	fmadd.d	ft8,fs3,fs8,ft8
    800034ca:	fb79ffc3          	fmadd.d	ft11,fs3,fs7,ft11
    800034ce:	f369ff43          	fmadd.d	ft10,fs3,fs6,ft10
    800034d2:	eb59fec3          	fmadd.d	ft9,fs3,fs5,ft9
    800034d6:	5349f543          	fmadd.d	fa0,fs3,fs4,fa0
    800034da:	8b8978c3          	fmadd.d	fa7,fs2,fs8,fa7
    800034de:	83797843          	fmadd.d	fa6,fs2,fs7,fa6
    800034e2:	3b6973c3          	fmadd.d	ft7,fs2,fs6,ft7
    800034e6:	33597343          	fmadd.d	ft6,fs2,fs5,ft6
    800034ea:	63497643          	fmadd.d	fa2,fs2,fs4,fa2
    800034ee:	1384f143          	fmadd.d	ft2,fs1,fs8,ft2
    800034f2:	2b74f2c3          	fmadd.d	ft5,fs1,fs7,ft5
    800034f6:	2364f243          	fmadd.d	ft4,fs1,fs6,ft4
    800034fa:	1b54f1c3          	fmadd.d	ft3,fs1,fs5,ft3
    800034fe:	7344f743          	fmadd.d	fa4,fs1,fs4,fa4
    80003502:	5b8475c3          	fmadd.d	fa1,fs0,fs8,fa1
    80003506:	0b7470c3          	fmadd.d	ft1,fs0,fs7,ft1
    8000350a:	03647043          	fmadd.d	ft0,fs0,fs6,ft0
    8000350e:	6b5476c3          	fmadd.d	fa3,fs0,fs5,fa3
    80003512:	7b4477c3          	fmadd.d	fa5,fs0,fs4,fa5
    80003516:	97ce                	add	a5,a5,s3
    80003518:	f92760e3          	bltu	a4,s2,80003498 <mm_cb+0x1348>
    8000351c:	01c53027          	fsd	ft8,0(a0)
    80003520:	01f53427          	fsd	ft11,8(a0)
    80003524:	01e53827          	fsd	ft10,16(a0)
    80003528:	01d53c27          	fsd	ft9,24(a0)
    8000352c:	b108                	fsd	fa0,32(a0)
    8000352e:	0d153427          	fsd	fa7,200(a0)
    80003532:	0d053827          	fsd	fa6,208(a0)
    80003536:	0c753c27          	fsd	ft7,216(a0)
    8000353a:	0e653027          	fsd	ft6,224(a0)
    8000353e:	b570                	fsd	fa2,232(a0)
    80003540:	18253827          	fsd	ft2,400(a0)
    80003544:	18553c27          	fsd	ft5,408(a0)
    80003548:	1a453027          	fsd	ft4,416(a0)
    8000354c:	1a353427          	fsd	ft3,424(a0)
    80003550:	1ae53827          	fsd	fa4,432(a0)
    80003554:	24b53c27          	fsd	fa1,600(a0)
    80003558:	26153027          	fsd	ft1,608(a0)
    8000355c:	26053427          	fsd	ft0,616(a0)
    80003560:	26d53827          	fsd	fa3,624(a0)
    80003564:	26f53c27          	fsd	fa5,632(a0)
    80003568:	02830313          	addi	t1,t1,40
    8000356c:	02850513          	addi	a0,a0,40
    80003570:	b66f1de3          	bne	t5,t1,800030ea <mm_cb+0xf9a>
    80003574:	f2843803          	ld	a6,-216(s0)
    80003578:	f2043703          	ld	a4,-224(s0)
    8000357c:	e5043603          	ld	a2,-432(s0)
    80003580:	47e5                	li	a5,25
    80003582:	064e8e93          	addi	t4,t4,100
    80003586:	88f2                	mv	a7,t3
    80003588:	86ee                	mv	a3,s11
    8000358a:	e03e                	sd	a5,0(sp)
    8000358c:	4581                	li	a1,0
    8000358e:	87fa                	mv	a5,t5
    80003590:	4511                	li	a0,4
    80003592:	da743823          	sd	t2,-592(s0)
    80003596:	dbf43c23          	sd	t6,-584(s0)
    8000359a:	e1c43023          	sd	t3,-512(s0)
    8000359e:	e1e43823          	sd	t5,-496(s0)
    800035a2:	ebd43023          	sd	t4,-352(s0)
    800035a6:	a5bfe0ef          	jal	ra,80002000 <mm_naive>
    800035aa:	e4043783          	ld	a5,-448(s0)
    800035ae:	e0043e03          	ld	t3,-512(s0)
    800035b2:	ea043e83          	ld	t4,-352(s0)
    800035b6:	25800293          	li	t0,600
    800035ba:	e1043f03          	ld	t5,-496(s0)
    800035be:	db843f83          	ld	t6,-584(s0)
    800035c2:	db043383          	ld	t2,-592(s0)
    800035c6:	9dbe                	add	s11,s11,a5
    800035c8:	320e0e13          	addi	t3,t3,800
    800035cc:	94be                	add	s1,s1,a5
    800035ce:	993e                	add	s2,s2,a5
    800035d0:	b05e98e3          	bne	t4,t0,800030e0 <mm_cb+0xf90>
    800035d4:	47e5                	li	a5,25
    800035d6:	e03e                	sd	a5,0(sp)
    800035d8:	6785                	lui	a5,0x1
    800035da:	2c078793          	addi	a5,a5,704 # 12c0 <buflen.1+0x1240>
    800035de:	00f388b3          	add	a7,t2,a5
    800035e2:	f2843803          	ld	a6,-216(s0)
    800035e6:	e9043783          	ld	a5,-368(s0)
    800035ea:	f2043703          	ld	a4,-224(s0)
    800035ee:	e6843683          	ld	a3,-408(s0)
    800035f2:	e5043603          	ld	a2,-432(s0)
    800035f6:	45e5                	li	a1,25
    800035f8:	4501                	li	a0,0
    800035fa:	ebe43023          	sd	t5,-352(s0)
    800035fe:	a03fe0ef          	jal	ra,80002000 <mm_naive>
    80003602:	ea043f03          	ld	t5,-352(s0)
    80003606:	c7aff06f          	j	80002a80 <mm_cb+0x930>
    8000360a:	e7043703          	ld	a4,-400(s0)
    8000360e:	ee843783          	ld	a5,-280(s0)
    80003612:	97ba                	add	a5,a5,a4
    80003614:	e6f43423          	sd	a5,-408(s0)
    80003618:	ef843703          	ld	a4,-264(s0)
    8000361c:	ed843783          	ld	a5,-296(s0)
    80003620:	c8f76463          	bltu	a4,a5,80002aa8 <mm_cb+0x958>
    80003624:	ee043783          	ld	a5,-288(s0)
    80003628:	eb043703          	ld	a4,-336(s0)
    8000362c:	97ba                	add	a5,a5,a4
    8000362e:	ecf43423          	sd	a5,-312(s0)
    80003632:	ec843703          	ld	a4,-312(s0)
    80003636:	e9843783          	ld	a5,-360(s0)
    8000363a:	eee43023          	sd	a4,-288(s0)
    8000363e:	e6843703          	ld	a4,-408(s0)
    80003642:	07e1                	addi	a5,a5,24
    80003644:	e8f43c23          	sd	a5,-360(s0)
    80003648:	eee43423          	sd	a4,-280(s0)
    8000364c:	f1043703          	ld	a4,-240(s0)
    80003650:	00e7f463          	bgeu	a5,a4,80003658 <mm_cb+0x1508>
    80003654:	f5ffe06f          	j	800025b2 <mm_cb+0x462>
    80003658:	e8043783          	ld	a5,-384(s0)
    8000365c:	f1043703          	ld	a4,-240(s0)
    80003660:	12f76163          	bltu	a4,a5,80003782 <mm_cb+0x1632>
    80003664:	e2843783          	ld	a5,-472(s0)
    80003668:	6018                	ld	a4,0(s0)
    8000366a:	eb843e03          	ld	t3,-328(s0)
    8000366e:	ef843483          	ld	s1,-264(s0)
    80003672:	6505                	lui	a0,0x1
    80003674:	00e78eb3          	add	t4,a5,a4
    80003678:	2c050f93          	addi	t6,a0,704 # 12c0 <buflen.1+0x1240>
    8000367c:	0e9a                	slli	t4,t4,0x6
    8000367e:	4801                	li	a6,0
    80003680:	43e1                	li	t2,24
    80003682:	42e5                	li	t0,25
    80003684:	38050513          	addi	a0,a0,896
    80003688:	c0d1                	beqz	s1,8000370c <mm_cb+0x15bc>
    8000368a:	027855b3          	divu	a1,a6,t2
    8000368e:	f0043783          	ld	a5,-256(s0)
    80003692:	8f72                	mv	t5,t3
    80003694:	4881                	li	a7,0
    80003696:	02f585b3          	mul	a1,a1,a5
    8000369a:	ed043703          	ld	a4,-304(s0)
    8000369e:	837a                	mv	t1,t5
    800036a0:	0258d7b3          	divu	a5,a7,t0
    800036a4:	97ae                	add	a5,a5,a1
    800036a6:	03f787b3          	mul	a5,a5,t6
    800036aa:	97ba                	add	a5,a5,a4
    800036ac:	0c078693          	addi	a3,a5,192
    800036b0:	00a78633          	add	a2,a5,a0
    800036b4:	f4068793          	addi	a5,a3,-192
    800036b8:	871a                	mv	a4,t1
    800036ba:	0007b087          	fld	ft1,0(a5)
    800036be:	0087b007          	fld	ft0,8(a5)
    800036c2:	2b88                	fld	fa0,16(a5)
    800036c4:	2f8c                	fld	fa1,24(a5)
    800036c6:	3390                	fld	fa2,32(a5)
    800036c8:	3794                	fld	fa3,40(a5)
    800036ca:	3b98                	fld	fa4,48(a5)
    800036cc:	3f9c                	fld	fa5,56(a5)
    800036ce:	00173027          	fsd	ft1,0(a4)
    800036d2:	00073427          	fsd	ft0,8(a4)
    800036d6:	ab08                	fsd	fa0,16(a4)
    800036d8:	af0c                	fsd	fa1,24(a4)
    800036da:	b310                	fsd	fa2,32(a4)
    800036dc:	b714                	fsd	fa3,40(a4)
    800036de:	bb18                	fsd	fa4,48(a4)
    800036e0:	bf1c                	fsd	fa5,56(a4)
    800036e2:	04078793          	addi	a5,a5,64
    800036e6:	04070713          	addi	a4,a4,64
    800036ea:	fcf698e3          	bne	a3,a5,800036ba <mm_cb+0x156a>
    800036ee:	229c                	fld	fa5,0(a3)
    800036f0:	ef043783          	ld	a5,-272(s0)
    800036f4:	0c868693          	addi	a3,a3,200
    800036f8:	0cf33027          	fsd	fa5,192(t1)
    800036fc:	933e                	add	t1,t1,a5
    800036fe:	fad61be3          	bne	a2,a3,800036b4 <mm_cb+0x1564>
    80003702:	08e5                	addi	a7,a7,25
    80003704:	0c8f0f13          	addi	t5,t5,200
    80003708:	f898e9e3          	bltu	a7,s1,8000369a <mm_cb+0x154a>
    8000370c:	f1043783          	ld	a5,-240(s0)
    80003710:	0861                	addi	a6,a6,24
    80003712:	9e76                	add	t3,t3,t4
    80003714:	f6f86ae3          	bltu	a6,a5,80003688 <mm_cb+0x1538>
    80003718:	d8040113          	addi	sp,s0,-640
    8000371c:	27813083          	ld	ra,632(sp)
    80003720:	27013403          	ld	s0,624(sp)
    80003724:	26813483          	ld	s1,616(sp)
    80003728:	26013903          	ld	s2,608(sp)
    8000372c:	25813983          	ld	s3,600(sp)
    80003730:	25013a03          	ld	s4,592(sp)
    80003734:	24813a83          	ld	s5,584(sp)
    80003738:	24013b03          	ld	s6,576(sp)
    8000373c:	23813b83          	ld	s7,568(sp)
    80003740:	23013c03          	ld	s8,560(sp)
    80003744:	22813c83          	ld	s9,552(sp)
    80003748:	22013d03          	ld	s10,544(sp)
    8000374c:	21813d83          	ld	s11,536(sp)
    80003750:	20813407          	fld	fs0,520(sp)
    80003754:	20013487          	fld	fs1,512(sp)
    80003758:	397e                	fld	fs2,504(sp)
    8000375a:	39de                	fld	fs3,496(sp)
    8000375c:	3a3e                	fld	fs4,488(sp)
    8000375e:	3a9e                	fld	fs5,480(sp)
    80003760:	2b7e                	fld	fs6,472(sp)
    80003762:	2bde                	fld	fs7,464(sp)
    80003764:	2c3e                	fld	fs8,456(sp)
    80003766:	2c9e                	fld	fs9,448(sp)
    80003768:	3d7a                	fld	fs10,440(sp)
    8000376a:	3dda                	fld	fs11,432(sp)
    8000376c:	28010113          	addi	sp,sp,640
    80003770:	8082                	ret
    80003772:	f0843783          	ld	a5,-248(s0)
    80003776:	c399                	beqz	a5,8000377c <mm_cb+0x162c>
    80003778:	b99fe06f          	j	80002310 <mm_cb+0x1c0>
    8000377c:	e8043783          	ld	a5,-384(s0)
    80003780:	dfc1                	beqz	a5,80003718 <mm_cb+0x15c8>
    80003782:	ed843783          	ld	a5,-296(s0)
    80003786:	70078563          	beqz	a5,80003e90 <mm_cb+0x1d40>
    8000378a:	e8043783          	ld	a5,-384(s0)
    8000378e:	46e1                	li	a3,24
    80003790:	f2843603          	ld	a2,-216(s0)
    80003794:	02d7f6b3          	remu	a3,a5,a3
    80003798:	601c                	ld	a5,0(s0)
    8000379a:	f2043503          	ld	a0,-224(s0)
    8000379e:	00261713          	slli	a4,a2,0x2
    800037a2:	00379593          	slli	a1,a5,0x3
    800037a6:	00161793          	slli	a5,a2,0x1
    800037aa:	97b2                	add	a5,a5,a2
    800037ac:	00379b93          	slli	s7,a5,0x3
    800037b0:	00479c93          	slli	s9,a5,0x4
    800037b4:	079a                	slli	a5,a5,0x6
    800037b6:	e2f43823          	sd	a5,-464(s0)
    800037ba:	00551793          	slli	a5,a0,0x5
    800037be:	e4f43023          	sd	a5,-448(s0)
    800037c2:	601c                	ld	a5,0(s0)
    800037c4:	9732                	add	a4,a4,a2
    800037c6:	00371d93          	slli	s11,a4,0x3
    800037ca:	0796                	slli	a5,a5,0x5
    800037cc:	e7843703          	ld	a4,-392(s0)
    800037d0:	e4f43423          	sd	a5,-440(s0)
    800037d4:	f1043783          	ld	a5,-240(s0)
    800037d8:	eae43023          	sd	a4,-352(s0)
    800037dc:	00361993          	slli	s3,a2,0x3
    800037e0:	00461a93          	slli	s5,a2,0x4
    800037e4:	00561b13          	slli	s6,a2,0x5
    800037e8:	00351d13          	slli	s10,a0,0x3
    800037ec:	83de                	mv	t2,s7
    800037ee:	82ee                	mv	t0,s11
    800037f0:	eeb43823          	sd	a1,-272(s0)
    800037f4:	8de6                	mv	s11,s9
    800037f6:	ec043023          	sd	zero,-320(s0)
    800037fa:	8c56                	mv	s8,s5
    800037fc:	8bda                	mv	s7,s6
    800037fe:	8cce                	mv	s9,s3
    80003800:	02b78733          	mul	a4,a5,a1
    80003804:	ffc6f613          	andi	a2,a3,-4
    80003808:	8a8d                	andi	a3,a3,3
    8000380a:	e6d43c23          	sd	a3,-392(s0)
    8000380e:	eb843683          	ld	a3,-328(s0)
    80003812:	e8c43823          	sd	a2,-368(s0)
    80003816:	9736                	add	a4,a4,a3
    80003818:	f0e43423          	sd	a4,-248(s0)
    8000381c:	03a60733          	mul	a4,a2,s10
    80003820:	03a787b3          	mul	a5,a5,s10
    80003824:	e6e43823          	sd	a4,-400(s0)
    80003828:	e3843703          	ld	a4,-456(s0)
    8000382c:	97ba                	add	a5,a5,a4
    8000382e:	e4f43823          	sd	a5,-432(s0)
    80003832:	02b607b3          	mul	a5,a2,a1
    80003836:	e6f43423          	sd	a5,-408(s0)
    8000383a:	f1843783          	ld	a5,-232(s0)
    8000383e:	62078463          	beqz	a5,80003e66 <mm_cb+0x1d16>
    80003842:	ec043703          	ld	a4,-320(s0)
    80003846:	ed843783          	ld	a5,-296(s0)
    8000384a:	8f99                	sub	a5,a5,a4
    8000384c:	ecf43423          	sd	a5,-312(s0)
    80003850:	4765                	li	a4,25
    80003852:	00f77563          	bgeu	a4,a5,8000385c <mm_cb+0x170c>
    80003856:	47e5                	li	a5,25
    80003858:	ecf43423          	sd	a5,-312(s0)
    8000385c:	ec843703          	ld	a4,-312(s0)
    80003860:	4695                	li	a3,5
    80003862:	e6843603          	ld	a2,-408(s0)
    80003866:	02d757b3          	divu	a5,a4,a3
    8000386a:	f0843583          	ld	a1,-248(s0)
    8000386e:	ea043823          	sd	zero,-336(s0)
    80003872:	8a1e                	mv	s4,t2
    80003874:	962e                	add	a2,a2,a1
    80003876:	e6c43023          	sd	a2,-416(s0)
    8000387a:	e5043603          	ld	a2,-432(s0)
    8000387e:	8996                	mv	s3,t0
    80003880:	e8c43c23          	sd	a2,-360(s0)
    80003884:	ea043603          	ld	a2,-352(s0)
    80003888:	eec43423          	sd	a2,-280(s0)
    8000388c:	02d77733          	remu	a4,a4,a3
    80003890:	e8e43023          	sd	a4,-384(s0)
    80003894:	00279713          	slli	a4,a5,0x2
    80003898:	00f70ab3          	add	s5,a4,a5
    8000389c:	003a9793          	slli	a5,s5,0x3
    800038a0:	e8f43423          	sd	a5,-376(s0)
    800038a4:	8b56                	mv	s6,s5
    800038a6:	f1843783          	ld	a5,-232(s0)
    800038aa:	eb043703          	ld	a4,-336(s0)
    800038ae:	40e782b3          	sub	t0,a5,a4
    800038b2:	47e1                	li	a5,24
    800038b4:	0057f363          	bgeu	a5,t0,800038ba <mm_cb+0x176a>
    800038b8:	42e1                	li	t0,24
    800038ba:	e9043783          	ld	a5,-368(s0)
    800038be:	54078763          	beqz	a5,80003e0c <mm_cb+0x1cbc>
    800038c2:	ee843703          	ld	a4,-280(s0)
    800038c6:	e8843783          	ld	a5,-376(s0)
    800038ca:	00329913          	slli	s2,t0,0x3
    800038ce:	ea043423          	sd	zero,-344(s0)
    800038d2:	97ba                	add	a5,a5,a4
    800038d4:	f0843703          	ld	a4,-248(s0)
    800038d8:	e4f43c23          	sd	a5,-424(s0)
    800038dc:	e9843783          	ld	a5,-360(s0)
    800038e0:	eee43023          	sd	a4,-288(s0)
    800038e4:	4719                	li	a4,6
    800038e6:	02e2d3b3          	divu	t2,t0,a4
    800038ea:	993e                	add	s2,s2,a5
    800038ec:	8abe                	mv	s5,a5
    800038ee:	00139493          	slli	s1,t2,0x1
    800038f2:	949e                	add	s1,s1,t2
    800038f4:	03b383b3          	mul	t2,t2,s11
    800038f8:	0492                	slli	s1,s1,0x4
    800038fa:	94be                	add	s1,s1,a5
    800038fc:	4a0b0463          	beqz	s6,80003da4 <mm_cb+0x1c54>
    80003900:	ef043783          	ld	a5,-272(s0)
    80003904:	ee043883          	ld	a7,-288(s0)
    80003908:	ee843f03          	ld	t5,-280(s0)
    8000390c:	4f81                	li	t6,0
    8000390e:	01178833          	add	a6,a5,a7
    80003912:	01078533          	add	a0,a5,a6
    80003916:	00a78333          	add	t1,a5,a0
    8000391a:	0008be07          	fld	ft8,0(a7)
    8000391e:	0088bf87          	fld	ft11,8(a7)
    80003922:	0108bf07          	fld	ft10,16(a7)
    80003926:	0188be87          	fld	ft9,24(a7)
    8000392a:	0208b507          	fld	fa0,32(a7)
    8000392e:	00083887          	fld	fa7,0(a6)
    80003932:	00883807          	fld	fa6,8(a6)
    80003936:	01083387          	fld	ft7,16(a6)
    8000393a:	01883307          	fld	ft6,24(a6)
    8000393e:	02083607          	fld	fa2,32(a6)
    80003942:	00053107          	fld	ft2,0(a0)
    80003946:	00853287          	fld	ft5,8(a0)
    8000394a:	01053207          	fld	ft4,16(a0)
    8000394e:	01853187          	fld	ft3,24(a0)
    80003952:	3118                	fld	fa4,32(a0)
    80003954:	00033587          	fld	fa1,0(t1)
    80003958:	00833087          	fld	ft1,8(t1)
    8000395c:	01033007          	fld	ft0,16(t1)
    80003960:	01833687          	fld	fa3,24(t1)
    80003964:	02033787          	fld	fa5,32(t1)
    80003968:	87fa                	mv	a5,t5
    8000396a:	349af263          	bgeu	s5,s1,80003cae <mm_cb+0x1b5e>
    8000396e:	22210dd3          	fmv.d	fs11,ft2
    80003972:	221084d3          	fmv.d	fs1,ft1
    80003976:	22e70153          	fmv.d	ft2,fa4
    8000397a:	22000953          	fmv.d	fs2,ft0
    8000397e:	22f78ad3          	fmv.d	fs5,fa5
    80003982:	015d0633          	add	a2,s10,s5
    80003986:	23de8c53          	fmv.d	fs8,ft9
    8000398a:	23ff8753          	fmv.d	fa4,ft11
    8000398e:	22b58453          	fmv.d	fs0,fa1
    80003992:	223180d3          	fmv.d	ft1,ft3
    80003996:	23ce0053          	fmv.d	ft0,ft8
    8000399a:	22d689d3          	fmv.d	fs3,fa3
    8000399e:	23ef07d3          	fmv.d	fa5,ft10
    800039a2:	00cd06b3          	add	a3,s10,a2
    800039a6:	00dd05b3          	add	a1,s10,a3
    800039aa:	8756                	mv	a4,s5
    800039ac:	00073c87          	fld	fs9,0(a4)
    800039b0:	00063b87          	fld	fs7,0(a2)
    800039b4:	0006ba07          	fld	fs4,0(a3)
    800039b8:	0005bb07          	fld	fs6,0(a1)
    800039bc:	0007bf07          	fld	ft10,0(a5)
    800039c0:	0087be87          	fld	ft9,8(a5)
    800039c4:	0107b187          	fld	ft3,16(a5)
    800039c8:	2f8c                	fld	fa1,24(a5)
    800039ca:	3394                	fld	fa3,32(a5)
    800039cc:	dbea7dc3          	fmadd.d	fs11,fs4,ft10,fs11
    800039d0:	c2bcfe43          	fmadd.d	ft8,fs9,fa1,fs8
    800039d4:	12da7143          	fmadd.d	ft2,fs4,fa3,ft2
    800039d8:	32bbfc43          	fmadd.d	fs8,fs7,fa1,ft6
    800039dc:	03ecf043          	fmadd.d	ft0,fs9,ft10,ft0
    800039e0:	2bda7343          	fmadd.d	ft6,fs4,ft9,ft5
    800039e4:	73dcf743          	fmadd.d	fa4,fs9,ft9,fa4
    800039e8:	7a3cf7c3          	fmadd.d	fa5,fs9,ft3,fa5
    800039ec:	52dcf543          	fmadd.d	fa0,fs9,fa3,fa0
    800039f0:	8bebf8c3          	fmadd.d	fa7,fs7,ft10,fa7
    800039f4:	83dbf843          	fmadd.d	fa6,fs7,ft9,fa6
    800039f8:	3a3bf3c3          	fmadd.d	ft7,fs7,ft3,ft7
    800039fc:	62dbf643          	fmadd.d	fa2,fs7,fa3,fa2
    80003a00:	0aba70c3          	fmadd.d	ft1,fs4,fa1,ft1
    80003a04:	223a7bc3          	fmadd.d	fs7,fs4,ft3,ft4
    80003a08:	43eb7443          	fmadd.d	fs0,fs6,ft10,fs0
    80003a0c:	4bdb74c3          	fmadd.d	fs1,fs6,ft9,fs1
    80003a10:	923b7943          	fmadd.d	fs2,fs6,ft3,fs2
    80003a14:	9abb79c3          	fmadd.d	fs3,fs6,fa1,fs3
    80003a18:	aadb7b43          	fmadd.d	fs6,fs6,fa3,fs5
    80003a1c:	00fc8e33          	add	t3,s9,a5
    80003a20:	00873187          	fld	ft3,8(a4)
    80003a24:	00863207          	fld	ft4,8(a2)
    80003a28:	268c                	fld	fa1,8(a3)
    80003a2a:	2594                	fld	fa3,8(a1)
    80003a2c:	000e3a87          	fld	fs5,0(t3)
    80003a30:	008e3a07          	fld	fs4,8(t3)
    80003a34:	010e3f87          	fld	ft11,16(t3)
    80003a38:	018e3f07          	fld	ft10,24(t3)
    80003a3c:	020e3e87          	fld	ft9,32(t3)
    80003a40:	db55f2c3          	fmadd.d	ft5,fa1,fs5,fs11
    80003a44:	3345f343          	fmadd.d	ft6,fa1,fs4,ft6
    80003a48:	0351f043          	fmadd.d	ft0,ft3,fs5,ft0
    80003a4c:	7341f743          	fmadd.d	fa4,ft3,fs4,fa4
    80003a50:	7bf1f7c3          	fmadd.d	fa5,ft3,ft11,fa5
    80003a54:	e3e1fe43          	fmadd.d	ft8,ft3,ft10,ft8
    80003a58:	53d1f543          	fmadd.d	fa0,ft3,ft9,fa0
    80003a5c:	8b5278c3          	fmadd.d	fa7,ft4,fs5,fa7
    80003a60:	c3e271c3          	fmadd.d	ft3,ft4,ft10,fs8
    80003a64:	83427843          	fmadd.d	fa6,ft4,fs4,fa6
    80003a68:	3bf273c3          	fmadd.d	ft7,ft4,ft11,ft7
    80003a6c:	63d27643          	fmadd.d	fa2,ft4,ft9,fa2
    80003a70:	bbf5fbc3          	fmadd.d	fs7,fa1,ft11,fs7
    80003a74:	0be5f0c3          	fmadd.d	ft1,fa1,ft10,ft1
    80003a78:	4356f443          	fmadd.d	fs0,fa3,fs5,fs0
    80003a7c:	13d5f5c3          	fmadd.d	fa1,fa1,ft9,ft2
    80003a80:	4b46f4c3          	fmadd.d	fs1,fa3,fs4,fs1
    80003a84:	93f6f943          	fmadd.d	fs2,fa3,ft11,fs2
    80003a88:	9be6f9c3          	fmadd.d	fs3,fa3,ft10,fs3
    80003a8c:	b3d6f6c3          	fmadd.d	fa3,fa3,ft9,fs6
    80003a90:	00fc0e33          	add	t3,s8,a5
    80003a94:	01073207          	fld	ft4,16(a4)
    80003a98:	01063b07          	fld	fs6,16(a2)
    80003a9c:	0106b107          	fld	ft2,16(a3)
    80003aa0:	0105be87          	fld	ft9,16(a1)
    80003aa4:	000e3c07          	fld	fs8,0(t3)
    80003aa8:	008e3a87          	fld	fs5,8(t3)
    80003aac:	010e3a07          	fld	fs4,16(t3)
    80003ab0:	018e3f87          	fld	ft11,24(t3)
    80003ab4:	020e3f07          	fld	ft10,32(t3)
    80003ab8:	3b4b73c3          	fmadd.d	ft7,fs6,fs4,ft7
    80003abc:	03827043          	fmadd.d	ft0,ft4,fs8,ft0
    80003ac0:	5be175c3          	fmadd.d	fa1,ft2,ft10,fa1
    80003ac4:	6beef6c3          	fmadd.d	fa3,ft9,ft10,fa3
    80003ac8:	73527743          	fmadd.d	fa4,ft4,fs5,fa4
    80003acc:	7b4277c3          	fmadd.d	fa5,ft4,fs4,fa5
    80003ad0:	e3f27e43          	fmadd.d	ft8,ft4,ft11,ft8
    80003ad4:	53e27543          	fmadd.d	fa0,ft4,ft10,fa0
    80003ad8:	8b8b78c3          	fmadd.d	fa7,fs6,fs8,fa7
    80003adc:	1bfb7243          	fmadd.d	ft4,fs6,ft11,ft3
    80003ae0:	835b7843          	fmadd.d	fa6,fs6,fs5,fa6
    80003ae4:	63eb7643          	fmadd.d	fa2,fs6,ft10,fa2
    80003ae8:	2b8172c3          	fmadd.d	ft5,ft2,fs8,ft5
    80003aec:	33517b43          	fmadd.d	fs6,ft2,fs5,ft6
    80003af0:	bb417bc3          	fmadd.d	fs7,ft2,fs4,fs7
    80003af4:	0bf170c3          	fmadd.d	ft1,ft2,ft11,ft1
    80003af8:	438ef443          	fmadd.d	fs0,ft9,fs8,fs0
    80003afc:	4b5ef4c3          	fmadd.d	fs1,ft9,fs5,fs1
    80003b00:	934ef943          	fmadd.d	fs2,ft9,fs4,fs2
    80003b04:	9bfef9c3          	fmadd.d	fs3,ft9,ft11,fs3
    80003b08:	01478e33          	add	t3,a5,s4
    80003b0c:	01873307          	fld	ft6,24(a4)
    80003b10:	000e3a07          	fld	fs4,0(t3)
    80003b14:	008e3f87          	fld	ft11,8(t3)
    80003b18:	010e3f07          	fld	ft10,16(t3)
    80003b1c:	018e3e87          	fld	ft9,24(t3)
    80003b20:	020e3187          	fld	ft3,32(t3)
    80003b24:	01863c07          	fld	fs8,24(a2)
    80003b28:	0186b107          	fld	ft2,24(a3)
    80003b2c:	0185ba87          	fld	fs5,24(a1)
    80003b30:	52337543          	fmadd.d	fa0,ft6,ft3,fa0
    80003b34:	03437043          	fmadd.d	ft0,ft6,fs4,ft0
    80003b38:	434af443          	fmadd.d	fs0,fs5,fs4,fs0
    80003b3c:	4bfaf4c3          	fmadd.d	fs1,fs5,ft11,fs1
    80003b40:	93eaf943          	fmadd.d	fs2,fs5,ft10,fs2
    80003b44:	9bdaf9c3          	fmadd.d	fs3,fs5,ft9,fs3
    80003b48:	73f37743          	fmadd.d	fa4,ft6,ft11,fa4
    80003b4c:	6a3afac3          	fmadd.d	fs5,fs5,ft3,fa3
    80003b50:	7be377c3          	fmadd.d	fa5,ft6,ft10,fa5
    80003b54:	e3d37e43          	fmadd.d	ft8,ft6,ft9,ft8
    80003b58:	8b4c78c3          	fmadd.d	fa7,fs8,fs4,fa7
    80003b5c:	3bec7343          	fmadd.d	ft6,fs8,ft10,ft7
    80003b60:	83fc7843          	fmadd.d	fa6,fs8,ft11,fa6
    80003b64:	23dc7243          	fmadd.d	ft4,fs8,ft9,ft4
    80003b68:	623c7643          	fmadd.d	fa2,fs8,ft3,fa2
    80003b6c:	2b4172c3          	fmadd.d	ft5,ft2,fs4,ft5
    80003b70:	b3f17b43          	fmadd.d	fs6,ft2,ft11,fs6
    80003b74:	bbe17bc3          	fmadd.d	fs7,ft2,ft10,fs7
    80003b78:	0bd170c3          	fmadd.d	ft1,ft2,ft9,ft1
    80003b7c:	5a317143          	fmadd.d	ft2,ft2,ft3,fa1
    80003b80:	00fb8e33          	add	t3,s7,a5
    80003b84:	3294                	fld	fa3,32(a3)
    80003b86:	0205bd87          	fld	fs11,32(a1)
    80003b8a:	330c                	fld	fa1,32(a4)
    80003b8c:	02063f87          	fld	ft11,32(a2)
    80003b90:	000e3e87          	fld	ft9,0(t3)
    80003b94:	008e3f07          	fld	ft10,8(t3)
    80003b98:	010e3d07          	fld	fs10,16(t3)
    80003b9c:	018e3c87          	fld	fs9,24(t3)
    80003ba0:	020e3187          	fld	ft3,32(t3)
    80003ba4:	2bd6f2c3          	fmadd.d	ft5,fa3,ft9,ft5
    80003ba8:	03d5f043          	fmadd.d	ft0,fa1,ft9,ft0
    80003bac:	73e5f743          	fmadd.d	fa4,fa1,ft10,fa4
    80003bb0:	7ba5f7c3          	fmadd.d	fa5,fa1,fs10,fa5
    80003bb4:	e395fc43          	fmadd.d	fs8,fa1,fs9,ft8
    80003bb8:	33aff343          	fmadd.d	ft6,ft11,fs10,ft6
    80003bbc:	5235f5c3          	fmadd.d	fa1,fa1,ft3,fa0
    80003bc0:	239ff243          	fmadd.d	ft4,ft11,fs9,ft4
    80003bc4:	b3e6fb43          	fmadd.d	fs6,fa3,ft10,fs6
    80003bc8:	bba6fbc3          	fmadd.d	fs7,fa3,fs10,fs7
    80003bcc:	0b96f0c3          	fmadd.d	ft1,fa3,fs9,ft1
    80003bd0:	1236f143          	fmadd.d	ft2,fa3,ft3,ft2
    80003bd4:	93adfd43          	fmadd.d	fs10,fs11,fs10,fs2
    80003bd8:	9b9dfcc3          	fmadd.d	fs9,fs11,fs9,fs3
    80003bdc:	8bdff8c3          	fmadd.d	fa7,ft11,ft9,fa7
    80003be0:	83eff843          	fmadd.d	fa6,ft11,ft10,fa6
    80003be4:	43ddfec3          	fmadd.d	ft9,fs11,ft9,fs0
    80003be8:	4bedff43          	fmadd.d	ft10,fs11,ft10,fs1
    80003bec:	623ff643          	fmadd.d	fa2,ft11,ft3,fa2
    80003bf0:	aa3df1c3          	fmadd.d	ft3,fs11,ft3,fs5
    80003bf4:	01378e33          	add	t3,a5,s3
    80003bf8:	02863d87          	fld	fs11,40(a2)
    80003bfc:	3708                	fld	fa0,40(a4)
    80003bfe:	3694                	fld	fa3,40(a3)
    80003c00:	0285ba87          	fld	fs5,40(a1)
    80003c04:	000e3407          	fld	fs0,0(t3)
    80003c08:	008e3487          	fld	fs1,8(t3)
    80003c0c:	010e3907          	fld	fs2,16(t3)
    80003c10:	018e3987          	fld	fs3,24(t3)
    80003c14:	020e3a07          	fld	fs4,32(t3)
    80003c18:	03070713          	addi	a4,a4,48
    80003c1c:	332df3c3          	fmadd.d	ft7,fs11,fs2,ft6
    80003c20:	02857043          	fmadd.d	ft0,fa0,fs0,ft0
    80003c24:	233df343          	fmadd.d	ft6,fs11,fs3,ft4
    80003c28:	72957743          	fmadd.d	fa4,fa0,fs1,fa4
    80003c2c:	7b2577c3          	fmadd.d	fa5,fa0,fs2,fa5
    80003c30:	c3357c43          	fmadd.d	fs8,fa0,fs3,fs8
    80003c34:	8a8df8c3          	fmadd.d	fa7,fs11,fs0,fa7
    80003c38:	829df843          	fmadd.d	fa6,fs11,fs1,fa6
    80003c3c:	634df643          	fmadd.d	fa2,fs11,fs4,fa2
    80003c40:	bb26f243          	fmadd.d	ft4,fa3,fs2,fs7
    80003c44:	2a86fdc3          	fmadd.d	fs11,fa3,fs0,ft5
    80003c48:	0b36f0c3          	fmadd.d	ft1,fa3,fs3,ft1
    80003c4c:	b296f2c3          	fmadd.d	ft5,fa3,fs1,fs6
    80003c50:	ea8af443          	fmadd.d	fs0,fs5,fs0,ft9
    80003c54:	f29af4c3          	fmadd.d	fs1,fs5,fs1,ft10
    80003c58:	d32af943          	fmadd.d	fs2,fs5,fs2,fs10
    80003c5c:	cb3af9c3          	fmadd.d	fs3,fs5,fs3,fs9
    80003c60:	5b457543          	fmadd.d	fa0,fa0,fs4,fa1
    80003c64:	1346f143          	fmadd.d	ft2,fa3,fs4,ft2
    80003c68:	1b4afac3          	fmadd.d	fs5,fs5,fs4,ft3
    80003c6c:	97ee                	add	a5,a5,s11
    80003c6e:	03060613          	addi	a2,a2,48
    80003c72:	03068693          	addi	a3,a3,48
    80003c76:	03058593          	addi	a1,a1,48
    80003c7a:	d29769e3          	bltu	a4,s1,800039ac <mm_cb+0x185c>
    80003c7e:	22000e53          	fmv.d	ft8,ft0
    80003c82:	22e70fd3          	fmv.d	ft11,fa4
    80003c86:	22f78f53          	fmv.d	ft10,fa5
    80003c8a:	221081d3          	fmv.d	ft3,ft1
    80003c8e:	22210753          	fmv.d	fa4,ft2
    80003c92:	238c0ed3          	fmv.d	ft9,fs8
    80003c96:	23bd8153          	fmv.d	ft2,fs11
    80003c9a:	228405d3          	fmv.d	fa1,fs0
    80003c9e:	229480d3          	fmv.d	ft1,fs1
    80003ca2:	23290053          	fmv.d	ft0,fs2
    80003ca6:	233986d3          	fmv.d	fa3,fs3
    80003caa:	235a87d3          	fmv.d	fa5,fs5
    80003cae:	01e387b3          	add	a5,t2,t5
    80003cb2:	0924f563          	bgeu	s1,s2,80003d3c <mm_cb+0x1bec>
    80003cb6:	8726                	mv	a4,s1
    80003cb8:	01a705b3          	add	a1,a4,s10
    80003cbc:	01a58633          	add	a2,a1,s10
    80003cc0:	01a606b3          	add	a3,a2,s10
    80003cc4:	00073987          	fld	fs3,0(a4)
    80003cc8:	0007bc07          	fld	fs8,0(a5)
    80003ccc:	0087bb87          	fld	fs7,8(a5)
    80003cd0:	0107bb07          	fld	fs6,16(a5)
    80003cd4:	0187ba87          	fld	fs5,24(a5)
    80003cd8:	0207ba07          	fld	fs4,32(a5)
    80003cdc:	0005b907          	fld	fs2,0(a1)
    80003ce0:	2204                	fld	fs1,0(a2)
    80003ce2:	2280                	fld	fs0,0(a3)
    80003ce4:	0721                	addi	a4,a4,8
    80003ce6:	e389fe43          	fmadd.d	ft8,fs3,fs8,ft8
    80003cea:	fb79ffc3          	fmadd.d	ft11,fs3,fs7,ft11
    80003cee:	f369ff43          	fmadd.d	ft10,fs3,fs6,ft10
    80003cf2:	eb59fec3          	fmadd.d	ft9,fs3,fs5,ft9
    80003cf6:	5349f543          	fmadd.d	fa0,fs3,fs4,fa0
    80003cfa:	8b8978c3          	fmadd.d	fa7,fs2,fs8,fa7
    80003cfe:	83797843          	fmadd.d	fa6,fs2,fs7,fa6
    80003d02:	3b6973c3          	fmadd.d	ft7,fs2,fs6,ft7
    80003d06:	33597343          	fmadd.d	ft6,fs2,fs5,ft6
    80003d0a:	63497643          	fmadd.d	fa2,fs2,fs4,fa2
    80003d0e:	1384f143          	fmadd.d	ft2,fs1,fs8,ft2
    80003d12:	2b74f2c3          	fmadd.d	ft5,fs1,fs7,ft5
    80003d16:	2364f243          	fmadd.d	ft4,fs1,fs6,ft4
    80003d1a:	1b54f1c3          	fmadd.d	ft3,fs1,fs5,ft3
    80003d1e:	7344f743          	fmadd.d	fa4,fs1,fs4,fa4
    80003d22:	5b8475c3          	fmadd.d	fa1,fs0,fs8,fa1
    80003d26:	0b7470c3          	fmadd.d	ft1,fs0,fs7,ft1
    80003d2a:	03647043          	fmadd.d	ft0,fs0,fs6,ft0
    80003d2e:	6b5476c3          	fmadd.d	fa3,fs0,fs5,fa3
    80003d32:	7b4477c3          	fmadd.d	fa5,fs0,fs4,fa5
    80003d36:	97e6                	add	a5,a5,s9
    80003d38:	f92760e3          	bltu	a4,s2,80003cb8 <mm_cb+0x1b68>
    80003d3c:	01c8b027          	fsd	ft8,0(a7)
    80003d40:	01f8b427          	fsd	ft11,8(a7)
    80003d44:	01e8b827          	fsd	ft10,16(a7)
    80003d48:	01d8bc27          	fsd	ft9,24(a7)
    80003d4c:	02a8b027          	fsd	fa0,32(a7)
    80003d50:	01183027          	fsd	fa7,0(a6)
    80003d54:	01083427          	fsd	fa6,8(a6)
    80003d58:	00783827          	fsd	ft7,16(a6)
    80003d5c:	00683c27          	fsd	ft6,24(a6)
    80003d60:	02c83027          	fsd	fa2,32(a6)
    80003d64:	00253027          	fsd	ft2,0(a0)
    80003d68:	00553427          	fsd	ft5,8(a0)
    80003d6c:	00453827          	fsd	ft4,16(a0)
    80003d70:	00353c27          	fsd	ft3,24(a0)
    80003d74:	b118                	fsd	fa4,32(a0)
    80003d76:	00b33027          	fsd	fa1,0(t1)
    80003d7a:	00133427          	fsd	ft1,8(t1)
    80003d7e:	00033827          	fsd	ft0,16(t1)
    80003d82:	00d33c27          	fsd	fa3,24(t1)
    80003d86:	02f33027          	fsd	fa5,32(t1)
    80003d8a:	0f95                	addi	t6,t6,5
    80003d8c:	02888893          	addi	a7,a7,40
    80003d90:	02880813          	addi	a6,a6,40
    80003d94:	02850513          	addi	a0,a0,40
    80003d98:	02830313          	addi	t1,t1,40
    80003d9c:	028f0f13          	addi	t5,t5,40
    80003da0:	b76fede3          	bltu	t6,s6,8000391a <mm_cb+0x17ca>
    80003da4:	e8843703          	ld	a4,-376(s0)
    80003da8:	ee043783          	ld	a5,-288(s0)
    80003dac:	ea843303          	ld	t1,-344(s0)
    80003db0:	f2843803          	ld	a6,-216(s0)
    80003db4:	00f708b3          	add	a7,a4,a5
    80003db8:	6018                	ld	a4,0(s0)
    80003dba:	e5843783          	ld	a5,-424(s0)
    80003dbe:	e8043583          	ld	a1,-384(s0)
    80003dc2:	e03a                	sd	a4,0(sp)
    80003dc4:	f2043703          	ld	a4,-224(s0)
    80003dc8:	86d6                	mv	a3,s5
    80003dca:	8616                	mv	a2,t0
    80003dcc:	0311                	addi	t1,t1,4
    80003dce:	4511                	li	a0,4
    80003dd0:	e2743423          	sd	t2,-472(s0)
    80003dd4:	e2543c23          	sd	t0,-456(s0)
    80003dd8:	ea643423          	sd	t1,-344(s0)
    80003ddc:	a24fe0ef          	jal	ra,80002000 <mm_naive>
    80003de0:	e4043783          	ld	a5,-448(s0)
    80003de4:	e4843703          	ld	a4,-440(s0)
    80003de8:	e3843283          	ld	t0,-456(s0)
    80003dec:	9abe                	add	s5,s5,a5
    80003dee:	94be                	add	s1,s1,a5
    80003df0:	993e                	add	s2,s2,a5
    80003df2:	ee043783          	ld	a5,-288(s0)
    80003df6:	e2843383          	ld	t2,-472(s0)
    80003dfa:	973e                	add	a4,a4,a5
    80003dfc:	eee43023          	sd	a4,-288(s0)
    80003e00:	ea843783          	ld	a5,-344(s0)
    80003e04:	e9043703          	ld	a4,-368(s0)
    80003e08:	aee7eae3          	bltu	a5,a4,800038fc <mm_cb+0x17ac>
    80003e0c:	e7043703          	ld	a4,-400(s0)
    80003e10:	e9843483          	ld	s1,-360(s0)
    80003e14:	ee843a83          	ld	s5,-280(s0)
    80003e18:	eb043303          	ld	t1,-336(s0)
    80003e1c:	009706b3          	add	a3,a4,s1
    80003e20:	6018                	ld	a4,0(s0)
    80003e22:	e6043883          	ld	a7,-416(s0)
    80003e26:	f2843803          	ld	a6,-216(s0)
    80003e2a:	e03a                	sd	a4,0(sp)
    80003e2c:	ec843583          	ld	a1,-312(s0)
    80003e30:	f2043703          	ld	a4,-224(s0)
    80003e34:	e7843503          	ld	a0,-392(s0)
    80003e38:	87d6                	mv	a5,s5
    80003e3a:	01830913          	addi	s2,t1,24
    80003e3e:	8616                	mv	a2,t0
    80003e40:	eb243823          	sd	s2,-336(s0)
    80003e44:	9bcfe0ef          	jal	ra,80002000 <mm_naive>
    80003e48:	e3043783          	ld	a5,-464(s0)
    80003e4c:	97d6                	add	a5,a5,s5
    80003e4e:	eef43423          	sd	a5,-280(s0)
    80003e52:	0c048793          	addi	a5,s1,192
    80003e56:	e8f43c23          	sd	a5,-360(s0)
    80003e5a:	f1843783          	ld	a5,-232(s0)
    80003e5e:	a4f964e3          	bltu	s2,a5,800038a6 <mm_cb+0x1756>
    80003e62:	83d2                	mv	t2,s4
    80003e64:	82ce                	mv	t0,s3
    80003e66:	f0843703          	ld	a4,-248(s0)
    80003e6a:	ec043783          	ld	a5,-320(s0)
    80003e6e:	0c870713          	addi	a4,a4,200
    80003e72:	f0e43423          	sd	a4,-248(s0)
    80003e76:	ea043703          	ld	a4,-352(s0)
    80003e7a:	07e5                	addi	a5,a5,25
    80003e7c:	ecf43023          	sd	a5,-320(s0)
    80003e80:	0c870713          	addi	a4,a4,200
    80003e84:	eae43023          	sd	a4,-352(s0)
    80003e88:	ed843703          	ld	a4,-296(s0)
    80003e8c:	9ae7e7e3          	bltu	a5,a4,8000383a <mm_cb+0x16ea>
    80003e90:	601c                	ld	a5,0(s0)
    80003e92:	0786                	slli	a5,a5,0x1
    80003e94:	e2f43423          	sd	a5,-472(s0)
    80003e98:	601c                	ld	a5,0(s0)
    80003e9a:	078e                	slli	a5,a5,0x3
    80003e9c:	eef43823          	sd	a5,-272(s0)
    80003ea0:	f1043783          	ld	a5,-240(s0)
    80003ea4:	fc079063          	bnez	a5,80003664 <mm_cb+0x1514>
    80003ea8:	b885                	j	80003718 <mm_cb+0x15c8>
    80003eaa:	f2843783          	ld	a5,-216(s0)
    80003eae:	00179593          	slli	a1,a5,0x1
    80003eb2:	00379d13          	slli	s10,a5,0x3
    80003eb6:	d26fe06f          	j	800023dc <mm_cb+0x28c>

0000000080003eba <mm>:
    80003eba:	7149                	addi	sp,sp,-368
    80003ebc:	7356                	ld	t1,368(sp)
    80003ebe:	f2a2                	sd	s0,352(sp)
    80003ec0:	e12a                	sd	a0,128(sp)
    80003ec2:	f686                	sd	ra,360(sp)
    80003ec4:	eea6                	sd	s1,344(sp)
    80003ec6:	eaca                	sd	s2,336(sp)
    80003ec8:	e6ce                	sd	s3,328(sp)
    80003eca:	e2d2                	sd	s4,320(sp)
    80003ecc:	fe56                	sd	s5,312(sp)
    80003ece:	fa5a                	sd	s6,304(sp)
    80003ed0:	f65e                	sd	s7,296(sp)
    80003ed2:	f262                	sd	s8,288(sp)
    80003ed4:	ee66                	sd	s9,280(sp)
    80003ed6:	ea6a                	sd	s10,272(sp)
    80003ed8:	e66e                	sd	s11,264(sp)
    80003eda:	bda2                	fsd	fs0,248(sp)
    80003edc:	b9a6                	fsd	fs1,240(sp)
    80003ede:	b5ca                	fsd	fs2,232(sp)
    80003ee0:	b1ce                	fsd	fs3,224(sp)
    80003ee2:	add2                	fsd	fs4,216(sp)
    80003ee4:	a9d6                	fsd	fs5,208(sp)
    80003ee6:	a5da                	fsd	fs6,200(sp)
    80003ee8:	a1de                	fsd	fs7,192(sp)
    80003eea:	bd62                	fsd	fs8,184(sp)
    80003eec:	b966                	fsd	fs9,176(sp)
    80003eee:	b56a                	fsd	fs10,168(sp)
    80003ef0:	b16e                	fsd	fs11,160(sp)
    80003ef2:	e09a                	sd	t1,64(sp)
    80003ef4:	e52e                	sd	a1,136(sp)
    80003ef6:	f432                	sd	a2,40(sp)
    80003ef8:	e936                	sd	a3,144(sp)
    80003efa:	f83a                	sd	a4,48(sp)
    80003efc:	e4be                	sd	a5,72(sp)
    80003efe:	842a                	mv	s0,a0
    80003f00:	fc42                	sd	a6,56(sp)
    80003f02:	03000513          	li	a0,48
    80003f06:	ed46                	sd	a7,152(sp)
    80003f08:	56856563          	bltu	a0,s0,80004472 <mm+0x5b8>
    80003f0c:	8e3e                	mv	t3,a5
    80003f0e:	03200793          	li	a5,50
    80003f12:	56b7e063          	bltu	a5,a1,80004472 <mm+0x5b8>
    80003f16:	84b2                	mv	s1,a2
    80003f18:	54c56d63          	bltu	a0,a2,80004472 <mm+0x5b8>
    80003f1c:	4795                	li	a5,5
    80003f1e:	02f5dd33          	divu	s10,a1,a5
    80003f22:	ffc47e93          	andi	t4,s0,-4
    80003f26:	00331513          	slli	a0,t1,0x3
    80003f2a:	f8aa                	sd	a0,112(sp)
    80003f2c:	00371413          	slli	s0,a4,0x3
    80003f30:	853a                	mv	a0,a4
    80003f32:	e8f6                	sd	t4,80(sp)
    80003f34:	002d1713          	slli	a4,s10,0x2
    80003f38:	9d3a                	add	s10,s10,a4
    80003f3a:	4c0e8d63          	beqz	t4,80004414 <mm+0x55a>
    80003f3e:	4d99                	li	s11,6
    80003f40:	03b4ddb3          	divu	s11,s1,s11
    80003f44:	00181a13          	slli	s4,a6,0x1
    80003f48:	9a42                	add	s4,s4,a6
    80003f4a:	004a1a93          	slli	s5,s4,0x4
    80003f4e:	003d1713          	slli	a4,s10,0x3
    80003f52:	00281c13          	slli	s8,a6,0x2
    80003f56:	fcba                	sd	a4,120(sp)
    80003f58:	9772                	add	a4,a4,t3
    80003f5a:	00349993          	slli	s3,s1,0x3
    80003f5e:	9c42                	add	s8,s8,a6
    80003f60:	f0ba                	sd	a4,96(sp)
    80003f62:	00531713          	slli	a4,t1,0x5
    80003f66:	00381493          	slli	s1,a6,0x3
    80003f6a:	00481b13          	slli	s6,a6,0x4
    80003f6e:	0a0e                	slli	s4,s4,0x3
    80003f70:	00581b93          	slli	s7,a6,0x5
    80003f74:	0c0e                	slli	s8,s8,0x3
    80003f76:	00551293          	slli	t0,a0,0x5
    80003f7a:	8cb6                	mv	s9,a3
    80003f7c:	99b6                	add	s3,s3,a3
    80003f7e:	f4ba                	sd	a4,104(sp)
    80003f80:	8fc6                	mv	t6,a7
    80003f82:	4381                	li	t2,0
    80003f84:	02f5f7b3          	remu	a5,a1,a5
    80003f88:	001d9913          	slli	s2,s11,0x1
    80003f8c:	996e                	add	s2,s2,s11
    80003f8e:	0912                	slli	s2,s2,0x4
    80003f90:	9936                	add	s2,s2,a3
    80003f92:	03ba8db3          	mul	s11,s5,s11
    80003f96:	ecbe                	sd	a5,88(sp)
    80003f98:	440d0163          	beqz	s10,800043da <mm+0x520>
    80003f9c:	77c6                	ld	a5,112(sp)
    80003f9e:	6ea6                	ld	t4,72(sp)
    80003fa0:	88fe                	mv	a7,t6
    80003fa2:	00ff8833          	add	a6,t6,a5
    80003fa6:	00f80533          	add	a0,a6,a5
    80003faa:	00f50333          	add	t1,a0,a5
    80003fae:	4f01                	li	t5,0
    80003fb0:	0008be07          	fld	ft8,0(a7)
    80003fb4:	0088ba87          	fld	fs5,8(a7)
    80003fb8:	0108ba07          	fld	fs4,16(a7)
    80003fbc:	0188b987          	fld	fs3,24(a7)
    80003fc0:	0208b007          	fld	ft0,32(a7)
    80003fc4:	00083907          	fld	fs2,0(a6)
    80003fc8:	00883487          	fld	fs1,8(a6)
    80003fcc:	01083407          	fld	fs0,16(a6)
    80003fd0:	01883f87          	fld	ft11,24(a6)
    80003fd4:	02083587          	fld	fa1,32(a6)
    80003fd8:	00053207          	fld	ft4,0(a0)
    80003fdc:	00853f07          	fld	ft10,8(a0)
    80003fe0:	01053e87          	fld	ft9,16(a0)
    80003fe4:	01853287          	fld	ft5,24(a0)
    80003fe8:	3118                	fld	fa4,32(a0)
    80003fea:	00033507          	fld	fa0,0(t1)
    80003fee:	00833107          	fld	ft2,8(t1)
    80003ff2:	01033087          	fld	ft1,16(t1)
    80003ff6:	01833607          	fld	fa2,24(t1)
    80003ffa:	02033787          	fld	fa5,32(t1)
    80003ffe:	87f6                	mv	a5,t4
    80004000:	2f2cf163          	bgeu	s9,s2,800042e2 <mm+0x428>
    80004004:	008c8633          	add	a2,s9,s0
    80004008:	22c603d3          	fmv.d	ft7,fa2
    8000400c:	008606b3          	add	a3,a2,s0
    80004010:	008685b3          	add	a1,a3,s0
    80004014:	8766                	mv	a4,s9
    80004016:	00073c07          	fld	fs8,0(a4)
    8000401a:	2214                	fld	fa3,0(a2)
    8000401c:	0006bb87          	fld	fs7,0(a3)
    80004020:	0005b307          	fld	ft6,0(a1)
    80004024:	0007bb07          	fld	fs6,0(a5)
    80004028:	0087b887          	fld	fa7,8(a5)
    8000402c:	0107b187          	fld	ft3,16(a5)
    80004030:	2f90                	fld	fa2,24(a5)
    80004032:	0207b807          	fld	fa6,32(a5)
    80004036:	e36c7e43          	fmadd.d	ft8,fs8,fs6,ft8
    8000403a:	ab1c7ac3          	fmadd.d	fs5,fs8,fa7,fs5
    8000403e:	a23c7a43          	fmadd.d	fs4,fs8,ft3,fs4
    80004042:	9acc79c3          	fmadd.d	fs3,fs8,fa2,fs3
    80004046:	030c7043          	fmadd.d	ft0,fs8,fa6,ft0
    8000404a:	9366f943          	fmadd.d	fs2,fa3,fs6,fs2
    8000404e:	4b16f4c3          	fmadd.d	fs1,fa3,fa7,fs1
    80004052:	4236f443          	fmadd.d	fs0,fa3,ft3,fs0
    80004056:	fac6ffc3          	fmadd.d	ft11,fa3,fa2,ft11
    8000405a:	5b06f5c3          	fmadd.d	fa1,fa3,fa6,fa1
    8000405e:	236bf243          	fmadd.d	ft4,fs7,fs6,ft4
    80004062:	f31bff43          	fmadd.d	ft10,fs7,fa7,ft10
    80004066:	ea3bfec3          	fmadd.d	ft9,fs7,ft3,ft9
    8000406a:	2acbf2c3          	fmadd.d	ft5,fs7,fa2,ft5
    8000406e:	730bf743          	fmadd.d	fa4,fs7,fa6,fa4
    80004072:	53637543          	fmadd.d	fa0,ft6,fs6,fa0
    80004076:	13137143          	fmadd.d	ft2,ft6,fa7,ft2
    8000407a:	0a3370c3          	fmadd.d	ft1,ft6,ft3,ft1
    8000407e:	3ac373c3          	fmadd.d	ft7,ft6,fa2,ft7
    80004082:	7b037343          	fmadd.d	ft6,ft6,fa6,fa5
    80004086:	00f48e33          	add	t3,s1,a5
    8000408a:	00873c07          	fld	fs8,8(a4)
    8000408e:	2614                	fld	fa3,8(a2)
    80004090:	2690                	fld	fa2,8(a3)
    80004092:	259c                	fld	fa5,8(a1)
    80004094:	000e3b87          	fld	fs7,0(t3)
    80004098:	008e3b07          	fld	fs6,8(t3)
    8000409c:	010e3887          	fld	fa7,16(t3)
    800040a0:	018e3807          	fld	fa6,24(t3)
    800040a4:	020e3187          	fld	ft3,32(t3)
    800040a8:	e37c7e43          	fmadd.d	ft8,fs8,fs7,ft8
    800040ac:	ab6c7ac3          	fmadd.d	fs5,fs8,fs6,fs5
    800040b0:	a31c7a43          	fmadd.d	fs4,fs8,fa7,fs4
    800040b4:	9b0c79c3          	fmadd.d	fs3,fs8,fa6,fs3
    800040b8:	023c7043          	fmadd.d	ft0,fs8,ft3,ft0
    800040bc:	9376f943          	fmadd.d	fs2,fa3,fs7,fs2
    800040c0:	4b66f4c3          	fmadd.d	fs1,fa3,fs6,fs1
    800040c4:	4316f443          	fmadd.d	fs0,fa3,fa7,fs0
    800040c8:	fb06ffc3          	fmadd.d	ft11,fa3,fa6,ft11
    800040cc:	5a36f5c3          	fmadd.d	fa1,fa3,ft3,fa1
    800040d0:	23767243          	fmadd.d	ft4,fa2,fs7,ft4
    800040d4:	f3667f43          	fmadd.d	ft10,fa2,fs6,ft10
    800040d8:	eb167ec3          	fmadd.d	ft9,fa2,fa7,ft9
    800040dc:	2b0672c3          	fmadd.d	ft5,fa2,fa6,ft5
    800040e0:	72367743          	fmadd.d	fa4,fa2,ft3,fa4
    800040e4:	5377f543          	fmadd.d	fa0,fa5,fs7,fa0
    800040e8:	1367f143          	fmadd.d	ft2,fa5,fs6,ft2
    800040ec:	0b17f0c3          	fmadd.d	ft1,fa5,fa7,ft1
    800040f0:	3b07f3c3          	fmadd.d	ft7,fa5,fa6,ft7
    800040f4:	3237f7c3          	fmadd.d	fa5,fa5,ft3,ft6
    800040f8:	00fb0e33          	add	t3,s6,a5
    800040fc:	01073c07          	fld	fs8,16(a4)
    80004100:	2a14                	fld	fa3,16(a2)
    80004102:	2a90                	fld	fa2,16(a3)
    80004104:	0105b307          	fld	ft6,16(a1)
    80004108:	000e3b87          	fld	fs7,0(t3)
    8000410c:	008e3b07          	fld	fs6,8(t3)
    80004110:	010e3887          	fld	fa7,16(t3)
    80004114:	018e3807          	fld	fa6,24(t3)
    80004118:	020e3187          	fld	ft3,32(t3)
    8000411c:	e37c7e43          	fmadd.d	ft8,fs8,fs7,ft8
    80004120:	ab6c7ac3          	fmadd.d	fs5,fs8,fs6,fs5
    80004124:	72367743          	fmadd.d	fa4,fa2,ft3,fa4
    80004128:	a31c7a43          	fmadd.d	fs4,fs8,fa7,fs4
    8000412c:	9b0c79c3          	fmadd.d	fs3,fs8,fa6,fs3
    80004130:	023c7043          	fmadd.d	ft0,fs8,ft3,ft0
    80004134:	9376f943          	fmadd.d	fs2,fa3,fs7,fs2
    80004138:	4b66f4c3          	fmadd.d	fs1,fa3,fs6,fs1
    8000413c:	4316f443          	fmadd.d	fs0,fa3,fa7,fs0
    80004140:	fb06ffc3          	fmadd.d	ft11,fa3,fa6,ft11
    80004144:	5a36f5c3          	fmadd.d	fa1,fa3,ft3,fa1
    80004148:	23767243          	fmadd.d	ft4,fa2,fs7,ft4
    8000414c:	f3667f43          	fmadd.d	ft10,fa2,fs6,ft10
    80004150:	eb167ec3          	fmadd.d	ft9,fa2,fa7,ft9
    80004154:	2b0672c3          	fmadd.d	ft5,fa2,fa6,ft5
    80004158:	53737543          	fmadd.d	fa0,ft6,fs7,fa0
    8000415c:	13637143          	fmadd.d	ft2,ft6,fs6,ft2
    80004160:	0b1370c3          	fmadd.d	ft1,ft6,fa7,ft1
    80004164:	3b0373c3          	fmadd.d	ft7,ft6,fa6,ft7
    80004168:	7a3377c3          	fmadd.d	fa5,ft6,ft3,fa5
    8000416c:	01478e33          	add	t3,a5,s4
    80004170:	01873c07          	fld	fs8,24(a4)
    80004174:	000e3b07          	fld	fs6,0(t3)
    80004178:	008e3887          	fld	fa7,8(t3)
    8000417c:	018e3187          	fld	ft3,24(t3)
    80004180:	010e3807          	fld	fa6,16(t3)
    80004184:	020e3307          	fld	ft6,32(t3)
    80004188:	2e14                	fld	fa3,24(a2)
    8000418a:	0185bb87          	fld	fs7,24(a1)
    8000418e:	2e90                	fld	fa2,24(a3)
    80004190:	5a66f5c3          	fmadd.d	fa1,fa3,ft6,fa1
    80004194:	536bf543          	fmadd.d	fa0,fs7,fs6,fa0
    80004198:	131bf143          	fmadd.d	ft2,fs7,fa7,ft2
    8000419c:	7a6bf7c3          	fmadd.d	fa5,fs7,ft6,fa5
    800041a0:	e36c7e43          	fmadd.d	ft8,fs8,fs6,ft8
    800041a4:	ab1c7ac3          	fmadd.d	fs5,fs8,fa7,fs5
    800041a8:	9a3c79c3          	fmadd.d	fs3,fs8,ft3,fs3
    800041ac:	026c7043          	fmadd.d	ft0,fs8,ft6,ft0
    800041b0:	9366f943          	fmadd.d	fs2,fa3,fs6,fs2
    800041b4:	4b16f4c3          	fmadd.d	fs1,fa3,fa7,fs1
    800041b8:	fa36ffc3          	fmadd.d	ft11,fa3,ft3,ft11
    800041bc:	23667243          	fmadd.d	ft4,fa2,fs6,ft4
    800041c0:	f3167f43          	fmadd.d	ft10,fa2,fa7,ft10
    800041c4:	2a3672c3          	fmadd.d	ft5,fa2,ft3,ft5
    800041c8:	0b0bf0c3          	fmadd.d	ft1,fs7,fa6,ft1
    800041cc:	3a3bf3c3          	fmadd.d	ft7,fs7,ft3,ft7
    800041d0:	a30c7a43          	fmadd.d	fs4,fs8,fa6,fs4
    800041d4:	4306f443          	fmadd.d	fs0,fa3,fa6,fs0
    800041d8:	eb067ec3          	fmadd.d	ft9,fa2,fa6,ft9
    800041dc:	72667643          	fmadd.d	fa2,fa2,ft6,fa4
    800041e0:	00fb8e33          	add	t3,s7,a5
    800041e4:	02073187          	fld	ft3,32(a4)
    800041e8:	3214                	fld	fa3,32(a2)
    800041ea:	0206bd87          	fld	fs11,32(a3)
    800041ee:	0205bd07          	fld	fs10,32(a1)
    800041f2:	000e3b07          	fld	fs6,0(t3)
    800041f6:	008e3887          	fld	fa7,8(t3)
    800041fa:	010e3c87          	fld	fs9,16(t3)
    800041fe:	018e3c07          	fld	fs8,24(t3)
    80004202:	020e3307          	fld	ft6,32(t3)
    80004206:	e361fe43          	fmadd.d	ft8,ft3,fs6,ft8
    8000420a:	ab11fac3          	fmadd.d	fs5,ft3,fa7,fs5
    8000420e:	a391fa43          	fmadd.d	fs4,ft3,fs9,fs4
    80004212:	0261f043          	fmadd.d	ft0,ft3,ft6,ft0
    80004216:	9366f943          	fmadd.d	fs2,fa3,fs6,fs2
    8000421a:	4b16f4c3          	fmadd.d	fs1,fa3,fa7,fs1
    8000421e:	4396f443          	fmadd.d	fs0,fa3,fs9,fs0
    80004222:	236df243          	fmadd.d	ft4,fs11,fs6,ft4
    80004226:	f31dff43          	fmadd.d	ft10,fs11,fa7,ft10
    8000422a:	eb9dfec3          	fmadd.d	ft9,fs11,fs9,ft9
    8000422e:	9b81f9c3          	fmadd.d	fs3,ft3,fs8,fs3
    80004232:	fb86ffc3          	fmadd.d	ft11,fa3,fs8,ft11
    80004236:	2b8df2c3          	fmadd.d	ft5,fs11,fs8,ft5
    8000423a:	5a66f6c3          	fmadd.d	fa3,fa3,ft6,fa1
    8000423e:	626dfdc3          	fmadd.d	fs11,fs11,ft6,fa2
    80004242:	536d7b43          	fmadd.d	fs6,fs10,fs6,fa0
    80004246:	131d78c3          	fmadd.d	fa7,fs10,fa7,ft2
    8000424a:	0b9d7cc3          	fmadd.d	fs9,fs10,fs9,ft1
    8000424e:	7a6d7343          	fmadd.d	ft6,fs10,ft6,fa5
    80004252:	3b8d73c3          	fmadd.d	ft7,fs10,fs8,ft7
    80004256:	01878e33          	add	t3,a5,s8
    8000425a:	02873b87          	fld	fs7,40(a4)
    8000425e:	360c                	fld	fa1,40(a2)
    80004260:	3698                	fld	fa4,40(a3)
    80004262:	359c                	fld	fa5,40(a1)
    80004264:	000e3507          	fld	fa0,0(t3)
    80004268:	008e3107          	fld	ft2,8(t3)
    8000426c:	010e3087          	fld	ft1,16(t3)
    80004270:	018e3607          	fld	fa2,24(t3)
    80004274:	020e3187          	fld	ft3,32(t3)
    80004278:	03070713          	addi	a4,a4,48
    8000427c:	92a5f943          	fmadd.d	fs2,fa1,fa0,fs2
    80004280:	4a25f4c3          	fmadd.d	fs1,fa1,ft2,fs1
    80004284:	4215f443          	fmadd.d	fs0,fa1,ft1,fs0
    80004288:	22a77243          	fmadd.d	ft4,fa4,fa0,ft4
    8000428c:	f2277f43          	fmadd.d	ft10,fa4,ft2,ft10
    80004290:	ea177ec3          	fmadd.d	ft9,fa4,ft1,ft9
    80004294:	e2abfe43          	fmadd.d	ft8,fs7,fa0,ft8
    80004298:	aa2bfac3          	fmadd.d	fs5,fs7,ft2,fs5
    8000429c:	a21bfa43          	fmadd.d	fs4,fs7,ft1,fs4
    800042a0:	fac5ffc3          	fmadd.d	ft11,fa1,fa2,ft11
    800042a4:	2ac772c3          	fmadd.d	ft5,fa4,fa2,ft5
    800042a8:	b2a7f543          	fmadd.d	fa0,fa5,fa0,fs6
    800042ac:	8a27f143          	fmadd.d	ft2,fa5,ft2,fa7
    800042b0:	ca17f0c3          	fmadd.d	ft1,fa5,ft1,fs9
    800042b4:	3ac7f3c3          	fmadd.d	ft7,fa5,fa2,ft7
    800042b8:	9acbf9c3          	fmadd.d	fs3,fs7,fa2,fs3
    800042bc:	023bf043          	fmadd.d	ft0,fs7,ft3,ft0
    800042c0:	6a35f5c3          	fmadd.d	fa1,fa1,ft3,fa3
    800042c4:	da377743          	fmadd.d	fa4,fa4,ft3,fs11
    800042c8:	3237f7c3          	fmadd.d	fa5,fa5,ft3,ft6
    800042cc:	97d6                	add	a5,a5,s5
    800042ce:	03060613          	addi	a2,a2,48
    800042d2:	03068693          	addi	a3,a3,48
    800042d6:	03058593          	addi	a1,a1,48
    800042da:	d3276ee3          	bltu	a4,s2,80004016 <mm+0x15c>
    800042de:	22738653          	fmv.d	fa2,ft7
    800042e2:	01dd87b3          	add	a5,s11,t4
    800042e6:	09397663          	bgeu	s2,s3,80004372 <mm+0x4b8>
    800042ea:	874a                	mv	a4,s2
    800042ec:	008705b3          	add	a1,a4,s0
    800042f0:	00858633          	add	a2,a1,s0
    800042f4:	008606b3          	add	a3,a2,s0
    800042f8:	00073387          	fld	ft7,0(a4)
    800042fc:	0007bc07          	fld	fs8,0(a5)
    80004300:	0087bb87          	fld	fs7,8(a5)
    80004304:	0107bb07          	fld	fs6,16(a5)
    80004308:	0187b887          	fld	fa7,24(a5)
    8000430c:	0207b807          	fld	fa6,32(a5)
    80004310:	0005b307          	fld	ft6,0(a1)
    80004314:	00063187          	fld	ft3,0(a2)
    80004318:	2294                	fld	fa3,0(a3)
    8000431a:	0721                	addi	a4,a4,8
    8000431c:	e383fe43          	fmadd.d	ft8,ft7,fs8,ft8
    80004320:	ab73fac3          	fmadd.d	fs5,ft7,fs7,fs5
    80004324:	a363fa43          	fmadd.d	fs4,ft7,fs6,fs4
    80004328:	9b13f9c3          	fmadd.d	fs3,ft7,fa7,fs3
    8000432c:	0303f043          	fmadd.d	ft0,ft7,fa6,ft0
    80004330:	93837943          	fmadd.d	fs2,ft6,fs8,fs2
    80004334:	4b7374c3          	fmadd.d	fs1,ft6,fs7,fs1
    80004338:	43637443          	fmadd.d	fs0,ft6,fs6,fs0
    8000433c:	fb137fc3          	fmadd.d	ft11,ft6,fa7,ft11
    80004340:	5b0375c3          	fmadd.d	fa1,ft6,fa6,fa1
    80004344:	2381f243          	fmadd.d	ft4,ft3,fs8,ft4
    80004348:	f371ff43          	fmadd.d	ft10,ft3,fs7,ft10
    8000434c:	eb61fec3          	fmadd.d	ft9,ft3,fs6,ft9
    80004350:	2b11f2c3          	fmadd.d	ft5,ft3,fa7,ft5
    80004354:	7301f743          	fmadd.d	fa4,ft3,fa6,fa4
    80004358:	5386f543          	fmadd.d	fa0,fa3,fs8,fa0
    8000435c:	1376f143          	fmadd.d	ft2,fa3,fs7,ft2
    80004360:	0b66f0c3          	fmadd.d	ft1,fa3,fs6,ft1
    80004364:	6316f643          	fmadd.d	fa2,fa3,fa7,fa2
    80004368:	7b06f7c3          	fmadd.d	fa5,fa3,fa6,fa5
    8000436c:	97a6                	add	a5,a5,s1
    8000436e:	f7376fe3          	bltu	a4,s3,800042ec <mm+0x432>
    80004372:	01c8b027          	fsd	ft8,0(a7)
    80004376:	0158b427          	fsd	fs5,8(a7)
    8000437a:	0148b827          	fsd	fs4,16(a7)
    8000437e:	0138bc27          	fsd	fs3,24(a7)
    80004382:	0208b027          	fsd	ft0,32(a7)
    80004386:	01283027          	fsd	fs2,0(a6)
    8000438a:	00983427          	fsd	fs1,8(a6)
    8000438e:	00883827          	fsd	fs0,16(a6)
    80004392:	01f83c27          	fsd	ft11,24(a6)
    80004396:	02b83027          	fsd	fa1,32(a6)
    8000439a:	00453027          	fsd	ft4,0(a0)
    8000439e:	01e53427          	fsd	ft10,8(a0)
    800043a2:	01d53827          	fsd	ft9,16(a0)
    800043a6:	00553c27          	fsd	ft5,24(a0)
    800043aa:	b118                	fsd	fa4,32(a0)
    800043ac:	00a33027          	fsd	fa0,0(t1)
    800043b0:	00233427          	fsd	ft2,8(t1)
    800043b4:	00133827          	fsd	ft1,16(t1)
    800043b8:	00c33c27          	fsd	fa2,24(t1)
    800043bc:	02f33027          	fsd	fa5,32(t1)
    800043c0:	0f15                	addi	t5,t5,5
    800043c2:	02888893          	addi	a7,a7,40
    800043c6:	02880813          	addi	a6,a6,40
    800043ca:	02850513          	addi	a0,a0,40
    800043ce:	02830313          	addi	t1,t1,40
    800043d2:	028e8e93          	addi	t4,t4,40
    800043d6:	bdaf6de3          	bltu	t5,s10,80003fb0 <mm+0xf6>
    800043da:	77e6                	ld	a5,120(sp)
    800043dc:	7862                	ld	a6,56(sp)
    800043de:	7742                	ld	a4,48(sp)
    800043e0:	01f788b3          	add	a7,a5,t6
    800043e4:	6786                	ld	a5,64(sp)
    800043e6:	7622                	ld	a2,40(sp)
    800043e8:	65e6                	ld	a1,88(sp)
    800043ea:	e03e                	sd	a5,0(sp)
    800043ec:	7786                	ld	a5,96(sp)
    800043ee:	0391                	addi	t2,t2,4
    800043f0:	86e6                	mv	a3,s9
    800043f2:	4511                	li	a0,4
    800043f4:	f016                	sd	t0,32(sp)
    800043f6:	ec7e                	sd	t6,24(sp)
    800043f8:	e81e                	sd	t2,16(sp)
    800043fa:	c07fd0ef          	jal	ra,80002000 <mm_naive>
    800043fe:	77a6                	ld	a5,104(sp)
    80004400:	6fe2                	ld	t6,24(sp)
    80004402:	7282                	ld	t0,32(sp)
    80004404:	63c2                	ld	t2,16(sp)
    80004406:	9fbe                	add	t6,t6,a5
    80004408:	67c6                	ld	a5,80(sp)
    8000440a:	9c96                	add	s9,s9,t0
    8000440c:	9916                	add	s2,s2,t0
    8000440e:	9996                	add	s3,s3,t0
    80004410:	b8f3e4e3          	bltu	t2,a5,80003f98 <mm+0xde>
    80004414:	66c6                	ld	a3,80(sp)
    80004416:	77c6                	ld	a5,112(sp)
    80004418:	650a                	ld	a0,128(sp)
    8000441a:	7862                	ld	a6,56(sp)
    8000441c:	02f688b3          	mul	a7,a3,a5
    80004420:	8d15                	sub	a0,a0,a3
    80004422:	6786                	ld	a5,64(sp)
    80004424:	7742                	ld	a4,48(sp)
    80004426:	7622                	ld	a2,40(sp)
    80004428:	fabe                	sd	a5,368(sp)
    8000442a:	65aa                	ld	a1,136(sp)
    8000442c:	67a6                	ld	a5,72(sp)
    8000442e:	70b6                	ld	ra,360(sp)
    80004430:	64f6                	ld	s1,344(sp)
    80004432:	028686b3          	mul	a3,a3,s0
    80004436:	646a                	ld	s0,152(sp)
    80004438:	6956                	ld	s2,336(sp)
    8000443a:	69b6                	ld	s3,328(sp)
    8000443c:	98a2                	add	a7,a7,s0
    8000443e:	644a                	ld	s0,144(sp)
    80004440:	6a16                	ld	s4,320(sp)
    80004442:	7af2                	ld	s5,312(sp)
    80004444:	7b52                	ld	s6,304(sp)
    80004446:	7bb2                	ld	s7,296(sp)
    80004448:	96a2                	add	a3,a3,s0
    8000444a:	7416                	ld	s0,352(sp)
    8000444c:	7c12                	ld	s8,288(sp)
    8000444e:	6cf2                	ld	s9,280(sp)
    80004450:	6d52                	ld	s10,272(sp)
    80004452:	6db2                	ld	s11,264(sp)
    80004454:	346e                	fld	fs0,248(sp)
    80004456:	34ce                	fld	fs1,240(sp)
    80004458:	392e                	fld	fs2,232(sp)
    8000445a:	398e                	fld	fs3,224(sp)
    8000445c:	2a6e                	fld	fs4,216(sp)
    8000445e:	2ace                	fld	fs5,208(sp)
    80004460:	2b2e                	fld	fs6,200(sp)
    80004462:	2b8e                	fld	fs7,192(sp)
    80004464:	3c6a                	fld	fs8,184(sp)
    80004466:	3cca                	fld	fs9,176(sp)
    80004468:	3d2a                	fld	fs10,168(sp)
    8000446a:	3d8a                	fld	fs11,160(sp)
    8000446c:	6175                	addi	sp,sp,368
    8000446e:	b93fd06f          	j	80002000 <mm_naive>
    80004472:	6786                	ld	a5,64(sp)
    80004474:	7416                	ld	s0,352(sp)
    80004476:	68ea                	ld	a7,152(sp)
    80004478:	fabe                	sd	a5,368(sp)
    8000447a:	7862                	ld	a6,56(sp)
    8000447c:	67a6                	ld	a5,72(sp)
    8000447e:	7742                	ld	a4,48(sp)
    80004480:	66ca                	ld	a3,144(sp)
    80004482:	7622                	ld	a2,40(sp)
    80004484:	65aa                	ld	a1,136(sp)
    80004486:	650a                	ld	a0,128(sp)
    80004488:	70b6                	ld	ra,360(sp)
    8000448a:	64f6                	ld	s1,344(sp)
    8000448c:	6956                	ld	s2,336(sp)
    8000448e:	69b6                	ld	s3,328(sp)
    80004490:	6a16                	ld	s4,320(sp)
    80004492:	7af2                	ld	s5,312(sp)
    80004494:	7b52                	ld	s6,304(sp)
    80004496:	7bb2                	ld	s7,296(sp)
    80004498:	7c12                	ld	s8,288(sp)
    8000449a:	6cf2                	ld	s9,280(sp)
    8000449c:	6d52                	ld	s10,272(sp)
    8000449e:	6db2                	ld	s11,264(sp)
    800044a0:	346e                	fld	fs0,248(sp)
    800044a2:	34ce                	fld	fs1,240(sp)
    800044a4:	392e                	fld	fs2,232(sp)
    800044a6:	398e                	fld	fs3,224(sp)
    800044a8:	2a6e                	fld	fs4,216(sp)
    800044aa:	2ace                	fld	fs5,208(sp)
    800044ac:	2b2e                	fld	fs6,200(sp)
    800044ae:	2b8e                	fld	fs7,192(sp)
    800044b0:	3c6a                	fld	fs8,184(sp)
    800044b2:	3cca                	fld	fs9,176(sp)
    800044b4:	3d2a                	fld	fs10,168(sp)
    800044b6:	3d8a                	fld	fs11,160(sp)
    800044b8:	6175                	addi	sp,sp,368
    800044ba:	c97fd06f          	j	80002150 <mm_cb>

00000000800044be <barrier>:
    800044be:	0ff0000f          	fence
    800044c2:	00022703          	lw	a4,0(tp) # 0 <threadsense.2>
    800044c6:	a5018693          	addi	a3,gp,-1456 # 80005208 <count.1>
    800044ca:	4605                	li	a2,1
    800044cc:	00173713          	seqz	a4,a4
    800044d0:	00e22023          	sw	a4,0(tp) # 0 <threadsense.2>
    800044d4:	0f50000f          	fence	iorw,ow
    800044d8:	04c6a72f          	amoadd.w.aq	a4,a2,(a3)
    800044dc:	357d                	addiw	a0,a0,-1
    800044de:	2701                	sext.w	a4,a4
    800044e0:	00e50d63          	beq	a0,a4,800044fa <barrier+0x3c>
    800044e4:	00022683          	lw	a3,0(tp) # 0 <threadsense.2>
    800044e8:	a4c18713          	addi	a4,gp,-1460 # 80005204 <sense.0>
    800044ec:	431c                	lw	a5,0(a4)
    800044ee:	2781                	sext.w	a5,a5
    800044f0:	fed79ee3          	bne	a5,a3,800044ec <barrier+0x2e>
    800044f4:	0ff0000f          	fence
    800044f8:	8082                	ret
    800044fa:	00022783          	lw	a5,0(tp) # 0 <threadsense.2>
    800044fe:	a401a823          	sw	zero,-1456(gp) # 80005208 <count.1>
    80004502:	a4f1a623          	sw	a5,-1460(gp) # 80005204 <sense.0>
    80004506:	b7fd                	j	800044f4 <barrier+0x36>

0000000080004508 <thread_entry>:
    80004508:	7159                	addi	sp,sp,-112
    8000450a:	77fd                	lui	a5,0xfffff
    8000450c:	f0a2                	sd	s0,96(sp)
    8000450e:	eca6                	sd	s1,88(sp)
    80004510:	e8ca                	sd	s2,80(sp)
    80004512:	e4ce                	sd	s3,72(sp)
    80004514:	e0d2                	sd	s4,64(sp)
    80004516:	fc56                	sd	s5,56(sp)
    80004518:	f486                	sd	ra,104(sp)
    8000451a:	f85a                	sd	s6,48(sp)
    8000451c:	f45e                	sd	s7,40(sp)
    8000451e:	f062                	sd	s8,32(sp)
    80004520:	ec66                	sd	s9,24(sp)
    80004522:	e86a                	sd	s10,16(sp)
    80004524:	1880                	addi	s0,sp,112
    80004526:	e0078713          	addi	a4,a5,-512 # ffffffffffffee00 <__global_pointer$+0xffffffff7fff9648>
    8000452a:	d4078793          	addi	a5,a5,-704
    8000452e:	913a                	add	sp,sp,a4
    80004530:	01010913          	addi	s2,sp,16
    80004534:	913e                	add	sp,sp,a5
    80004536:	01010993          	addi	s3,sp,16
    8000453a:	6805                	lui	a6,0x1
    8000453c:	913e                	add	sp,sp,a5
    8000453e:	37ab77b7          	lui	a5,0x37ab7
    80004542:	8aae                	mv	s5,a1
    80004544:	2c080813          	addi	a6,a6,704 # 12c0 <buflen.1+0x1240>
    80004548:	078a                	slli	a5,a5,0x2
    8000454a:	4585                	li	a1,1
    8000454c:	8a2a                	mv	s4,a0
    8000454e:	0804                	addi	s1,sp,16
    80004550:	0c090513          	addi	a0,s2,192
    80004554:	984a                	add	a6,a6,s2
    80004556:	eef78793          	addi	a5,a5,-273 # 37ab6eef <buflen.1+0x37ab6e6f>
    8000455a:	15fa                	slli	a1,a1,0x3e
    8000455c:	f4050613          	addi	a2,a0,-192
    80004560:	0017d693          	srli	a3,a5,0x1
    80004564:	00f6c733          	xor	a4,a3,a5
    80004568:	177a                	slli	a4,a4,0x3e
    8000456a:	8f6d                	and	a4,a4,a1
    8000456c:	00d767b3          	or	a5,a4,a3
    80004570:	0017d693          	srli	a3,a5,0x1
    80004574:	00f6c733          	xor	a4,a3,a5
    80004578:	177a                	slli	a4,a4,0x3e
    8000457a:	8f6d                	and	a4,a4,a1
    8000457c:	d227f7d3          	fcvt.d.l	fa5,a5
    80004580:	00d767b3          	or	a5,a4,a3
    80004584:	0017d693          	srli	a3,a5,0x1
    80004588:	00f6c733          	xor	a4,a3,a5
    8000458c:	177a                	slli	a4,a4,0x3e
    8000458e:	8f6d                	and	a4,a4,a1
    80004590:	a21c                	fsd	fa5,0(a2)
    80004592:	d227f7d3          	fcvt.d.l	fa5,a5
    80004596:	00d767b3          	or	a5,a4,a3
    8000459a:	0017d693          	srli	a3,a5,0x1
    8000459e:	00f6c733          	xor	a4,a3,a5
    800045a2:	177a                	slli	a4,a4,0x3e
    800045a4:	8f6d                	and	a4,a4,a1
    800045a6:	a61c                	fsd	fa5,8(a2)
    800045a8:	d227f7d3          	fcvt.d.l	fa5,a5
    800045ac:	00d767b3          	or	a5,a4,a3
    800045b0:	0017d693          	srli	a3,a5,0x1
    800045b4:	00f6c733          	xor	a4,a3,a5
    800045b8:	177a                	slli	a4,a4,0x3e
    800045ba:	8f6d                	and	a4,a4,a1
    800045bc:	aa1c                	fsd	fa5,16(a2)
    800045be:	d227f7d3          	fcvt.d.l	fa5,a5
    800045c2:	00d767b3          	or	a5,a4,a3
    800045c6:	0017d693          	srli	a3,a5,0x1
    800045ca:	00f6c733          	xor	a4,a3,a5
    800045ce:	177a                	slli	a4,a4,0x3e
    800045d0:	8f6d                	and	a4,a4,a1
    800045d2:	ae1c                	fsd	fa5,24(a2)
    800045d4:	d227f7d3          	fcvt.d.l	fa5,a5
    800045d8:	00d767b3          	or	a5,a4,a3
    800045dc:	0017d693          	srli	a3,a5,0x1
    800045e0:	00f6c733          	xor	a4,a3,a5
    800045e4:	177a                	slli	a4,a4,0x3e
    800045e6:	8f6d                	and	a4,a4,a1
    800045e8:	b21c                	fsd	fa5,32(a2)
    800045ea:	d227f7d3          	fcvt.d.l	fa5,a5
    800045ee:	00d767b3          	or	a5,a4,a3
    800045f2:	0017d693          	srli	a3,a5,0x1
    800045f6:	00f6c733          	xor	a4,a3,a5
    800045fa:	b61c                	fsd	fa5,40(a2)
    800045fc:	177a                	slli	a4,a4,0x3e
    800045fe:	d227f7d3          	fcvt.d.l	fa5,a5
    80004602:	8f6d                	and	a4,a4,a1
    80004604:	00d767b3          	or	a5,a4,a3
    80004608:	ba1c                	fsd	fa5,48(a2)
    8000460a:	d227f7d3          	fcvt.d.l	fa5,a5
    8000460e:	00860713          	addi	a4,a2,8
    80004612:	04060613          	addi	a2,a2,64
    80004616:	bb1c                	fsd	fa5,48(a4)
    80004618:	f4c514e3          	bne	a0,a2,80004560 <thread_entry+0x58>
    8000461c:	0f870513          	addi	a0,a4,248
    80004620:	f2a81ee3          	bne	a6,a0,8000455c <thread_entry+0x54>
    80004624:	6805                	lui	a6,0x1
    80004626:	38880813          	addi	a6,a6,904 # 1388 <buflen.1+0x1308>
    8000462a:	4585                	li	a1,1
    8000462c:	0c898513          	addi	a0,s3,200
    80004630:	984e                	add	a6,a6,s3
    80004632:	15fa                	slli	a1,a1,0x3e
    80004634:	0017d693          	srli	a3,a5,0x1
    80004638:	00f6c733          	xor	a4,a3,a5
    8000463c:	177a                	slli	a4,a4,0x3e
    8000463e:	8f6d                	and	a4,a4,a1
    80004640:	00d767b3          	or	a5,a4,a3
    80004644:	d227f7d3          	fcvt.d.l	fa5,a5
    80004648:	f4050613          	addi	a2,a0,-192
    8000464c:	f2f53c27          	fsd	fa5,-200(a0)
    80004650:	0017d693          	srli	a3,a5,0x1
    80004654:	00f6c733          	xor	a4,a3,a5
    80004658:	177a                	slli	a4,a4,0x3e
    8000465a:	8f6d                	and	a4,a4,a1
    8000465c:	00d767b3          	or	a5,a4,a3
    80004660:	0017d693          	srli	a3,a5,0x1
    80004664:	00f6c733          	xor	a4,a3,a5
    80004668:	177a                	slli	a4,a4,0x3e
    8000466a:	8f6d                	and	a4,a4,a1
    8000466c:	d227f7d3          	fcvt.d.l	fa5,a5
    80004670:	00d767b3          	or	a5,a4,a3
    80004674:	0017d693          	srli	a3,a5,0x1
    80004678:	00f6c733          	xor	a4,a3,a5
    8000467c:	177a                	slli	a4,a4,0x3e
    8000467e:	8f6d                	and	a4,a4,a1
    80004680:	a21c                	fsd	fa5,0(a2)
    80004682:	d227f7d3          	fcvt.d.l	fa5,a5
    80004686:	00d767b3          	or	a5,a4,a3
    8000468a:	0017d693          	srli	a3,a5,0x1
    8000468e:	00f6c733          	xor	a4,a3,a5
    80004692:	177a                	slli	a4,a4,0x3e
    80004694:	8f6d                	and	a4,a4,a1
    80004696:	a61c                	fsd	fa5,8(a2)
    80004698:	d227f7d3          	fcvt.d.l	fa5,a5
    8000469c:	00d767b3          	or	a5,a4,a3
    800046a0:	0017d693          	srli	a3,a5,0x1
    800046a4:	00f6c733          	xor	a4,a3,a5
    800046a8:	177a                	slli	a4,a4,0x3e
    800046aa:	8f6d                	and	a4,a4,a1
    800046ac:	aa1c                	fsd	fa5,16(a2)
    800046ae:	d227f7d3          	fcvt.d.l	fa5,a5
    800046b2:	00d767b3          	or	a5,a4,a3
    800046b6:	0017d693          	srli	a3,a5,0x1
    800046ba:	00f6c733          	xor	a4,a3,a5
    800046be:	177a                	slli	a4,a4,0x3e
    800046c0:	8f6d                	and	a4,a4,a1
    800046c2:	ae1c                	fsd	fa5,24(a2)
    800046c4:	d227f7d3          	fcvt.d.l	fa5,a5
    800046c8:	00d767b3          	or	a5,a4,a3
    800046cc:	0017d693          	srli	a3,a5,0x1
    800046d0:	00f6c733          	xor	a4,a3,a5
    800046d4:	177a                	slli	a4,a4,0x3e
    800046d6:	8f6d                	and	a4,a4,a1
    800046d8:	b21c                	fsd	fa5,32(a2)
    800046da:	d227f7d3          	fcvt.d.l	fa5,a5
    800046de:	00d767b3          	or	a5,a4,a3
    800046e2:	0017d693          	srli	a3,a5,0x1
    800046e6:	00f6c733          	xor	a4,a3,a5
    800046ea:	b61c                	fsd	fa5,40(a2)
    800046ec:	177a                	slli	a4,a4,0x3e
    800046ee:	d227f7d3          	fcvt.d.l	fa5,a5
    800046f2:	8f6d                	and	a4,a4,a1
    800046f4:	00d767b3          	or	a5,a4,a3
    800046f8:	ba1c                	fsd	fa5,48(a2)
    800046fa:	d227f7d3          	fcvt.d.l	fa5,a5
    800046fe:	00860713          	addi	a4,a2,8
    80004702:	04060613          	addi	a2,a2,64
    80004706:	bb1c                	fsd	fa5,48(a4)
    80004708:	f4c514e3          	bne	a0,a2,80004650 <thread_entry+0x148>
    8000470c:	10070513          	addi	a0,a4,256
    80004710:	f2a812e3          	bne	a6,a0,80004634 <thread_entry+0x12c>
    80004714:	6605                	lui	a2,0x1
    80004716:	2c060613          	addi	a2,a2,704 # 12c0 <buflen.1+0x1240>
    8000471a:	4581                	li	a1,0
    8000471c:	8526                	mv	a0,s1
    8000471e:	6ac000ef          	jal	ra,80004dca <memset>
    80004722:	4b21                	li	s6,8
    80004724:	4d65                	li	s10,25
    80004726:	b0202bf3          	csrr	s7,minstret
    8000472a:	b0002cf3          	csrr	s9,mcycle
    8000472e:	4865                	li	a6,25
    80004730:	e06a                	sd	s10,0(sp)
    80004732:	88a6                	mv	a7,s1
    80004734:	87ce                	mv	a5,s3
    80004736:	4761                	li	a4,24
    80004738:	86ca                	mv	a3,s2
    8000473a:	4661                	li	a2,24
    8000473c:	45e5                	li	a1,25
    8000473e:	4561                	li	a0,24
    80004740:	f7aff0ef          	jal	ra,80003eba <mm>
    80004744:	b0202c73          	csrr	s8,minstret
    80004748:	b00027f3          	csrr	a5,mcycle
    8000474c:	3b7d                	addiw	s6,s6,-1
    8000474e:	fc0b1ce3          	bnez	s6,80004726 <thread_entry+0x21e>
    80004752:	41978cb3          	sub	s9,a5,s9
    80004756:	0ff0000f          	fence
    8000475a:	47e1                	li	a5,24
    8000475c:	48e1                	li	a7,24
    8000475e:	4865                	li	a6,25
    80004760:	4719                	li	a4,6
    80004762:	4695                	li	a3,5
    80004764:	4611                	li	a2,4
    80004766:	85d2                	mv	a1,s4
    80004768:	00001517          	auipc	a0,0x1
    8000476c:	86050513          	addi	a0,a0,-1952 # 80004fc8 <main+0x2e>
    80004770:	5a6000ef          	jal	ra,80004d16 <printf>
    80004774:	417c063b          	subw	a2,s8,s7
    80004778:	85d2                	mv	a1,s4
    8000477a:	00001517          	auipc	a0,0x1
    8000477e:	87e50513          	addi	a0,a0,-1922 # 80004ff8 <main+0x5e>
    80004782:	594000ef          	jal	ra,80004d16 <printf>
    80004786:	000c861b          	sext.w	a2,s9
    8000478a:	85d2                	mv	a1,s4
    8000478c:	00001517          	auipc	a0,0x1
    80004790:	88450513          	addi	a0,a0,-1916 # 80005010 <main+0x76>
    80004794:	582000ef          	jal	ra,80004d16 <printf>
    80004798:	661d                	lui	a2,0x7
    8000479a:	08060613          	addi	a2,a2,128 # 7080 <buflen.1+0x7000>
    8000479e:	85d2                	mv	a1,s4
    800047a0:	00001517          	auipc	a0,0x1
    800047a4:	88050513          	addi	a0,a0,-1920 # 80005020 <main+0x86>
    800047a8:	56e000ef          	jal	ra,80004d16 <printf>
    800047ac:	01b77637          	lui	a2,0x1b77
    800047b0:	40060613          	addi	a2,a2,1024 # 1b77400 <buflen.1+0x1b77380>
    800047b4:	03965633          	divu	a2,a2,s9
    800047b8:	85d2                	mv	a1,s4
    800047ba:	00001517          	auipc	a0,0x1
    800047be:	87650513          	addi	a0,a0,-1930 # 80005030 <main+0x96>
    800047c2:	554000ef          	jal	ra,80004d16 <printf>
    800047c6:	6f05                	lui	t5,0x1
    800047c8:	7e7d                	lui	t3,0xfffff
    800047ca:	4601                	li	a2,0
    800047cc:	00000797          	auipc	a5,0x0
    800047d0:	7ec7b507          	fld	fa0,2028(a5) # 80004fb8 <main+0x1e>
    800047d4:	00000797          	auipc	a5,0x0
    800047d8:	7ec7b587          	fld	fa1,2028(a5) # 80004fc0 <main+0x26>
    800047dc:	2c0f0f13          	addi	t5,t5,704 # 12c0 <buflen.1+0x1240>
    800047e0:	d40e0e13          	addi	t3,t3,-704 # ffffffffffffed40 <__global_pointer$+0xffffffff7fff9588>
    800047e4:	4ee5                	li	t4,25
    800047e6:	4fe1                	li	t6,24
    800047e8:	00161313          	slli	t1,a2,0x1
    800047ec:	9332                	add	t1,t1,a2
    800047ee:	031a                	slli	t1,t1,0x6
    800047f0:	01e98833          	add	a6,s3,t5
    800047f4:	934a                	add	t1,t1,s2
    800047f6:	88a6                	mv	a7,s1
    800047f8:	4681                	li	a3,0
    800047fa:	f20007d3          	fmv.d.x	fa5,zero
    800047fe:	01c805b3          	add	a1,a6,t3
    80004802:	851a                	mv	a0,t1
    80004804:	2114                	fld	fa3,0(a0)
    80004806:	2198                	fld	fa4,0(a1)
    80004808:	00850713          	addi	a4,a0,8
    8000480c:	0c858793          	addi	a5,a1,200
    80004810:	7ae6f7c3          	fmadd.d	fa5,fa3,fa4,fa5
    80004814:	2514                	fld	fa3,8(a0)
    80004816:	25f8                	fld	fa4,200(a1)
    80004818:	04050513          	addi	a0,a0,64
    8000481c:	7ae6f7c3          	fmadd.d	fa5,fa3,fa4,fa5
    80004820:	1905b707          	fld	fa4,400(a1)
    80004824:	fd053687          	fld	fa3,-48(a0)
    80004828:	57878593          	addi	a1,a5,1400
    8000482c:	7ae6f7c3          	fmadd.d	fa5,fa3,fa4,fa5
    80004830:	2b14                	fld	fa3,16(a4)
    80004832:	1907b707          	fld	fa4,400(a5)
    80004836:	7ae6f7c3          	fmadd.d	fa5,fa3,fa4,fa5
    8000483a:	2f14                	fld	fa3,24(a4)
    8000483c:	2587b707          	fld	fa4,600(a5)
    80004840:	7ae6f7c3          	fmadd.d	fa5,fa3,fa4,fa5
    80004844:	3314                	fld	fa3,32(a4)
    80004846:	3207b707          	fld	fa4,800(a5)
    8000484a:	7ae6f7c3          	fmadd.d	fa5,fa3,fa4,fa5
    8000484e:	3714                	fld	fa3,40(a4)
    80004850:	3e87b707          	fld	fa4,1000(a5)
    80004854:	7ae6f7c3          	fmadd.d	fa5,fa3,fa4,fa5
    80004858:	3b14                	fld	fa3,48(a4)
    8000485a:	4b07b707          	fld	fa4,1200(a5)
    8000485e:	7ae6f7c3          	fmadd.d	fa5,fa3,fa4,fa5
    80004862:	fab811e3          	bne	a6,a1,80004804 <thread_entry+0x2fc>
    80004866:	12a7f7d3          	fmul.d	fa5,fa5,fa0
    8000486a:	0008b607          	fld	fa2,0(a7)
    8000486e:	12b7f753          	fmul.d	fa4,fa5,fa1
    80004872:	0af676d3          	fsub.d	fa3,fa2,fa5
    80004876:	22e72753          	fabs.d	fa4,fa4
    8000487a:	22d6a6d3          	fabs.d	fa3,fa3
    8000487e:	a2d71753          	flt.d	a4,fa4,fa3
    80004882:	e315                	bnez	a4,800048a6 <thread_entry+0x39e>
    80004884:	0685                	addi	a3,a3,1
    80004886:	08a1                	addi	a7,a7,8
    80004888:	58078813          	addi	a6,a5,1408
    8000488c:	f7d697e3          	bne	a3,t4,800047fa <thread_entry+0x2f2>
    80004890:	0605                	addi	a2,a2,1
    80004892:	0c848493          	addi	s1,s1,200
    80004896:	f5f619e3          	bne	a2,t6,800047e8 <thread_entry+0x2e0>
    8000489a:	8556                	mv	a0,s5
    8000489c:	c23ff0ef          	jal	ra,800044be <barrier>
    800048a0:	4501                	li	a0,0
    800048a2:	3c0000ef          	jal	ra,80004c62 <exit>
    800048a6:	e20787d3          	fmv.x.d	a5,fa5
    800048aa:	e2060753          	fmv.x.d	a4,fa2
    800048ae:	85d2                	mv	a1,s4
    800048b0:	00000517          	auipc	a0,0x0
    800048b4:	79850513          	addi	a0,a0,1944 # 80005048 <main+0xae>
    800048b8:	45e000ef          	jal	ra,80004d16 <printf>
    800048bc:	4505                	li	a0,1
    800048be:	3a4000ef          	jal	ra,80004c62 <exit>

00000000800048c2 <vprintfmt>:
    800048c2:	710d                	addi	sp,sp,-352
    800048c4:	eaa2                	sd	s0,336(sp)
    800048c6:	e6a6                	sd	s1,328(sp)
    800048c8:	e2ca                	sd	s2,320(sp)
    800048ca:	f656                	sd	s5,296(sp)
    800048cc:	f25a                	sd	s6,288(sp)
    800048ce:	ee5e                	sd	s7,280(sp)
    800048d0:	ee86                	sd	ra,344(sp)
    800048d2:	fe4e                	sd	s3,312(sp)
    800048d4:	fa52                	sd	s4,304(sp)
    800048d6:	ea62                	sd	s8,272(sp)
    800048d8:	e666                	sd	s9,264(sp)
    800048da:	e26a                	sd	s10,256(sp)
    800048dc:	892a                	mv	s2,a0
    800048de:	84ae                	mv	s1,a1
    800048e0:	8432                	mv	s0,a2
    800048e2:	8b36                	mv	s6,a3
    800048e4:	02500a93          	li	s5,37
    800048e8:	8f418b93          	addi	s7,gp,-1804 # 800050ac <main+0x112>
    800048ec:	a029                	j	800048f6 <vprintfmt+0x34>
    800048ee:	c131                	beqz	a0,80004932 <vprintfmt+0x70>
    800048f0:	85a6                	mv	a1,s1
    800048f2:	0405                	addi	s0,s0,1
    800048f4:	9902                	jalr	s2
    800048f6:	00044503          	lbu	a0,0(s0)
    800048fa:	ff551ae3          	bne	a0,s5,800048ee <vprintfmt+0x2c>
    800048fe:	00144683          	lbu	a3,1(s0)
    80004902:	00140a13          	addi	s4,s0,1
    80004906:	8752                	mv	a4,s4
    80004908:	02000c93          	li	s9,32
    8000490c:	59fd                	li	s3,-1
    8000490e:	5d7d                	li	s10,-1
    80004910:	4501                	li	a0,0
    80004912:	05500613          	li	a2,85
    80004916:	45a5                	li	a1,9
    80004918:	fdd6879b          	addiw	a5,a3,-35
    8000491c:	0ff7f793          	andi	a5,a5,255
    80004920:	00170413          	addi	s0,a4,1
    80004924:	04f66163          	bltu	a2,a5,80004966 <vprintfmt+0xa4>
    80004928:	078a                	slli	a5,a5,0x2
    8000492a:	97de                	add	a5,a5,s7
    8000492c:	439c                	lw	a5,0(a5)
    8000492e:	97de                	add	a5,a5,s7
    80004930:	8782                	jr	a5
    80004932:	60f6                	ld	ra,344(sp)
    80004934:	6456                	ld	s0,336(sp)
    80004936:	64b6                	ld	s1,328(sp)
    80004938:	6916                	ld	s2,320(sp)
    8000493a:	79f2                	ld	s3,312(sp)
    8000493c:	7a52                	ld	s4,304(sp)
    8000493e:	7ab2                	ld	s5,296(sp)
    80004940:	7b12                	ld	s6,288(sp)
    80004942:	6bf2                	ld	s7,280(sp)
    80004944:	6c52                	ld	s8,272(sp)
    80004946:	6cb2                	ld	s9,264(sp)
    80004948:	6d12                	ld	s10,256(sp)
    8000494a:	6135                	addi	sp,sp,352
    8000494c:	8082                	ret
    8000494e:	8cb6                	mv	s9,a3
    80004950:	00174683          	lbu	a3,1(a4)
    80004954:	8722                	mv	a4,s0
    80004956:	00170413          	addi	s0,a4,1
    8000495a:	fdd6879b          	addiw	a5,a3,-35
    8000495e:	0ff7f793          	andi	a5,a5,255
    80004962:	fcf673e3          	bgeu	a2,a5,80004928 <vprintfmt+0x66>
    80004966:	85a6                	mv	a1,s1
    80004968:	02500513          	li	a0,37
    8000496c:	9902                	jalr	s2
    8000496e:	8452                	mv	s0,s4
    80004970:	b759                	j	800048f6 <vprintfmt+0x34>
    80004972:	fd06899b          	addiw	s3,a3,-48
    80004976:	00174683          	lbu	a3,1(a4)
    8000497a:	8722                	mv	a4,s0
    8000497c:	fd06879b          	addiw	a5,a3,-48
    80004980:	0006881b          	sext.w	a6,a3
    80004984:	02f5e563          	bltu	a1,a5,800049ae <vprintfmt+0xec>
    80004988:	00174683          	lbu	a3,1(a4)
    8000498c:	0029979b          	slliw	a5,s3,0x2
    80004990:	013789bb          	addw	s3,a5,s3
    80004994:	0019999b          	slliw	s3,s3,0x1
    80004998:	010989bb          	addw	s3,s3,a6
    8000499c:	fd06879b          	addiw	a5,a3,-48
    800049a0:	0705                	addi	a4,a4,1
    800049a2:	fd09899b          	addiw	s3,s3,-48
    800049a6:	0006881b          	sext.w	a6,a3
    800049aa:	fcf5ffe3          	bgeu	a1,a5,80004988 <vprintfmt+0xc6>
    800049ae:	f60d55e3          	bgez	s10,80004918 <vprintfmt+0x56>
    800049b2:	8d4e                	mv	s10,s3
    800049b4:	59fd                	li	s3,-1
    800049b6:	b78d                	j	80004918 <vprintfmt+0x56>
    800049b8:	00174683          	lbu	a3,1(a4)
    800049bc:	8722                	mv	a4,s0
    800049be:	bfa9                	j	80004918 <vprintfmt+0x56>
    800049c0:	85a6                	mv	a1,s1
    800049c2:	02500513          	li	a0,37
    800049c6:	9902                	jalr	s2
    800049c8:	b73d                	j	800048f6 <vprintfmt+0x34>
    800049ca:	000b2983          	lw	s3,0(s6)
    800049ce:	00174683          	lbu	a3,1(a4)
    800049d2:	0b21                	addi	s6,s6,8
    800049d4:	8722                	mv	a4,s0
    800049d6:	bfe1                	j	800049ae <vprintfmt+0xec>
    800049d8:	03000513          	li	a0,48
    800049dc:	85a6                	mv	a1,s1
    800049de:	9902                	jalr	s2
    800049e0:	85a6                	mv	a1,s1
    800049e2:	07800513          	li	a0,120
    800049e6:	9902                	jalr	s2
    800049e8:	008b0693          	addi	a3,s6,8
    800049ec:	4741                	li	a4,16
    800049ee:	000b3783          	ld	a5,0(s6)
    800049f2:	8b36                	mv	s6,a3
    800049f4:	02e7f9b3          	remu	s3,a5,a4
    800049f8:	2c81                	sext.w	s9,s9
    800049fa:	0054                	addi	a3,sp,4
    800049fc:	4c05                	li	s8,1
    800049fe:	c04e                	sw	s3,0(sp)
    80004a00:	14e7e363          	bltu	a5,a4,80004b46 <vprintfmt+0x284>
    80004a04:	02e7d7b3          	divu	a5,a5,a4
    80004a08:	0691                	addi	a3,a3,4
    80004a0a:	8a62                	mv	s4,s8
    80004a0c:	2c05                	addiw	s8,s8,1
    80004a0e:	02e7f9b3          	remu	s3,a5,a4
    80004a12:	ff36ae23          	sw	s3,-4(a3)
    80004a16:	fee7f7e3          	bgeu	a5,a4,80004a04 <vprintfmt+0x142>
    80004a1a:	01ac5963          	bge	s8,s10,80004a2c <vprintfmt+0x16a>
    80004a1e:	2d01                	sext.w	s10,s10
    80004a20:	3d7d                	addiw	s10,s10,-1
    80004a22:	85a6                	mv	a1,s1
    80004a24:	8566                	mv	a0,s9
    80004a26:	9902                	jalr	s2
    80004a28:	ffac4ce3          	blt	s8,s10,80004a20 <vprintfmt+0x15e>
    80004a2c:	0a0a                	slli	s4,s4,0x2
    80004a2e:	9a0a                	add	s4,s4,sp
    80004a30:	8c8a                	mv	s9,sp
    80004a32:	4c25                	li	s8,9
    80004a34:	a021                	j	80004a3c <vprintfmt+0x17a>
    80004a36:	ffca2983          	lw	s3,-4(s4)
    80004a3a:	1a71                	addi	s4,s4,-4
    80004a3c:	05700513          	li	a0,87
    80004a40:	013c6463          	bltu	s8,s3,80004a48 <vprintfmt+0x186>
    80004a44:	03000513          	li	a0,48
    80004a48:	85a6                	mv	a1,s1
    80004a4a:	0135053b          	addw	a0,a0,s3
    80004a4e:	9902                	jalr	s2
    80004a50:	ff9a13e3          	bne	s4,s9,80004a36 <vprintfmt+0x174>
    80004a54:	b54d                	j	800048f6 <vprintfmt+0x34>
    80004a56:	4785                	li	a5,1
    80004a58:	008b0a13          	addi	s4,s6,8
    80004a5c:	00a7c363          	blt	a5,a0,80004a62 <vprintfmt+0x1a0>
    80004a60:	c57d                	beqz	a0,80004b4e <vprintfmt+0x28c>
    80004a62:	000b3983          	ld	s3,0(s6)
    80004a66:	0e09cb63          	bltz	s3,80004b5c <vprintfmt+0x29a>
    80004a6a:	87ce                	mv	a5,s3
    80004a6c:	8b52                	mv	s6,s4
    80004a6e:	4729                	li	a4,10
    80004a70:	b751                	j	800049f4 <vprintfmt+0x132>
    80004a72:	00174683          	lbu	a3,1(a4)
    80004a76:	2505                	addiw	a0,a0,1
    80004a78:	8722                	mv	a4,s0
    80004a7a:	bd79                	j	80004918 <vprintfmt+0x56>
    80004a7c:	4741                	li	a4,16
    80004a7e:	4785                	li	a5,1
    80004a80:	008b0693          	addi	a3,s6,8
    80004a84:	f6a7c5e3          	blt	a5,a0,800049ee <vprintfmt+0x12c>
    80004a88:	f13d                	bnez	a0,800049ee <vprintfmt+0x12c>
    80004a8a:	000b6783          	lwu	a5,0(s6)
    80004a8e:	8b36                	mv	s6,a3
    80004a90:	b795                	j	800049f4 <vprintfmt+0x132>
    80004a92:	000b3a03          	ld	s4,0(s6)
    80004a96:	0b21                	addi	s6,s6,8
    80004a98:	0c0a0b63          	beqz	s4,80004b6e <vprintfmt+0x2ac>
    80004a9c:	07a05f63          	blez	s10,80004b1a <vprintfmt+0x258>
    80004aa0:	02d00793          	li	a5,45
    80004aa4:	04fc9063          	bne	s9,a5,80004ae4 <vprintfmt+0x222>
    80004aa8:	000a4503          	lbu	a0,0(s4)
    80004aac:	c105                	beqz	a0,80004acc <vprintfmt+0x20a>
    80004aae:	5c7d                	li	s8,-1
    80004ab0:	0009c563          	bltz	s3,80004aba <vprintfmt+0x1f8>
    80004ab4:	39fd                	addiw	s3,s3,-1
    80004ab6:	01898963          	beq	s3,s8,80004ac8 <vprintfmt+0x206>
    80004aba:	85a6                	mv	a1,s1
    80004abc:	0a05                	addi	s4,s4,1
    80004abe:	9902                	jalr	s2
    80004ac0:	000a4503          	lbu	a0,0(s4)
    80004ac4:	3d7d                	addiw	s10,s10,-1
    80004ac6:	f56d                	bnez	a0,80004ab0 <vprintfmt+0x1ee>
    80004ac8:	e3a057e3          	blez	s10,800048f6 <vprintfmt+0x34>
    80004acc:	3d7d                	addiw	s10,s10,-1
    80004ace:	85a6                	mv	a1,s1
    80004ad0:	02000513          	li	a0,32
    80004ad4:	9902                	jalr	s2
    80004ad6:	fe0d1be3          	bnez	s10,80004acc <vprintfmt+0x20a>
    80004ada:	bd31                	j	800048f6 <vprintfmt+0x34>
    80004adc:	00000a17          	auipc	s4,0x0
    80004ae0:	58ca0a13          	addi	s4,s4,1420 # 80005068 <main+0xce>
    80004ae4:	000d061b          	sext.w	a2,s10
    80004ae8:	87d2                	mv	a5,s4
    80004aea:	013a06b3          	add	a3,s4,s3
    80004aee:	00099663          	bnez	s3,80004afa <vprintfmt+0x238>
    80004af2:	a829                	j	80004b0c <vprintfmt+0x24a>
    80004af4:	0785                	addi	a5,a5,1
    80004af6:	00d78563          	beq	a5,a3,80004b00 <vprintfmt+0x23e>
    80004afa:	0007c703          	lbu	a4,0(a5)
    80004afe:	fb7d                	bnez	a4,80004af4 <vprintfmt+0x232>
    80004b00:	41478d33          	sub	s10,a5,s4
    80004b04:	41a60d3b          	subw	s10,a2,s10
    80004b08:	01a05963          	blez	s10,80004b1a <vprintfmt+0x258>
    80004b0c:	2c81                	sext.w	s9,s9
    80004b0e:	3d7d                	addiw	s10,s10,-1
    80004b10:	85a6                	mv	a1,s1
    80004b12:	8566                	mv	a0,s9
    80004b14:	9902                	jalr	s2
    80004b16:	fe0d1ce3          	bnez	s10,80004b0e <vprintfmt+0x24c>
    80004b1a:	000a4503          	lbu	a0,0(s4)
    80004b1e:	dc050ce3          	beqz	a0,800048f6 <vprintfmt+0x34>
    80004b22:	5c7d                	li	s8,-1
    80004b24:	b771                	j	80004ab0 <vprintfmt+0x1ee>
    80004b26:	fffd4793          	not	a5,s10
    80004b2a:	97fd                	srai	a5,a5,0x3f
    80004b2c:	00fd7d33          	and	s10,s10,a5
    80004b30:	00174683          	lbu	a3,1(a4)
    80004b34:	2d01                	sext.w	s10,s10
    80004b36:	8722                	mv	a4,s0
    80004b38:	b3c5                	j	80004918 <vprintfmt+0x56>
    80004b3a:	000b2503          	lw	a0,0(s6)
    80004b3e:	85a6                	mv	a1,s1
    80004b40:	0b21                	addi	s6,s6,8
    80004b42:	9902                	jalr	s2
    80004b44:	bb4d                	j	800048f6 <vprintfmt+0x34>
    80004b46:	4a01                	li	s4,0
    80004b48:	edac4be3          	blt	s8,s10,80004a1e <vprintfmt+0x15c>
    80004b4c:	b5c5                	j	80004a2c <vprintfmt+0x16a>
    80004b4e:	000b2983          	lw	s3,0(s6)
    80004b52:	bf11                	j	80004a66 <vprintfmt+0x1a4>
    80004b54:	4721                	li	a4,8
    80004b56:	b725                	j	80004a7e <vprintfmt+0x1bc>
    80004b58:	4729                	li	a4,10
    80004b5a:	b715                	j	80004a7e <vprintfmt+0x1bc>
    80004b5c:	85a6                	mv	a1,s1
    80004b5e:	02d00513          	li	a0,45
    80004b62:	9902                	jalr	s2
    80004b64:	8b52                	mv	s6,s4
    80004b66:	413007b3          	neg	a5,s3
    80004b6a:	4729                	li	a4,10
    80004b6c:	b561                	j	800049f4 <vprintfmt+0x132>
    80004b6e:	01a05663          	blez	s10,80004b7a <vprintfmt+0x2b8>
    80004b72:	02d00793          	li	a5,45
    80004b76:	f6fc93e3          	bne	s9,a5,80004adc <vprintfmt+0x21a>
    80004b7a:	00000a17          	auipc	s4,0x0
    80004b7e:	4eea0a13          	addi	s4,s4,1262 # 80005068 <main+0xce>
    80004b82:	02800513          	li	a0,40
    80004b86:	5c7d                	li	s8,-1
    80004b88:	b725                	j	80004ab0 <vprintfmt+0x1ee>

0000000080004b8a <sprintf_putch.0>:
    80004b8a:	619c                	ld	a5,0(a1)
    80004b8c:	00a78023          	sb	a0,0(a5)
    80004b90:	619c                	ld	a5,0(a1)
    80004b92:	0785                	addi	a5,a5,1
    80004b94:	e19c                	sd	a5,0(a1)
    80004b96:	8082                	ret

0000000080004b98 <putchar>:
    80004b98:	08022803          	lw	a6,128(tp) # 80 <buflen.1>
    80004b9c:	04020793          	addi	a5,tp,64 # 40 <buf.2>
    80004ba0:	97c2                	add	a5,a5,a6
    80004ba2:	7159                	addi	sp,sp,-112
    80004ba4:	0018069b          	addiw	a3,a6,1
    80004ba8:	08d22023          	sw	a3,128(tp) # 80 <buflen.1>
    80004bac:	00a78023          	sb	a0,0(a5)
    80004bb0:	03f10713          	addi	a4,sp,63
    80004bb4:	47a9                	li	a5,10
    80004bb6:	fc077713          	andi	a4,a4,-64
    80004bba:	00f50963          	beq	a0,a5,80004bcc <putchar+0x34>
    80004bbe:	04000793          	li	a5,64
    80004bc2:	00f68563          	beq	a3,a5,80004bcc <putchar+0x34>
    80004bc6:	4501                	li	a0,0
    80004bc8:	6165                	addi	sp,sp,112
    80004bca:	8082                	ret
    80004bcc:	04000793          	li	a5,64
    80004bd0:	e31c                	sd	a5,0(a4)
    80004bd2:	4785                	li	a5,1
    80004bd4:	e71c                	sd	a5,8(a4)
    80004bd6:	04020613          	addi	a2,tp,64 # 40 <buf.2>
    80004bda:	eb10                	sd	a2,16(a4)
    80004bdc:	ef14                	sd	a3,24(a4)
    80004bde:	0ff0000f          	fence
    80004be2:	ffffc697          	auipc	a3,0xffffc
    80004be6:	45e68693          	addi	a3,a3,1118 # 80001040 <fromhost>
    80004bea:	ffffc797          	auipc	a5,0xffffc
    80004bee:	40e7bb23          	sd	a4,1046(a5) # 80001000 <tohost>
    80004bf2:	629c                	ld	a5,0(a3)
    80004bf4:	dffd                	beqz	a5,80004bf2 <putchar+0x5a>
    80004bf6:	ffffc797          	auipc	a5,0xffffc
    80004bfa:	4407b523          	sd	zero,1098(a5) # 80001040 <fromhost>
    80004bfe:	0ff0000f          	fence
    80004c02:	08022023          	sw	zero,128(tp) # 80 <buflen.1>
    80004c06:	631c                	ld	a5,0(a4)
    80004c08:	4501                	li	a0,0
    80004c0a:	6165                	addi	sp,sp,112
    80004c0c:	8082                	ret

0000000080004c0e <setStats>:
    80004c0e:	b0002773          	csrr	a4,mcycle
    80004c12:	a5818793          	addi	a5,gp,-1448 # 80005210 <counters>
    80004c16:	e901                	bnez	a0,80004c26 <setStats+0x18>
    80004c18:	6394                	ld	a3,0(a5)
    80004c1a:	00000617          	auipc	a2,0x0
    80004c1e:	45660613          	addi	a2,a2,1110 # 80005070 <main+0xd6>
    80004c22:	eb90                	sd	a2,16(a5)
    80004c24:	8f15                	sub	a4,a4,a3
    80004c26:	e398                	sd	a4,0(a5)
    80004c28:	b0202773          	csrr	a4,minstret
    80004c2c:	e901                	bnez	a0,80004c3c <setStats+0x2e>
    80004c2e:	6794                	ld	a3,8(a5)
    80004c30:	00000617          	auipc	a2,0x0
    80004c34:	44860613          	addi	a2,a2,1096 # 80005078 <main+0xde>
    80004c38:	ef90                	sd	a2,24(a5)
    80004c3a:	8f15                	sub	a4,a4,a3
    80004c3c:	e798                	sd	a4,8(a5)
    80004c3e:	8082                	ret

0000000080004c40 <tohost_exit>:
    80004c40:	00151793          	slli	a5,a0,0x1
    80004c44:	0017e793          	ori	a5,a5,1
    80004c48:	ffffc717          	auipc	a4,0xffffc
    80004c4c:	3af73c23          	sd	a5,952(a4) # 80001000 <tohost>
    80004c50:	a001                	j	80004c50 <tohost_exit+0x10>

0000000080004c52 <handle_trap>:
    80004c52:	6785                	lui	a5,0x1
    80004c54:	a7378793          	addi	a5,a5,-1421 # a73 <buflen.1+0x9f3>
    80004c58:	ffffc717          	auipc	a4,0xffffc
    80004c5c:	3af73423          	sd	a5,936(a4) # 80001000 <tohost>
    80004c60:	a001                	j	80004c60 <handle_trap+0xe>

0000000080004c62 <exit>:
    80004c62:	1141                	addi	sp,sp,-16
    80004c64:	e406                	sd	ra,8(sp)
    80004c66:	fdbff0ef          	jal	ra,80004c40 <tohost_exit>

0000000080004c6a <abort>:
    80004c6a:	10d00793          	li	a5,269
    80004c6e:	ffffc717          	auipc	a4,0xffffc
    80004c72:	38f73923          	sd	a5,914(a4) # 80001000 <tohost>
    80004c76:	a001                	j	80004c76 <abort+0xc>

0000000080004c78 <printstr>:
    80004c78:	00054783          	lbu	a5,0(a0)
    80004c7c:	7159                	addi	sp,sp,-112
    80004c7e:	03f10693          	addi	a3,sp,63
    80004c82:	fc06f693          	andi	a3,a3,-64
    80004c86:	c3b9                	beqz	a5,80004ccc <printstr+0x54>
    80004c88:	87aa                	mv	a5,a0
    80004c8a:	0017c703          	lbu	a4,1(a5)
    80004c8e:	0785                	addi	a5,a5,1
    80004c90:	ff6d                	bnez	a4,80004c8a <printstr+0x12>
    80004c92:	8f89                	sub	a5,a5,a0
    80004c94:	04000713          	li	a4,64
    80004c98:	e298                	sd	a4,0(a3)
    80004c9a:	4705                	li	a4,1
    80004c9c:	e698                	sd	a4,8(a3)
    80004c9e:	ea88                	sd	a0,16(a3)
    80004ca0:	ee9c                	sd	a5,24(a3)
    80004ca2:	0ff0000f          	fence
    80004ca6:	ffffc717          	auipc	a4,0xffffc
    80004caa:	39a70713          	addi	a4,a4,922 # 80001040 <fromhost>
    80004cae:	ffffc797          	auipc	a5,0xffffc
    80004cb2:	34d7b923          	sd	a3,850(a5) # 80001000 <tohost>
    80004cb6:	631c                	ld	a5,0(a4)
    80004cb8:	dffd                	beqz	a5,80004cb6 <printstr+0x3e>
    80004cba:	ffffc797          	auipc	a5,0xffffc
    80004cbe:	3807b323          	sd	zero,902(a5) # 80001040 <fromhost>
    80004cc2:	0ff0000f          	fence
    80004cc6:	629c                	ld	a5,0(a3)
    80004cc8:	6165                	addi	sp,sp,112
    80004cca:	8082                	ret
    80004ccc:	4781                	li	a5,0
    80004cce:	b7d9                	j	80004c94 <printstr+0x1c>
    80004cd0:	e101                	bnez	a0,80004cd0 <printstr+0x58>
    80004cd2:	8082                	ret

0000000080004cd4 <printhex>:
    80004cd4:	7179                	addi	sp,sp,-48
    80004cd6:	87aa                	mv	a5,a0
    80004cd8:	f406                	sd	ra,40(sp)
    80004cda:	0028                	addi	a0,sp,8
    80004cdc:	01710613          	addi	a2,sp,23
    80004ce0:	4825                	li	a6,9
    80004ce2:	a011                	j	80004ce6 <printhex+0x12>
    80004ce4:	863a                	mv	a2,a4
    80004ce6:	00f7f693          	andi	a3,a5,15
    80004cea:	8736                	mv	a4,a3
    80004cec:	03000593          	li	a1,48
    80004cf0:	00d87463          	bgeu	a6,a3,80004cf8 <printhex+0x24>
    80004cf4:	05700593          	li	a1,87
    80004cf8:	9f2d                	addw	a4,a4,a1
    80004cfa:	00e60023          	sb	a4,0(a2)
    80004cfe:	8391                	srli	a5,a5,0x4
    80004d00:	fff60713          	addi	a4,a2,-1
    80004d04:	fec510e3          	bne	a0,a2,80004ce4 <printhex+0x10>
    80004d08:	00010c23          	sb	zero,24(sp)
    80004d0c:	f6dff0ef          	jal	ra,80004c78 <printstr>
    80004d10:	70a2                	ld	ra,40(sp)
    80004d12:	6145                	addi	sp,sp,48
    80004d14:	8082                	ret

0000000080004d16 <printf>:
    80004d16:	711d                	addi	sp,sp,-96
    80004d18:	02810313          	addi	t1,sp,40
    80004d1c:	8e2a                	mv	t3,a0
    80004d1e:	f42e                	sd	a1,40(sp)
    80004d20:	f832                	sd	a2,48(sp)
    80004d22:	fc36                	sd	a3,56(sp)
    80004d24:	00000517          	auipc	a0,0x0
    80004d28:	e7450513          	addi	a0,a0,-396 # 80004b98 <putchar>
    80004d2c:	869a                	mv	a3,t1
    80004d2e:	8672                	mv	a2,t3
    80004d30:	4581                	li	a1,0
    80004d32:	ec06                	sd	ra,24(sp)
    80004d34:	e0ba                	sd	a4,64(sp)
    80004d36:	e4be                	sd	a5,72(sp)
    80004d38:	e8c2                	sd	a6,80(sp)
    80004d3a:	ecc6                	sd	a7,88(sp)
    80004d3c:	e41a                	sd	t1,8(sp)
    80004d3e:	b85ff0ef          	jal	ra,800048c2 <vprintfmt>
    80004d42:	60e2                	ld	ra,24(sp)
    80004d44:	4501                	li	a0,0
    80004d46:	6125                	addi	sp,sp,96
    80004d48:	8082                	ret

0000000080004d4a <sprintf>:
    80004d4a:	711d                	addi	sp,sp,-96
    80004d4c:	03010313          	addi	t1,sp,48
    80004d50:	f022                	sd	s0,32(sp)
    80004d52:	e42a                	sd	a0,8(sp)
    80004d54:	f832                	sd	a2,48(sp)
    80004d56:	fc36                	sd	a3,56(sp)
    80004d58:	842a                	mv	s0,a0
    80004d5a:	862e                	mv	a2,a1
    80004d5c:	00000517          	auipc	a0,0x0
    80004d60:	e2e50513          	addi	a0,a0,-466 # 80004b8a <sprintf_putch.0>
    80004d64:	002c                	addi	a1,sp,8
    80004d66:	869a                	mv	a3,t1
    80004d68:	f406                	sd	ra,40(sp)
    80004d6a:	e4be                	sd	a5,72(sp)
    80004d6c:	e0ba                	sd	a4,64(sp)
    80004d6e:	e8c2                	sd	a6,80(sp)
    80004d70:	ecc6                	sd	a7,88(sp)
    80004d72:	ec1a                	sd	t1,24(sp)
    80004d74:	b4fff0ef          	jal	ra,800048c2 <vprintfmt>
    80004d78:	67a2                	ld	a5,8(sp)
    80004d7a:	00078023          	sb	zero,0(a5)
    80004d7e:	6522                	ld	a0,8(sp)
    80004d80:	70a2                	ld	ra,40(sp)
    80004d82:	9d01                	subw	a0,a0,s0
    80004d84:	7402                	ld	s0,32(sp)
    80004d86:	6125                	addi	sp,sp,96
    80004d88:	8082                	ret

0000000080004d8a <memcpy>:
    80004d8a:	00c5e7b3          	or	a5,a1,a2
    80004d8e:	8fc9                	or	a5,a5,a0
    80004d90:	8b9d                	andi	a5,a5,7
    80004d92:	00c506b3          	add	a3,a0,a2
    80004d96:	cf91                	beqz	a5,80004db2 <memcpy+0x28>
    80004d98:	962e                	add	a2,a2,a1
    80004d9a:	87aa                	mv	a5,a0
    80004d9c:	02d57663          	bgeu	a0,a3,80004dc8 <memcpy+0x3e>
    80004da0:	0005c703          	lbu	a4,0(a1)
    80004da4:	0585                	addi	a1,a1,1
    80004da6:	0785                	addi	a5,a5,1
    80004da8:	fee78fa3          	sb	a4,-1(a5)
    80004dac:	feb61ae3          	bne	a2,a1,80004da0 <memcpy+0x16>
    80004db0:	8082                	ret
    80004db2:	fed57fe3          	bgeu	a0,a3,80004db0 <memcpy+0x26>
    80004db6:	87aa                	mv	a5,a0
    80004db8:	6198                	ld	a4,0(a1)
    80004dba:	07a1                	addi	a5,a5,8
    80004dbc:	05a1                	addi	a1,a1,8
    80004dbe:	fee7bc23          	sd	a4,-8(a5)
    80004dc2:	fed7ebe3          	bltu	a5,a3,80004db8 <memcpy+0x2e>
    80004dc6:	8082                	ret
    80004dc8:	8082                	ret

0000000080004dca <memset>:
    80004dca:	00c567b3          	or	a5,a0,a2
    80004dce:	8b9d                	andi	a5,a5,7
    80004dd0:	962a                	add	a2,a2,a0
    80004dd2:	0ff5f593          	andi	a1,a1,255
    80004dd6:	cb91                	beqz	a5,80004dea <memset+0x20>
    80004dd8:	87aa                	mv	a5,a0
    80004dda:	02c57a63          	bgeu	a0,a2,80004e0e <memset+0x44>
    80004dde:	0785                	addi	a5,a5,1
    80004de0:	feb78fa3          	sb	a1,-1(a5)
    80004de4:	fef61de3          	bne	a2,a5,80004dde <memset+0x14>
    80004de8:	8082                	ret
    80004dea:	00859793          	slli	a5,a1,0x8
    80004dee:	8fcd                	or	a5,a5,a1
    80004df0:	01079593          	slli	a1,a5,0x10
    80004df4:	8fcd                	or	a5,a5,a1
    80004df6:	02079713          	slli	a4,a5,0x20
    80004dfa:	8fd9                	or	a5,a5,a4
    80004dfc:	fec576e3          	bgeu	a0,a2,80004de8 <memset+0x1e>
    80004e00:	872a                	mv	a4,a0
    80004e02:	0721                	addi	a4,a4,8
    80004e04:	fef73c23          	sd	a5,-8(a4)
    80004e08:	fec76de3          	bltu	a4,a2,80004e02 <memset+0x38>
    80004e0c:	8082                	ret
    80004e0e:	8082                	ret

0000000080004e10 <_init>:
    80004e10:	7171                	addi	sp,sp,-176
    80004e12:	a7818793          	addi	a5,gp,-1416 # 80005230 <_tdata_begin>
    80004e16:	e152                	sd	s4,128(sp)
    80004e18:	a7818a13          	addi	s4,gp,-1416 # 80005230 <_tdata_begin>
    80004e1c:	e54e                	sd	s3,136(sp)
    80004e1e:	40fa09b3          	sub	s3,s4,a5
    80004e22:	ed26                	sd	s1,152(sp)
    80004e24:	e94a                	sd	s2,144(sp)
    80004e26:	84aa                	mv	s1,a0
    80004e28:	892e                	mv	s2,a1
    80004e2a:	8512                	mv	a0,tp
    80004e2c:	85be                	mv	a1,a5
    80004e2e:	864e                	mv	a2,s3
    80004e30:	f506                	sd	ra,168(sp)
    80004e32:	f122                	sd	s0,160(sp)
    80004e34:	fcd6                	sd	s5,120(sp)
    80004e36:	8a92                	mv	s5,tp
    80004e38:	f53ff0ef          	jal	ra,80004d8a <memcpy>
    80004e3c:	b0c18613          	addi	a2,gp,-1268 # 800052c4 <_tbss_end>
    80004e40:	41460633          	sub	a2,a2,s4
    80004e44:	4581                	li	a1,0
    80004e46:	013a8533          	add	a0,s5,s3
    80004e4a:	f81ff0ef          	jal	ra,80004dca <memset>
    80004e4e:	85ca                	mv	a1,s2
    80004e50:	8526                	mv	a0,s1
    80004e52:	eb6ff0ef          	jal	ra,80004508 <thread_entry>
    80004e56:	4581                	li	a1,0
    80004e58:	4501                	li	a0,0
    80004e5a:	140000ef          	jal	ra,80004f9a <main>
    80004e5e:	a5818913          	addi	s2,gp,-1448 # 80005210 <counters>
    80004e62:	00093683          	ld	a3,0(s2)
    80004e66:	03f10413          	addi	s0,sp,63
    80004e6a:	fc047413          	andi	s0,s0,-64
    80004e6e:	84aa                	mv	s1,a0
    80004e70:	ea85                	bnez	a3,80004ea0 <_init+0x90>
    80004e72:	00893683          	ld	a3,8(s2)
    80004e76:	e681                	bnez	a3,80004e7e <_init+0x6e>
    80004e78:	8526                	mv	a0,s1
    80004e7a:	dc7ff0ef          	jal	ra,80004c40 <tohost_exit>
    80004e7e:	89a2                	mv	s3,s0
    80004e80:	01893603          	ld	a2,24(s2)
    80004e84:	854e                	mv	a0,s3
    80004e86:	00000597          	auipc	a1,0x0
    80004e8a:	21a58593          	addi	a1,a1,538 # 800050a0 <main+0x106>
    80004e8e:	ebdff0ef          	jal	ra,80004d4a <sprintf>
    80004e92:	99aa                	add	s3,s3,a0
    80004e94:	ff3402e3          	beq	s0,s3,80004e78 <_init+0x68>
    80004e98:	8522                	mv	a0,s0
    80004e9a:	ddfff0ef          	jal	ra,80004c78 <printstr>
    80004e9e:	bfe9                	j	80004e78 <_init+0x68>
    80004ea0:	01093603          	ld	a2,16(s2)
    80004ea4:	00000597          	auipc	a1,0x0
    80004ea8:	1fc58593          	addi	a1,a1,508 # 800050a0 <main+0x106>
    80004eac:	8522                	mv	a0,s0
    80004eae:	e9dff0ef          	jal	ra,80004d4a <sprintf>
    80004eb2:	00893683          	ld	a3,8(s2)
    80004eb6:	00a409b3          	add	s3,s0,a0
    80004eba:	dee9                	beqz	a3,80004e94 <_init+0x84>
    80004ebc:	b7d1                	j	80004e80 <_init+0x70>

0000000080004ebe <strlen>:
    80004ebe:	00054783          	lbu	a5,0(a0)
    80004ec2:	cb89                	beqz	a5,80004ed4 <strlen+0x16>
    80004ec4:	87aa                	mv	a5,a0
    80004ec6:	0017c703          	lbu	a4,1(a5)
    80004eca:	0785                	addi	a5,a5,1
    80004ecc:	ff6d                	bnez	a4,80004ec6 <strlen+0x8>
    80004ece:	40a78533          	sub	a0,a5,a0
    80004ed2:	8082                	ret
    80004ed4:	4501                	li	a0,0
    80004ed6:	8082                	ret

0000000080004ed8 <strnlen>:
    80004ed8:	00b506b3          	add	a3,a0,a1
    80004edc:	87aa                	mv	a5,a0
    80004ede:	e589                	bnez	a1,80004ee8 <strnlen+0x10>
    80004ee0:	a829                	j	80004efa <strnlen+0x22>
    80004ee2:	0785                	addi	a5,a5,1
    80004ee4:	00f68863          	beq	a3,a5,80004ef4 <strnlen+0x1c>
    80004ee8:	0007c703          	lbu	a4,0(a5)
    80004eec:	fb7d                	bnez	a4,80004ee2 <strnlen+0xa>
    80004eee:	40a78533          	sub	a0,a5,a0
    80004ef2:	8082                	ret
    80004ef4:	40a68533          	sub	a0,a3,a0
    80004ef8:	8082                	ret
    80004efa:	4501                	li	a0,0
    80004efc:	8082                	ret

0000000080004efe <strcmp>:
    80004efe:	00054783          	lbu	a5,0(a0)
    80004f02:	0585                	addi	a1,a1,1
    80004f04:	0505                	addi	a0,a0,1
    80004f06:	fff5c703          	lbu	a4,-1(a1)
    80004f0a:	c799                	beqz	a5,80004f18 <strcmp+0x1a>
    80004f0c:	fee789e3          	beq	a5,a4,80004efe <strcmp>
    80004f10:	0007851b          	sext.w	a0,a5
    80004f14:	9d19                	subw	a0,a0,a4
    80004f16:	8082                	ret
    80004f18:	4501                	li	a0,0
    80004f1a:	bfed                	j	80004f14 <strcmp+0x16>

0000000080004f1c <strcpy>:
    80004f1c:	87aa                	mv	a5,a0
    80004f1e:	0005c703          	lbu	a4,0(a1)
    80004f22:	0785                	addi	a5,a5,1
    80004f24:	0585                	addi	a1,a1,1
    80004f26:	fee78fa3          	sb	a4,-1(a5)
    80004f2a:	fb75                	bnez	a4,80004f1e <strcpy+0x2>
    80004f2c:	8082                	ret

0000000080004f2e <atol>:
    80004f2e:	00054703          	lbu	a4,0(a0)
    80004f32:	02000693          	li	a3,32
    80004f36:	87aa                	mv	a5,a0
    80004f38:	00d71763          	bne	a4,a3,80004f46 <atol+0x18>
    80004f3c:	0017c703          	lbu	a4,1(a5)
    80004f40:	0785                	addi	a5,a5,1
    80004f42:	fed70de3          	beq	a4,a3,80004f3c <atol+0xe>
    80004f46:	02d00693          	li	a3,45
    80004f4a:	04d70163          	beq	a4,a3,80004f8c <atol+0x5e>
    80004f4e:	02b00693          	li	a3,43
    80004f52:	02d70663          	beq	a4,a3,80004f7e <atol+0x50>
    80004f56:	0007c683          	lbu	a3,0(a5)
    80004f5a:	4581                	li	a1,0
    80004f5c:	c695                	beqz	a3,80004f88 <atol+0x5a>
    80004f5e:	4501                	li	a0,0
    80004f60:	0785                	addi	a5,a5,1
    80004f62:	fd06861b          	addiw	a2,a3,-48
    80004f66:	00251713          	slli	a4,a0,0x2
    80004f6a:	0007c683          	lbu	a3,0(a5)
    80004f6e:	953a                	add	a0,a0,a4
    80004f70:	0506                	slli	a0,a0,0x1
    80004f72:	9532                	add	a0,a0,a2
    80004f74:	f6f5                	bnez	a3,80004f60 <atol+0x32>
    80004f76:	c991                	beqz	a1,80004f8a <atol+0x5c>
    80004f78:	40a00533          	neg	a0,a0
    80004f7c:	8082                	ret
    80004f7e:	0017c683          	lbu	a3,1(a5)
    80004f82:	4581                	li	a1,0
    80004f84:	0785                	addi	a5,a5,1
    80004f86:	fee1                	bnez	a3,80004f5e <atol+0x30>
    80004f88:	4501                	li	a0,0
    80004f8a:	8082                	ret
    80004f8c:	0017c683          	lbu	a3,1(a5)
    80004f90:	4585                	li	a1,1
    80004f92:	0785                	addi	a5,a5,1
    80004f94:	f6e9                	bnez	a3,80004f5e <atol+0x30>
    80004f96:	4501                	li	a0,0
    80004f98:	bfcd                	j	80004f8a <atol+0x5c>

Disassembly of section .text.startup:

0000000080004f9a <main>:
    80004f9a:	1141                	addi	sp,sp,-16
    80004f9c:	00000517          	auipc	a0,0x0
    80004fa0:	0ec50513          	addi	a0,a0,236 # 80005088 <main+0xee>
    80004fa4:	e406                	sd	ra,8(sp)
    80004fa6:	cd3ff0ef          	jal	ra,80004c78 <printstr>
    80004faa:	60a2                	ld	ra,8(sp)
    80004fac:	557d                	li	a0,-1
    80004fae:	0141                	addi	sp,sp,16
    80004fb0:	8082                	ret
