
/home/taka/RISCV/mmRISC/simulation/modelsim/riscv-arch-test/riscv-arch-test/work/rv32i_m/I/ori-01.elf:     file format elf32-littleriscv


Disassembly of section .text.init:

90000000 <rvtest_entry_point>:
90000000:	feedc0b7          	lui	ra,0xfeedc
90000004:	ead08093          	addi	ra,ra,-339 # feedbead <_end+0x6eed74a9>
90000008:	ff76e137          	lui	sp,0xff76e
9000000c:	f5610113          	addi	sp,sp,-170 # ff76df56 <_end+0x6f769552>
90000010:	7fbb71b7          	lui	gp,0x7fbb7
90000014:	fab18193          	addi	gp,gp,-85 # 7fbb6fab <offset+0x7fbb6f43>
90000018:	bfddb237          	lui	tp,0xbfddb
9000001c:	7d520213          	addi	tp,tp,2005 # bfddb7d5 <_end+0x2fdd6dd1>
90000020:	00000297          	auipc	t0,0x0
90000024:	0d828293          	addi	t0,t0,216 # 900000f8 <rvtest_code_begin>
90000028:	00004317          	auipc	t1,0x4
9000002c:	fd830313          	addi	t1,t1,-40 # 90004000 <rvtest_data_begin>
90000030:	b7fbb3b7          	lui	t2,0xb7fbb
90000034:	6fa38393          	addi	t2,t2,1786 # b7fbb6fa <_end+0x27fb6cf6>
90000038:	5bfde437          	lui	s0,0x5bfde
9000003c:	b7d40413          	addi	s0,s0,-1155 # 5bfddb7d <offset+0x5bfddb15>
90000040:	adfef4b7          	lui	s1,0xadfef
90000044:	dbe48493          	addi	s1,s1,-578 # adfeedbe <_end+0x1dfea3ba>
90000048:	56ff7537          	lui	a0,0x56ff7
9000004c:	6df50513          	addi	a0,a0,1759 # 56ff76df <offset+0x56ff7677>
90000050:	ab7fc5b7          	lui	a1,0xab7fc
90000054:	b6f58593          	addi	a1,a1,-1169 # ab7fbb6f <_end+0x1b7f716b>
90000058:	d5bfe637          	lui	a2,0xd5bfe
9000005c:	db760613          	addi	a2,a2,-585 # d5bfddb7 <_end+0x45bf93b3>
90000060:	eadff6b7          	lui	a3,0xeadff
90000064:	edb68693          	addi	a3,a3,-293 # eadfeedb <_end+0x5adfa4d7>
90000068:	f56ff737          	lui	a4,0xf56ff
9000006c:	76d70713          	addi	a4,a4,1901 # f56ff76d <_end+0x656fad69>
90000070:	fab807b7          	lui	a5,0xfab80
90000074:	bb678793          	addi	a5,a5,-1098 # fab7fbb6 <_end+0x6ab7b1b2>
90000078:	7d5c0837          	lui	a6,0x7d5c0
9000007c:	ddb80813          	addi	a6,a6,-549 # 7d5bfddb <offset+0x7d5bfd73>
90000080:	beae08b7          	lui	a7,0xbeae0
90000084:	eed88893          	addi	a7,a7,-275 # beadfeed <_end+0x2eadb4e9>
90000088:	df570937          	lui	s2,0xdf570
9000008c:	f7690913          	addi	s2,s2,-138 # df56ff76 <_end+0x4f56b572>
90000090:	6fab89b7          	lui	s3,0x6fab8
90000094:	fbb98993          	addi	s3,s3,-69 # 6fab7fbb <offset+0x6fab7f53>
90000098:	b7d5ca37          	lui	s4,0xb7d5c
9000009c:	fdda0a13          	addi	s4,s4,-35 # b7d5bfdd <_end+0x27d575d9>
900000a0:	dbeaeab7          	lui	s5,0xdbeae
900000a4:	feea8a93          	addi	s5,s5,-18 # dbeadfee <_end+0x4bea95ea>
900000a8:	6df57b37          	lui	s6,0x6df57
900000ac:	ff7b0b13          	addi	s6,s6,-9 # 6df56ff7 <offset+0x6df56f8f>
900000b0:	b6fabbb7          	lui	s7,0xb6fab
900000b4:	7fbb8b93          	addi	s7,s7,2043 # b6fab7fb <_end+0x26fa6df7>
900000b8:	db7d6c37          	lui	s8,0xdb7d6
900000bc:	bfdc0c13          	addi	s8,s8,-1027 # db7d5bfd <_end+0x4b7d11f9>
900000c0:	edbebcb7          	lui	s9,0xedbeb
900000c4:	dfec8c93          	addi	s9,s9,-514 # edbeadfe <_end+0x5dbe63fa>
900000c8:	76df5d37          	lui	s10,0x76df5
900000cc:	6ffd0d13          	addi	s10,s10,1791 # 76df56ff <offset+0x76df5697>
900000d0:	bb6fbdb7          	lui	s11,0xbb6fb
900000d4:	b7fd8d93          	addi	s11,s11,-1153 # bb6fab7f <_end+0x2b6f617b>
900000d8:	ddb7de37          	lui	t3,0xddb7d
900000dc:	5bfe0e13          	addi	t3,t3,1471 # ddb7d5bf <_end+0x4db78bbb>
900000e0:	eedbfeb7          	lui	t4,0xeedbf
900000e4:	adfe8e93          	addi	t4,t4,-1313 # eedbeadf <_end+0x5edba0db>
900000e8:	f76dff37          	lui	t5,0xf76df
900000ec:	56ff0f13          	addi	t5,t5,1391 # f76df56f <_end+0x676dab6b>
900000f0:	fbb70fb7          	lui	t6,0xfbb70
900000f4:	ab7f8f93          	addi	t6,t6,-1353 # fbb6fab7 <_end+0x6bb6b0b3>

900000f8 <rvtest_code_begin>:
900000f8:	00004117          	auipc	sp,0x4
900000fc:	f1810113          	addi	sp,sp,-232 # 90004010 <begin_signature>

90000100 <inst_0>:
90000100:	dff00293          	li	t0,-513
90000104:	8002eb13          	ori	s6,t0,-2048
90000108:	01612023          	sw	s6,0(sp)

9000010c <inst_1>:
9000010c:	00000d93          	li	s11,0
90000110:	000ded93          	ori	s11,s11,0
90000114:	01b12223          	sw	s11,4(sp)

90000118 <inst_2>:
90000118:	333338b7          	lui	a7,0x33333
9000011c:	33488893          	addi	a7,a7,820 # 33333334 <offset+0x333332cc>
90000120:	7ff8e413          	ori	s0,a7,2047
90000124:	00812423          	sw	s0,8(sp)

90000128 <inst_3>:
90000128:	ffff5a37          	lui	s4,0xffff5
9000012c:	afca0a13          	addi	s4,s4,-1284 # ffff4afc <_end+0x6fff00f8>
90000130:	001a6093          	ori	ra,s4,1
90000134:	00112623          	sw	ra,12(sp)

90000138 <inst_4>:
90000138:	80000637          	lui	a2,0x80000
9000013c:	02d66993          	ori	s3,a2,45
90000140:	01312823          	sw	s3,16(sp)

90000144 <inst_5>:
90000144:	80000437          	lui	s0,0x80000
90000148:	fff40413          	addi	s0,s0,-1 # 7fffffff <_end+0xefffb5fb>
9000014c:	55546193          	ori	gp,s0,1365
90000150:	00312a23          	sw	gp,20(sp)

90000154 <inst_6>:
90000154:	00100e13          	li	t3,1
90000158:	667e6d13          	ori	s10,t3,1639
9000015c:	01a12c23          	sw	s10,24(sp)

90000160 <inst_7>:
90000160:	00700813          	li	a6,7
90000164:	ff986b93          	ori	s7,a6,-7
90000168:	01712e23          	sw	s7,28(sp)

9000016c <inst_8>:
9000016c:	00040cb7          	lui	s9,0x40
90000170:	002cef93          	ori	t6,s9,2
90000174:	03f12023          	sw	t6,32(sp)

90000178 <inst_9>:
90000178:	20000bb7          	lui	s7,0x20000
9000017c:	004be593          	ori	a1,s7,4
90000180:	02b12223          	sw	a1,36(sp)

90000184 <inst_10>:
90000184:	dff00713          	li	a4,-513
90000188:	00876893          	ori	a7,a4,8
9000018c:	03112423          	sw	a7,40(sp)

90000190 <inst_11>:
90000190:	00200f93          	li	t6,2
90000194:	010fe393          	ori	t2,t6,16
90000198:	02712623          	sw	t2,44(sp)

9000019c <inst_12>:
9000019c:	00008ab7          	lui	s5,0x8
900001a0:	020ae213          	ori	tp,s5,32
900001a4:	02412823          	sw	tp,48(sp)

900001a8 <inst_13>:
900001a8:	000017b7          	lui	a5,0x1
900001ac:	80078793          	addi	a5,a5,-2048 # 800 <offset+0x798>
900001b0:	0407e293          	ori	t0,a5,64
900001b4:	02512a23          	sw	t0,52(sp)

900001b8 <inst_14>:
900001b8:	fffc0f37          	lui	t5,0xfffc0
900001bc:	ffff0f13          	addi	t5,t5,-1 # fffbffff <_end+0x6ffbb5fb>
900001c0:	080f6c93          	ori	s9,t5,128
900001c4:	03912c23          	sw	s9,56(sp)

900001c8 <inst_15>:
900001c8:	ffb00593          	li	a1,-5
900001cc:	1005ef13          	ori	t5,a1,256
900001d0:	03e12e23          	sw	t5,60(sp)

900001d4 <inst_16>:
900001d4:	fff80237          	lui	tp,0xfff80
900001d8:	fff20213          	addi	tp,tp,-1 # fff7ffff <_end+0x6ff7b5fb>
900001dc:	20026513          	ori	a0,tp,512
900001e0:	04a12023          	sw	a0,64(sp)

900001e4 <inst_17>:
900001e4:	c00006b7          	lui	a3,0xc0000
900001e8:	fff68693          	addi	a3,a3,-1 # bfffffff <_end+0x2fffb5fb>
900001ec:	4006e013          	ori	zero,a3,1024
900001f0:	04012223          	sw	zero,68(sp)

900001f4 <inst_18>:
900001f4:	fdf00d13          	li	s10,-33
900001f8:	ffed6313          	ori	t1,s10,-2
900001fc:	04612423          	sw	t1,72(sp)

90000200 <inst_19>:
90000200:	0000b9b7          	lui	s3,0xb
90000204:	50398993          	addi	s3,s3,1283 # b503 <offset+0xb49b>
90000208:	ffd9e913          	ori	s2,s3,-3
9000020c:	05212623          	sw	s2,76(sp)

90000210 <inst_20>:
90000210:	100003b7          	lui	t2,0x10000
90000214:	ffb3ea93          	ori	s5,t2,-5
90000218:	05512823          	sw	s5,80(sp)

9000021c <inst_21>:
9000021c:	fff80c37          	lui	s8,0xfff80
90000220:	fffc0c13          	addi	s8,s8,-1 # fff7ffff <_end+0x6ff7b5fb>
90000224:	ff7c6813          	ori	a6,s8,-9
90000228:	05012a23          	sw	a6,84(sp)
9000022c:	00004217          	auipc	tp,0x4
90000230:	e3c20213          	addi	tp,tp,-452 # 90004068 <signature_x4_0>

90000234 <inst_22>:
90000234:	00000013          	nop
90000238:	fef06493          	ori	s1,zero,-17
9000023c:	00922023          	sw	s1,0(tp) # 0 <offset-0x68>

90000240 <inst_23>:
90000240:	000021b7          	lui	gp,0x2
90000244:	fdf1ee13          	ori	t3,gp,-33
90000248:	01c22223          	sw	t3,4(tp) # 4 <offset-0x64>

9000024c <inst_24>:
9000024c:	555550b7          	lui	ra,0x55555
90000250:	55608093          	addi	ra,ra,1366 # 55555556 <offset+0x555554ee>
90000254:	fbf0e793          	ori	a5,ra,-65
90000258:	00f22423          	sw	a5,8(tp) # 8 <offset-0x60>

9000025c <inst_25>:
9000025c:	ffff5937          	lui	s2,0xffff5
90000260:	afc90913          	addi	s2,s2,-1284 # ffff4afc <_end+0x6fff00f8>
90000264:	f7f96113          	ori	sp,s2,-129
90000268:	00222623          	sw	sp,12(tp) # c <offset-0x5c>

9000026c <inst_26>:
9000026c:	aaaabb37          	lui	s6,0xaaaab
90000270:	aaab0b13          	addi	s6,s6,-1366 # aaaaaaaa <_end+0x1aaa60a6>
90000274:	effb6a13          	ori	s4,s6,-257
90000278:	01422823          	sw	s4,16(tp) # 10 <offset-0x58>

9000027c <inst_27>:
9000027c:	01000337          	lui	t1,0x1000
90000280:	dff36693          	ori	a3,t1,-513
90000284:	00d22a23          	sw	a3,20(tp) # 14 <offset-0x54>

90000288 <inst_28>:
90000288:	20000eb7          	lui	t4,0x20000
9000028c:	bffee713          	ori	a4,t4,-1025
90000290:	00e22c23          	sw	a4,24(tp) # 18 <offset-0x50>

90000294 <inst_29>:
90000294:	ffff5137          	lui	sp,0xffff5
90000298:	afc10113          	addi	sp,sp,-1284 # ffff4afc <_end+0x6fff00f8>
9000029c:	aaa16613          	ori	a2,sp,-1366
900002a0:	00c22e23          	sw	a2,28(tp) # 1c <offset-0x4c>

900002a4 <inst_30>:
900002a4:	00400493          	li	s1,4
900002a8:	0054ec13          	ori	s8,s1,5
900002ac:	03822023          	sw	s8,32(tp) # 20 <offset-0x48>

900002b0 <inst_31>:
900002b0:	00800513          	li	a0,8
900002b4:	00656e93          	ori	t4,a0,6
900002b8:	03d22223          	sw	t4,36(tp) # 24 <offset-0x44>

900002bc <inst_32>:
900002bc:	01000513          	li	a0,16
900002c0:	20056593          	ori	a1,a0,512
900002c4:	02b22423          	sw	a1,40(tp) # 28 <offset-0x40>

900002c8 <inst_33>:
900002c8:	02000513          	li	a0,32
900002cc:	02c56593          	ori	a1,a0,44
900002d0:	02b22623          	sw	a1,44(tp) # 2c <offset-0x3c>

900002d4 <inst_34>:
900002d4:	04000513          	li	a0,64
900002d8:	00356593          	ori	a1,a0,3
900002dc:	02b22823          	sw	a1,48(tp) # 30 <offset-0x38>

900002e0 <inst_35>:
900002e0:	08000513          	li	a0,128
900002e4:	02056593          	ori	a1,a0,32
900002e8:	02b22a23          	sw	a1,52(tp) # 34 <offset-0x34>

900002ec <inst_36>:
900002ec:	10000513          	li	a0,256
900002f0:	fbf56593          	ori	a1,a0,-65
900002f4:	02b22c23          	sw	a1,56(tp) # 38 <offset-0x30>

900002f8 <inst_37>:
900002f8:	20000513          	li	a0,512
900002fc:	ffa56593          	ori	a1,a0,-6
90000300:	02b22e23          	sw	a1,60(tp) # 3c <offset-0x2c>

90000304 <inst_38>:
90000304:	40000513          	li	a0,1024
90000308:	fd356593          	ori	a1,a0,-45
9000030c:	04b22023          	sw	a1,64(tp) # 40 <offset-0x28>

90000310 <inst_39>:
90000310:	00001537          	lui	a0,0x1
90000314:	00556593          	ori	a1,a0,5
90000318:	04b22223          	sw	a1,68(tp) # 44 <offset-0x24>

9000031c <inst_40>:
9000031c:	00004537          	lui	a0,0x4
90000320:	66556593          	ori	a1,a0,1637
90000324:	04b22423          	sw	a1,72(tp) # 48 <offset-0x20>

90000328 <inst_41>:
90000328:	00010537          	lui	a0,0x10
9000032c:	00956593          	ori	a1,a0,9
90000330:	04b22623          	sw	a1,76(tp) # 4c <offset-0x1c>

90000334 <inst_42>:
90000334:	00020537          	lui	a0,0x20
90000338:	20056593          	ori	a1,a0,512
9000033c:	04b22823          	sw	a1,80(tp) # 50 <offset-0x18>

90000340 <inst_43>:
90000340:	00080537          	lui	a0,0x80
90000344:	00056593          	ori	a1,a0,0
90000348:	04b22a23          	sw	a1,84(tp) # 54 <offset-0x14>

9000034c <inst_44>:
9000034c:	00100537          	lui	a0,0x100
90000350:	20056593          	ori	a1,a0,512
90000354:	04b22c23          	sw	a1,88(tp) # 58 <offset-0x10>

90000358 <inst_45>:
90000358:	00200537          	lui	a0,0x200
9000035c:	fd456593          	ori	a1,a0,-44
90000360:	04b22e23          	sw	a1,92(tp) # 5c <offset-0xc>

90000364 <inst_46>:
90000364:	00400537          	lui	a0,0x400
90000368:	dff56593          	ori	a1,a0,-513
9000036c:	06b22023          	sw	a1,96(tp) # 60 <offset-0x8>

90000370 <inst_47>:
90000370:	00800537          	lui	a0,0x800
90000374:	08056593          	ori	a1,a0,128
90000378:	06b22223          	sw	a1,100(tp) # 64 <offset-0x4>

9000037c <inst_48>:
9000037c:	02000537          	lui	a0,0x2000
90000380:	fdf56593          	ori	a1,a0,-33
90000384:	06b22423          	sw	a1,104(tp) # 68 <offset>

90000388 <inst_49>:
90000388:	04000537          	lui	a0,0x4000
9000038c:	01056593          	ori	a1,a0,16
90000390:	06b22623          	sw	a1,108(tp) # 6c <offset+0x4>

90000394 <inst_50>:
90000394:	08000537          	lui	a0,0x8000
90000398:	55456593          	ori	a1,a0,1364
9000039c:	06b22823          	sw	a1,112(tp) # 70 <offset+0x8>

900003a0 <inst_51>:
900003a0:	40000537          	lui	a0,0x40000
900003a4:	ffa56593          	ori	a1,a0,-6
900003a8:	06b22a23          	sw	a1,116(tp) # 74 <offset+0xc>

900003ac <inst_52>:
900003ac:	ffe00513          	li	a0,-2
900003b0:	fbf56593          	ori	a1,a0,-65
900003b4:	06b22c23          	sw	a1,120(tp) # 78 <offset+0x10>

900003b8 <inst_53>:
900003b8:	ffd00513          	li	a0,-3
900003bc:	ff756593          	ori	a1,a0,-9
900003c0:	06b22e23          	sw	a1,124(tp) # 7c <offset+0x14>

900003c4 <inst_54>:
900003c4:	ff700513          	li	a0,-9
900003c8:	80056593          	ori	a1,a0,-2048
900003cc:	08b22023          	sw	a1,128(tp) # 80 <offset+0x18>

900003d0 <inst_55>:
900003d0:	fef00513          	li	a0,-17
900003d4:	fd356593          	ori	a1,a0,-45
900003d8:	08b22223          	sw	a1,132(tp) # 84 <offset+0x1c>

900003dc <inst_56>:
900003dc:	fbf00513          	li	a0,-65
900003e0:	aaa56593          	ori	a1,a0,-1366
900003e4:	08b22423          	sw	a1,136(tp) # 88 <offset+0x20>

900003e8 <inst_57>:
900003e8:	f7f00513          	li	a0,-129
900003ec:	66556593          	ori	a1,a0,1637
900003f0:	08b22623          	sw	a1,140(tp) # 8c <offset+0x24>

900003f4 <inst_58>:
900003f4:	eff00513          	li	a0,-257
900003f8:	66656593          	ori	a1,a0,1638
900003fc:	08b22823          	sw	a1,144(tp) # 90 <offset+0x28>

90000400 <inst_59>:
90000400:	bff00513          	li	a0,-1025
90000404:	66656593          	ori	a1,a0,1638
90000408:	08b22a23          	sw	a1,148(tp) # 94 <offset+0x2c>

9000040c <inst_60>:
9000040c:	fffff537          	lui	a0,0xfffff
90000410:	7ff50513          	addi	a0,a0,2047 # fffff7ff <_end+0x6fffadfb>
90000414:	7ff56593          	ori	a1,a0,2047
90000418:	08b22c23          	sw	a1,152(tp) # 98 <offset+0x30>

9000041c <inst_61>:
9000041c:	fffff537          	lui	a0,0xfffff
90000420:	fff50513          	addi	a0,a0,-1 # ffffefff <_end+0x6fffa5fb>
90000424:	00756593          	ori	a1,a0,7
90000428:	08b22e23          	sw	a1,156(tp) # 9c <offset+0x34>

9000042c <inst_62>:
9000042c:	ffffe537          	lui	a0,0xffffe
90000430:	fff50513          	addi	a0,a0,-1 # ffffdfff <_end+0x6fff95fb>
90000434:	fdf56593          	ori	a1,a0,-33
90000438:	0ab22023          	sw	a1,160(tp) # a0 <offset+0x38>

9000043c <inst_63>:
9000043c:	ffff8537          	lui	a0,0xffff8
90000440:	fff50513          	addi	a0,a0,-1 # ffff7fff <_end+0x6fff35fb>
90000444:	02d56593          	ori	a1,a0,45
90000448:	0ab22223          	sw	a1,164(tp) # a4 <offset+0x3c>

9000044c <inst_64>:
9000044c:	ffff0537          	lui	a0,0xffff0
90000450:	fff50513          	addi	a0,a0,-1 # fffeffff <_end+0x6ffeb5fb>
90000454:	33256593          	ori	a1,a0,818
90000458:	0ab22423          	sw	a1,168(tp) # a8 <offset+0x40>

9000045c <inst_65>:
9000045c:	fffe0537          	lui	a0,0xfffe0
90000460:	fff50513          	addi	a0,a0,-1 # fffdffff <_end+0x6ffdb5fb>
90000464:	ff656593          	ori	a1,a0,-10
90000468:	0ab22623          	sw	a1,172(tp) # ac <offset+0x44>

9000046c <inst_66>:
9000046c:	fff00537          	lui	a0,0xfff00
90000470:	fff50513          	addi	a0,a0,-1 # ffefffff <_end+0x6fefb5fb>
90000474:	00656593          	ori	a1,a0,6
90000478:	0ab22823          	sw	a1,176(tp) # b0 <offset+0x48>

9000047c <inst_67>:
9000047c:	ffe00537          	lui	a0,0xffe00
90000480:	fff50513          	addi	a0,a0,-1 # ffdfffff <_end+0x6fdfb5fb>
90000484:	c0056593          	ori	a1,a0,-1024
90000488:	0ab22a23          	sw	a1,180(tp) # b4 <offset+0x4c>

9000048c <inst_68>:
9000048c:	ffc00537          	lui	a0,0xffc00
90000490:	fff50513          	addi	a0,a0,-1 # ffbfffff <_end+0x6fbfb5fb>
90000494:	fd456593          	ori	a1,a0,-44
90000498:	0ab22c23          	sw	a1,184(tp) # b8 <offset+0x50>

9000049c <inst_69>:
9000049c:	ff800537          	lui	a0,0xff800
900004a0:	fff50513          	addi	a0,a0,-1 # ff7fffff <_end+0x6f7fb5fb>
900004a4:	ff656593          	ori	a1,a0,-10
900004a8:	0ab22e23          	sw	a1,188(tp) # bc <offset+0x54>

900004ac <inst_70>:
900004ac:	ff000537          	lui	a0,0xff000
900004b0:	fff50513          	addi	a0,a0,-1 # feffffff <_end+0x6effb5fb>
900004b4:	3ff56593          	ori	a1,a0,1023
900004b8:	0cb22023          	sw	a1,192(tp) # c0 <offset+0x58>

900004bc <inst_71>:
900004bc:	fe000537          	lui	a0,0xfe000
900004c0:	fff50513          	addi	a0,a0,-1 # fdffffff <_end+0x6dffb5fb>
900004c4:	ff856593          	ori	a1,a0,-8
900004c8:	0cb22223          	sw	a1,196(tp) # c4 <offset+0x5c>

900004cc <inst_72>:
900004cc:	fc000537          	lui	a0,0xfc000
900004d0:	fff50513          	addi	a0,a0,-1 # fbffffff <_end+0x6bffb5fb>
900004d4:	00456593          	ori	a1,a0,4
900004d8:	0cb22423          	sw	a1,200(tp) # c8 <offset+0x60>

900004dc <inst_73>:
900004dc:	f8000537          	lui	a0,0xf8000
900004e0:	fff50513          	addi	a0,a0,-1 # f7ffffff <_end+0x67ffb5fb>
900004e4:	ffa56593          	ori	a1,a0,-6
900004e8:	0cb22623          	sw	a1,204(tp) # cc <offset+0x64>

900004ec <inst_74>:
900004ec:	f0000537          	lui	a0,0xf0000
900004f0:	fff50513          	addi	a0,a0,-1 # efffffff <_end+0x5fffb5fb>
900004f4:	ff956593          	ori	a1,a0,-7
900004f8:	0cb22823          	sw	a1,208(tp) # d0 <offset+0x68>

900004fc <inst_75>:
900004fc:	e0000537          	lui	a0,0xe0000
90000500:	fff50513          	addi	a0,a0,-1 # dfffffff <_end+0x4fffb5fb>
90000504:	55456593          	ori	a1,a0,1364
90000508:	0cb22a23          	sw	a1,212(tp) # d4 <offset+0x6c>

9000050c <inst_76>:
9000050c:	55555537          	lui	a0,0x55555
90000510:	55550513          	addi	a0,a0,1365 # 55555555 <offset+0x555554ed>
90000514:	eff56593          	ori	a1,a0,-257
90000518:	0cb22c23          	sw	a1,216(tp) # d8 <offset+0x70>

9000051c <inst_77>:
9000051c:	00300513          	li	a0,3
90000520:	00356593          	ori	a1,a0,3
90000524:	0cb22e23          	sw	a1,220(tp) # dc <offset+0x74>

90000528 <inst_78>:
90000528:	00300513          	li	a0,3
9000052c:	55556593          	ori	a1,a0,1365
90000530:	0eb22023          	sw	a1,224(tp) # e0 <offset+0x78>

90000534 <inst_79>:
90000534:	00300513          	li	a0,3
90000538:	aaa56593          	ori	a1,a0,-1366
9000053c:	0eb22223          	sw	a1,228(tp) # e4 <offset+0x7c>

90000540 <inst_80>:
90000540:	00300513          	li	a0,3
90000544:	00556593          	ori	a1,a0,5
90000548:	0eb22423          	sw	a1,232(tp) # e8 <offset+0x80>

9000054c <inst_81>:
9000054c:	00300513          	li	a0,3
90000550:	33356593          	ori	a1,a0,819
90000554:	0eb22623          	sw	a1,236(tp) # ec <offset+0x84>

90000558 <inst_82>:
90000558:	00300513          	li	a0,3
9000055c:	66656593          	ori	a1,a0,1638
90000560:	0eb22823          	sw	a1,240(tp) # f0 <offset+0x88>

90000564 <inst_83>:
90000564:	00300513          	li	a0,3
90000568:	fd356593          	ori	a1,a0,-45
9000056c:	0eb22a23          	sw	a1,244(tp) # f4 <offset+0x8c>

90000570 <inst_84>:
90000570:	00300513          	li	a0,3
90000574:	02d56593          	ori	a1,a0,45
90000578:	0eb22c23          	sw	a1,248(tp) # f8 <offset+0x90>

9000057c <inst_85>:
9000057c:	00300513          	li	a0,3
90000580:	00256593          	ori	a1,a0,2
90000584:	0eb22e23          	sw	a1,252(tp) # fc <offset+0x94>

90000588 <inst_86>:
90000588:	00300513          	li	a0,3
9000058c:	55456593          	ori	a1,a0,1364
90000590:	10b22023          	sw	a1,256(tp) # 100 <offset+0x98>

90000594 <inst_87>:
90000594:	00300513          	li	a0,3
90000598:	00056593          	ori	a1,a0,0
9000059c:	10b22223          	sw	a1,260(tp) # 104 <offset+0x9c>

900005a0 <inst_88>:
900005a0:	00300513          	li	a0,3
900005a4:	00456593          	ori	a1,a0,4
900005a8:	10b22423          	sw	a1,264(tp) # 108 <offset+0xa0>

900005ac <inst_89>:
900005ac:	00300513          	li	a0,3
900005b0:	33256593          	ori	a1,a0,818
900005b4:	10b22623          	sw	a1,268(tp) # 10c <offset+0xa4>

900005b8 <inst_90>:
900005b8:	00300513          	li	a0,3
900005bc:	66556593          	ori	a1,a0,1637
900005c0:	10b22823          	sw	a1,272(tp) # 110 <offset+0xa8>

900005c4 <inst_91>:
900005c4:	00300513          	li	a0,3
900005c8:	02c56593          	ori	a1,a0,44
900005cc:	10b22a23          	sw	a1,276(tp) # 114 <offset+0xac>

900005d0 <inst_92>:
900005d0:	00300513          	li	a0,3
900005d4:	55656593          	ori	a1,a0,1366
900005d8:	10b22c23          	sw	a1,280(tp) # 118 <offset+0xb0>

900005dc <inst_93>:
900005dc:	00300513          	li	a0,3
900005e0:	aab56593          	ori	a1,a0,-1365
900005e4:	10b22e23          	sw	a1,284(tp) # 11c <offset+0xb4>

900005e8 <inst_94>:
900005e8:	00300513          	li	a0,3
900005ec:	00656593          	ori	a1,a0,6
900005f0:	12b22023          	sw	a1,288(tp) # 120 <offset+0xb8>

900005f4 <inst_95>:
900005f4:	00300513          	li	a0,3
900005f8:	33456593          	ori	a1,a0,820
900005fc:	12b22223          	sw	a1,292(tp) # 124 <offset+0xbc>

90000600 <inst_96>:
90000600:	00300513          	li	a0,3
90000604:	66756593          	ori	a1,a0,1639
90000608:	12b22423          	sw	a1,296(tp) # 128 <offset+0xc0>

9000060c <inst_97>:
9000060c:	00300513          	li	a0,3
90000610:	fd456593          	ori	a1,a0,-44
90000614:	12b22623          	sw	a1,300(tp) # 12c <offset+0xc4>

90000618 <inst_98>:
90000618:	00300513          	li	a0,3
9000061c:	02e56593          	ori	a1,a0,46
90000620:	12b22823          	sw	a1,304(tp) # 130 <offset+0xc8>

90000624 <inst_99>:
90000624:	55555537          	lui	a0,0x55555
90000628:	55550513          	addi	a0,a0,1365 # 55555555 <offset+0x555554ed>
9000062c:	00356593          	ori	a1,a0,3
90000630:	12b22a23          	sw	a1,308(tp) # 134 <offset+0xcc>

90000634 <inst_100>:
90000634:	55555537          	lui	a0,0x55555
90000638:	55550513          	addi	a0,a0,1365 # 55555555 <offset+0x555554ed>
9000063c:	55556593          	ori	a1,a0,1365
90000640:	12b22c23          	sw	a1,312(tp) # 138 <offset+0xd0>

90000644 <inst_101>:
90000644:	55555537          	lui	a0,0x55555
90000648:	55550513          	addi	a0,a0,1365 # 55555555 <offset+0x555554ed>
9000064c:	aaa56593          	ori	a1,a0,-1366
90000650:	12b22e23          	sw	a1,316(tp) # 13c <offset+0xd4>

90000654 <inst_102>:
90000654:	55555537          	lui	a0,0x55555
90000658:	55550513          	addi	a0,a0,1365 # 55555555 <offset+0x555554ed>
9000065c:	00556593          	ori	a1,a0,5
90000660:	14b22023          	sw	a1,320(tp) # 140 <offset+0xd8>

90000664 <inst_103>:
90000664:	55555537          	lui	a0,0x55555
90000668:	55550513          	addi	a0,a0,1365 # 55555555 <offset+0x555554ed>
9000066c:	33356593          	ori	a1,a0,819
90000670:	14b22223          	sw	a1,324(tp) # 144 <offset+0xdc>

90000674 <inst_104>:
90000674:	55555537          	lui	a0,0x55555
90000678:	55550513          	addi	a0,a0,1365 # 55555555 <offset+0x555554ed>
9000067c:	66656593          	ori	a1,a0,1638
90000680:	14b22423          	sw	a1,328(tp) # 148 <offset+0xe0>

90000684 <inst_105>:
90000684:	55555537          	lui	a0,0x55555
90000688:	55550513          	addi	a0,a0,1365 # 55555555 <offset+0x555554ed>
9000068c:	fd356593          	ori	a1,a0,-45
90000690:	14b22623          	sw	a1,332(tp) # 14c <offset+0xe4>

90000694 <inst_106>:
90000694:	55555537          	lui	a0,0x55555
90000698:	55550513          	addi	a0,a0,1365 # 55555555 <offset+0x555554ed>
9000069c:	02d56593          	ori	a1,a0,45
900006a0:	14b22823          	sw	a1,336(tp) # 150 <offset+0xe8>

900006a4 <inst_107>:
900006a4:	55555537          	lui	a0,0x55555
900006a8:	55550513          	addi	a0,a0,1365 # 55555555 <offset+0x555554ed>
900006ac:	00256593          	ori	a1,a0,2
900006b0:	14b22a23          	sw	a1,340(tp) # 154 <offset+0xec>

900006b4 <inst_108>:
900006b4:	55555537          	lui	a0,0x55555
900006b8:	55550513          	addi	a0,a0,1365 # 55555555 <offset+0x555554ed>
900006bc:	55456593          	ori	a1,a0,1364
900006c0:	14b22c23          	sw	a1,344(tp) # 158 <offset+0xf0>

900006c4 <inst_109>:
900006c4:	55555537          	lui	a0,0x55555
900006c8:	55550513          	addi	a0,a0,1365 # 55555555 <offset+0x555554ed>
900006cc:	00056593          	ori	a1,a0,0
900006d0:	14b22e23          	sw	a1,348(tp) # 15c <offset+0xf4>

900006d4 <inst_110>:
900006d4:	55555537          	lui	a0,0x55555
900006d8:	55550513          	addi	a0,a0,1365 # 55555555 <offset+0x555554ed>
900006dc:	00456593          	ori	a1,a0,4
900006e0:	16b22023          	sw	a1,352(tp) # 160 <offset+0xf8>

900006e4 <inst_111>:
900006e4:	55555537          	lui	a0,0x55555
900006e8:	55550513          	addi	a0,a0,1365 # 55555555 <offset+0x555554ed>
900006ec:	33256593          	ori	a1,a0,818
900006f0:	16b22223          	sw	a1,356(tp) # 164 <offset+0xfc>

900006f4 <inst_112>:
900006f4:	55555537          	lui	a0,0x55555
900006f8:	55550513          	addi	a0,a0,1365 # 55555555 <offset+0x555554ed>
900006fc:	66556593          	ori	a1,a0,1637
90000700:	16b22423          	sw	a1,360(tp) # 168 <offset+0x100>

90000704 <inst_113>:
90000704:	55555537          	lui	a0,0x55555
90000708:	55550513          	addi	a0,a0,1365 # 55555555 <offset+0x555554ed>
9000070c:	02c56593          	ori	a1,a0,44
90000710:	16b22623          	sw	a1,364(tp) # 16c <offset+0x104>

90000714 <inst_114>:
90000714:	55555537          	lui	a0,0x55555
90000718:	55550513          	addi	a0,a0,1365 # 55555555 <offset+0x555554ed>
9000071c:	55656593          	ori	a1,a0,1366
90000720:	16b22823          	sw	a1,368(tp) # 170 <offset+0x108>

90000724 <inst_115>:
90000724:	55555537          	lui	a0,0x55555
90000728:	55550513          	addi	a0,a0,1365 # 55555555 <offset+0x555554ed>
9000072c:	aab56593          	ori	a1,a0,-1365
90000730:	16b22a23          	sw	a1,372(tp) # 174 <offset+0x10c>

90000734 <inst_116>:
90000734:	55555537          	lui	a0,0x55555
90000738:	55550513          	addi	a0,a0,1365 # 55555555 <offset+0x555554ed>
9000073c:	00656593          	ori	a1,a0,6
90000740:	16b22c23          	sw	a1,376(tp) # 178 <offset+0x110>

90000744 <inst_117>:
90000744:	55555537          	lui	a0,0x55555
90000748:	55550513          	addi	a0,a0,1365 # 55555555 <offset+0x555554ed>
9000074c:	33456593          	ori	a1,a0,820
90000750:	16b22e23          	sw	a1,380(tp) # 17c <offset+0x114>

90000754 <inst_118>:
90000754:	55555537          	lui	a0,0x55555
90000758:	55550513          	addi	a0,a0,1365 # 55555555 <offset+0x555554ed>
9000075c:	66756593          	ori	a1,a0,1639
90000760:	18b22023          	sw	a1,384(tp) # 180 <offset+0x118>

90000764 <inst_119>:
90000764:	55555537          	lui	a0,0x55555
90000768:	55550513          	addi	a0,a0,1365 # 55555555 <offset+0x555554ed>
9000076c:	fd456593          	ori	a1,a0,-44
90000770:	18b22223          	sw	a1,388(tp) # 184 <offset+0x11c>

90000774 <inst_120>:
90000774:	55555537          	lui	a0,0x55555
90000778:	55550513          	addi	a0,a0,1365 # 55555555 <offset+0x555554ed>
9000077c:	02e56593          	ori	a1,a0,46
90000780:	18b22423          	sw	a1,392(tp) # 188 <offset+0x120>

90000784 <inst_121>:
90000784:	aaaab537          	lui	a0,0xaaaab
90000788:	aaa50513          	addi	a0,a0,-1366 # aaaaaaaa <_end+0x1aaa60a6>
9000078c:	00356593          	ori	a1,a0,3
90000790:	18b22623          	sw	a1,396(tp) # 18c <offset+0x124>

90000794 <inst_122>:
90000794:	aaaab537          	lui	a0,0xaaaab
90000798:	aaa50513          	addi	a0,a0,-1366 # aaaaaaaa <_end+0x1aaa60a6>
9000079c:	55556593          	ori	a1,a0,1365
900007a0:	18b22823          	sw	a1,400(tp) # 190 <offset+0x128>

900007a4 <inst_123>:
900007a4:	aaaab537          	lui	a0,0xaaaab
900007a8:	aaa50513          	addi	a0,a0,-1366 # aaaaaaaa <_end+0x1aaa60a6>
900007ac:	aaa56593          	ori	a1,a0,-1366
900007b0:	18b22a23          	sw	a1,404(tp) # 194 <offset+0x12c>

900007b4 <inst_124>:
900007b4:	aaaab537          	lui	a0,0xaaaab
900007b8:	aaa50513          	addi	a0,a0,-1366 # aaaaaaaa <_end+0x1aaa60a6>
900007bc:	00556593          	ori	a1,a0,5
900007c0:	18b22c23          	sw	a1,408(tp) # 198 <offset+0x130>

900007c4 <inst_125>:
900007c4:	aaaab537          	lui	a0,0xaaaab
900007c8:	aaa50513          	addi	a0,a0,-1366 # aaaaaaaa <_end+0x1aaa60a6>
900007cc:	33356593          	ori	a1,a0,819
900007d0:	18b22e23          	sw	a1,412(tp) # 19c <offset+0x134>

900007d4 <inst_126>:
900007d4:	aaaab537          	lui	a0,0xaaaab
900007d8:	aaa50513          	addi	a0,a0,-1366 # aaaaaaaa <_end+0x1aaa60a6>
900007dc:	66656593          	ori	a1,a0,1638
900007e0:	1ab22023          	sw	a1,416(tp) # 1a0 <offset+0x138>

900007e4 <inst_127>:
900007e4:	aaaab537          	lui	a0,0xaaaab
900007e8:	aaa50513          	addi	a0,a0,-1366 # aaaaaaaa <_end+0x1aaa60a6>
900007ec:	fd356593          	ori	a1,a0,-45
900007f0:	1ab22223          	sw	a1,420(tp) # 1a4 <offset+0x13c>

900007f4 <inst_128>:
900007f4:	aaaab537          	lui	a0,0xaaaab
900007f8:	aaa50513          	addi	a0,a0,-1366 # aaaaaaaa <_end+0x1aaa60a6>
900007fc:	02d56593          	ori	a1,a0,45
90000800:	1ab22423          	sw	a1,424(tp) # 1a8 <offset+0x140>

90000804 <inst_129>:
90000804:	aaaab537          	lui	a0,0xaaaab
90000808:	aaa50513          	addi	a0,a0,-1366 # aaaaaaaa <_end+0x1aaa60a6>
9000080c:	00256593          	ori	a1,a0,2
90000810:	1ab22623          	sw	a1,428(tp) # 1ac <offset+0x144>

90000814 <inst_130>:
90000814:	aaaab537          	lui	a0,0xaaaab
90000818:	aaa50513          	addi	a0,a0,-1366 # aaaaaaaa <_end+0x1aaa60a6>
9000081c:	55456593          	ori	a1,a0,1364
90000820:	1ab22823          	sw	a1,432(tp) # 1b0 <offset+0x148>

90000824 <inst_131>:
90000824:	aaaab537          	lui	a0,0xaaaab
90000828:	aaa50513          	addi	a0,a0,-1366 # aaaaaaaa <_end+0x1aaa60a6>
9000082c:	00056593          	ori	a1,a0,0
90000830:	1ab22a23          	sw	a1,436(tp) # 1b4 <offset+0x14c>

90000834 <inst_132>:
90000834:	aaaab537          	lui	a0,0xaaaab
90000838:	aaa50513          	addi	a0,a0,-1366 # aaaaaaaa <_end+0x1aaa60a6>
9000083c:	00456593          	ori	a1,a0,4
90000840:	1ab22c23          	sw	a1,440(tp) # 1b8 <offset+0x150>

90000844 <inst_133>:
90000844:	aaaab537          	lui	a0,0xaaaab
90000848:	aaa50513          	addi	a0,a0,-1366 # aaaaaaaa <_end+0x1aaa60a6>
9000084c:	33256593          	ori	a1,a0,818
90000850:	1ab22e23          	sw	a1,444(tp) # 1bc <offset+0x154>

90000854 <inst_134>:
90000854:	aaaab537          	lui	a0,0xaaaab
90000858:	aaa50513          	addi	a0,a0,-1366 # aaaaaaaa <_end+0x1aaa60a6>
9000085c:	66556593          	ori	a1,a0,1637
90000860:	1cb22023          	sw	a1,448(tp) # 1c0 <offset+0x158>

90000864 <inst_135>:
90000864:	aaaab537          	lui	a0,0xaaaab
90000868:	aaa50513          	addi	a0,a0,-1366 # aaaaaaaa <_end+0x1aaa60a6>
9000086c:	02c56593          	ori	a1,a0,44
90000870:	1cb22223          	sw	a1,452(tp) # 1c4 <offset+0x15c>

90000874 <inst_136>:
90000874:	aaaab537          	lui	a0,0xaaaab
90000878:	aaa50513          	addi	a0,a0,-1366 # aaaaaaaa <_end+0x1aaa60a6>
9000087c:	55656593          	ori	a1,a0,1366
90000880:	1cb22423          	sw	a1,456(tp) # 1c8 <offset+0x160>

90000884 <inst_137>:
90000884:	aaaab537          	lui	a0,0xaaaab
90000888:	aaa50513          	addi	a0,a0,-1366 # aaaaaaaa <_end+0x1aaa60a6>
9000088c:	aab56593          	ori	a1,a0,-1365
90000890:	1cb22623          	sw	a1,460(tp) # 1cc <offset+0x164>

90000894 <inst_138>:
90000894:	aaaab537          	lui	a0,0xaaaab
90000898:	aaa50513          	addi	a0,a0,-1366 # aaaaaaaa <_end+0x1aaa60a6>
9000089c:	00656593          	ori	a1,a0,6
900008a0:	1cb22823          	sw	a1,464(tp) # 1d0 <offset+0x168>

900008a4 <inst_139>:
900008a4:	aaaab537          	lui	a0,0xaaaab
900008a8:	aaa50513          	addi	a0,a0,-1366 # aaaaaaaa <_end+0x1aaa60a6>
900008ac:	33456593          	ori	a1,a0,820
900008b0:	1cb22a23          	sw	a1,468(tp) # 1d4 <offset+0x16c>

900008b4 <inst_140>:
900008b4:	aaaab537          	lui	a0,0xaaaab
900008b8:	aaa50513          	addi	a0,a0,-1366 # aaaaaaaa <_end+0x1aaa60a6>
900008bc:	66756593          	ori	a1,a0,1639
900008c0:	1cb22c23          	sw	a1,472(tp) # 1d8 <offset+0x170>

900008c4 <inst_141>:
900008c4:	aaaab537          	lui	a0,0xaaaab
900008c8:	aaa50513          	addi	a0,a0,-1366 # aaaaaaaa <_end+0x1aaa60a6>
900008cc:	fd456593          	ori	a1,a0,-44
900008d0:	1cb22e23          	sw	a1,476(tp) # 1dc <offset+0x174>

900008d4 <inst_142>:
900008d4:	aaaab537          	lui	a0,0xaaaab
900008d8:	aaa50513          	addi	a0,a0,-1366 # aaaaaaaa <_end+0x1aaa60a6>
900008dc:	02e56593          	ori	a1,a0,46
900008e0:	1eb22023          	sw	a1,480(tp) # 1e0 <offset+0x178>

900008e4 <inst_143>:
900008e4:	00500513          	li	a0,5
900008e8:	00356593          	ori	a1,a0,3
900008ec:	1eb22223          	sw	a1,484(tp) # 1e4 <offset+0x17c>

900008f0 <inst_144>:
900008f0:	00500513          	li	a0,5
900008f4:	55556593          	ori	a1,a0,1365
900008f8:	1eb22423          	sw	a1,488(tp) # 1e8 <offset+0x180>

900008fc <inst_145>:
900008fc:	00500513          	li	a0,5
90000900:	aaa56593          	ori	a1,a0,-1366
90000904:	1eb22623          	sw	a1,492(tp) # 1ec <offset+0x184>

90000908 <inst_146>:
90000908:	00500513          	li	a0,5
9000090c:	00556593          	ori	a1,a0,5
90000910:	1eb22823          	sw	a1,496(tp) # 1f0 <offset+0x188>

90000914 <inst_147>:
90000914:	00500513          	li	a0,5
90000918:	33356593          	ori	a1,a0,819
9000091c:	1eb22a23          	sw	a1,500(tp) # 1f4 <offset+0x18c>

90000920 <inst_148>:
90000920:	00500513          	li	a0,5
90000924:	66656593          	ori	a1,a0,1638
90000928:	1eb22c23          	sw	a1,504(tp) # 1f8 <offset+0x190>

9000092c <inst_149>:
9000092c:	00500513          	li	a0,5
90000930:	fd356593          	ori	a1,a0,-45
90000934:	1eb22e23          	sw	a1,508(tp) # 1fc <offset+0x194>

90000938 <inst_150>:
90000938:	00500513          	li	a0,5
9000093c:	02d56593          	ori	a1,a0,45
90000940:	20b22023          	sw	a1,512(tp) # 200 <offset+0x198>

90000944 <inst_151>:
90000944:	00500513          	li	a0,5
90000948:	00256593          	ori	a1,a0,2
9000094c:	20b22223          	sw	a1,516(tp) # 204 <offset+0x19c>

90000950 <inst_152>:
90000950:	00500513          	li	a0,5
90000954:	55456593          	ori	a1,a0,1364
90000958:	20b22423          	sw	a1,520(tp) # 208 <offset+0x1a0>

9000095c <inst_153>:
9000095c:	00500513          	li	a0,5
90000960:	00056593          	ori	a1,a0,0
90000964:	20b22623          	sw	a1,524(tp) # 20c <offset+0x1a4>

90000968 <inst_154>:
90000968:	00500513          	li	a0,5
9000096c:	00456593          	ori	a1,a0,4
90000970:	20b22823          	sw	a1,528(tp) # 210 <offset+0x1a8>

90000974 <inst_155>:
90000974:	00500513          	li	a0,5
90000978:	33256593          	ori	a1,a0,818
9000097c:	20b22a23          	sw	a1,532(tp) # 214 <offset+0x1ac>

90000980 <inst_156>:
90000980:	00500513          	li	a0,5
90000984:	66556593          	ori	a1,a0,1637
90000988:	20b22c23          	sw	a1,536(tp) # 218 <offset+0x1b0>

9000098c <inst_157>:
9000098c:	00500513          	li	a0,5
90000990:	02c56593          	ori	a1,a0,44
90000994:	20b22e23          	sw	a1,540(tp) # 21c <offset+0x1b4>

90000998 <inst_158>:
90000998:	00500513          	li	a0,5
9000099c:	55656593          	ori	a1,a0,1366
900009a0:	22b22023          	sw	a1,544(tp) # 220 <offset+0x1b8>

900009a4 <inst_159>:
900009a4:	00500513          	li	a0,5
900009a8:	aab56593          	ori	a1,a0,-1365
900009ac:	22b22223          	sw	a1,548(tp) # 224 <offset+0x1bc>

900009b0 <inst_160>:
900009b0:	00500513          	li	a0,5
900009b4:	00656593          	ori	a1,a0,6
900009b8:	22b22423          	sw	a1,552(tp) # 228 <offset+0x1c0>

900009bc <inst_161>:
900009bc:	00500513          	li	a0,5
900009c0:	33456593          	ori	a1,a0,820
900009c4:	22b22623          	sw	a1,556(tp) # 22c <offset+0x1c4>

900009c8 <inst_162>:
900009c8:	00500513          	li	a0,5
900009cc:	66756593          	ori	a1,a0,1639
900009d0:	22b22823          	sw	a1,560(tp) # 230 <offset+0x1c8>

900009d4 <inst_163>:
900009d4:	00500513          	li	a0,5
900009d8:	fd456593          	ori	a1,a0,-44
900009dc:	22b22a23          	sw	a1,564(tp) # 234 <offset+0x1cc>

900009e0 <inst_164>:
900009e0:	00500513          	li	a0,5
900009e4:	02e56593          	ori	a1,a0,46
900009e8:	22b22c23          	sw	a1,568(tp) # 238 <offset+0x1d0>

900009ec <inst_165>:
900009ec:	33333537          	lui	a0,0x33333
900009f0:	33350513          	addi	a0,a0,819 # 33333333 <offset+0x333332cb>
900009f4:	00356593          	ori	a1,a0,3
900009f8:	22b22e23          	sw	a1,572(tp) # 23c <offset+0x1d4>

900009fc <inst_166>:
900009fc:	33333537          	lui	a0,0x33333
90000a00:	33350513          	addi	a0,a0,819 # 33333333 <offset+0x333332cb>
90000a04:	55556593          	ori	a1,a0,1365
90000a08:	24b22023          	sw	a1,576(tp) # 240 <offset+0x1d8>

90000a0c <inst_167>:
90000a0c:	33333537          	lui	a0,0x33333
90000a10:	33350513          	addi	a0,a0,819 # 33333333 <offset+0x333332cb>
90000a14:	aaa56593          	ori	a1,a0,-1366
90000a18:	24b22223          	sw	a1,580(tp) # 244 <offset+0x1dc>

90000a1c <inst_168>:
90000a1c:	33333537          	lui	a0,0x33333
90000a20:	33350513          	addi	a0,a0,819 # 33333333 <offset+0x333332cb>
90000a24:	00556593          	ori	a1,a0,5
90000a28:	24b22423          	sw	a1,584(tp) # 248 <offset+0x1e0>

90000a2c <inst_169>:
90000a2c:	33333537          	lui	a0,0x33333
90000a30:	33350513          	addi	a0,a0,819 # 33333333 <offset+0x333332cb>
90000a34:	33356593          	ori	a1,a0,819
90000a38:	24b22623          	sw	a1,588(tp) # 24c <offset+0x1e4>

90000a3c <inst_170>:
90000a3c:	33333537          	lui	a0,0x33333
90000a40:	33350513          	addi	a0,a0,819 # 33333333 <offset+0x333332cb>
90000a44:	66656593          	ori	a1,a0,1638
90000a48:	24b22823          	sw	a1,592(tp) # 250 <offset+0x1e8>

90000a4c <inst_171>:
90000a4c:	33333537          	lui	a0,0x33333
90000a50:	33350513          	addi	a0,a0,819 # 33333333 <offset+0x333332cb>
90000a54:	fd356593          	ori	a1,a0,-45
90000a58:	24b22a23          	sw	a1,596(tp) # 254 <offset+0x1ec>

90000a5c <inst_172>:
90000a5c:	33333537          	lui	a0,0x33333
90000a60:	33350513          	addi	a0,a0,819 # 33333333 <offset+0x333332cb>
90000a64:	02d56593          	ori	a1,a0,45
90000a68:	24b22c23          	sw	a1,600(tp) # 258 <offset+0x1f0>

90000a6c <inst_173>:
90000a6c:	33333537          	lui	a0,0x33333
90000a70:	33350513          	addi	a0,a0,819 # 33333333 <offset+0x333332cb>
90000a74:	00256593          	ori	a1,a0,2
90000a78:	24b22e23          	sw	a1,604(tp) # 25c <offset+0x1f4>

90000a7c <inst_174>:
90000a7c:	33333537          	lui	a0,0x33333
90000a80:	33350513          	addi	a0,a0,819 # 33333333 <offset+0x333332cb>
90000a84:	55456593          	ori	a1,a0,1364
90000a88:	26b22023          	sw	a1,608(tp) # 260 <offset+0x1f8>

90000a8c <inst_175>:
90000a8c:	33333537          	lui	a0,0x33333
90000a90:	33350513          	addi	a0,a0,819 # 33333333 <offset+0x333332cb>
90000a94:	00056593          	ori	a1,a0,0
90000a98:	26b22223          	sw	a1,612(tp) # 264 <offset+0x1fc>

90000a9c <inst_176>:
90000a9c:	33333537          	lui	a0,0x33333
90000aa0:	33350513          	addi	a0,a0,819 # 33333333 <offset+0x333332cb>
90000aa4:	00456593          	ori	a1,a0,4
90000aa8:	26b22423          	sw	a1,616(tp) # 268 <offset+0x200>

90000aac <inst_177>:
90000aac:	33333537          	lui	a0,0x33333
90000ab0:	33350513          	addi	a0,a0,819 # 33333333 <offset+0x333332cb>
90000ab4:	33256593          	ori	a1,a0,818
90000ab8:	26b22623          	sw	a1,620(tp) # 26c <offset+0x204>

90000abc <inst_178>:
90000abc:	33333537          	lui	a0,0x33333
90000ac0:	33350513          	addi	a0,a0,819 # 33333333 <offset+0x333332cb>
90000ac4:	66556593          	ori	a1,a0,1637
90000ac8:	26b22823          	sw	a1,624(tp) # 270 <offset+0x208>

90000acc <inst_179>:
90000acc:	33333537          	lui	a0,0x33333
90000ad0:	33350513          	addi	a0,a0,819 # 33333333 <offset+0x333332cb>
90000ad4:	02c56593          	ori	a1,a0,44
90000ad8:	26b22a23          	sw	a1,628(tp) # 274 <offset+0x20c>

90000adc <inst_180>:
90000adc:	33333537          	lui	a0,0x33333
90000ae0:	33350513          	addi	a0,a0,819 # 33333333 <offset+0x333332cb>
90000ae4:	55656593          	ori	a1,a0,1366
90000ae8:	26b22c23          	sw	a1,632(tp) # 278 <offset+0x210>

90000aec <inst_181>:
90000aec:	33333537          	lui	a0,0x33333
90000af0:	33350513          	addi	a0,a0,819 # 33333333 <offset+0x333332cb>
90000af4:	aab56593          	ori	a1,a0,-1365
90000af8:	26b22e23          	sw	a1,636(tp) # 27c <offset+0x214>

90000afc <inst_182>:
90000afc:	33333537          	lui	a0,0x33333
90000b00:	33350513          	addi	a0,a0,819 # 33333333 <offset+0x333332cb>
90000b04:	00656593          	ori	a1,a0,6
90000b08:	28b22023          	sw	a1,640(tp) # 280 <offset+0x218>

90000b0c <inst_183>:
90000b0c:	33333537          	lui	a0,0x33333
90000b10:	33350513          	addi	a0,a0,819 # 33333333 <offset+0x333332cb>
90000b14:	33456593          	ori	a1,a0,820
90000b18:	28b22223          	sw	a1,644(tp) # 284 <offset+0x21c>

90000b1c <inst_184>:
90000b1c:	33333537          	lui	a0,0x33333
90000b20:	33350513          	addi	a0,a0,819 # 33333333 <offset+0x333332cb>
90000b24:	66756593          	ori	a1,a0,1639
90000b28:	28b22423          	sw	a1,648(tp) # 288 <offset+0x220>

90000b2c <inst_185>:
90000b2c:	33333537          	lui	a0,0x33333
90000b30:	33350513          	addi	a0,a0,819 # 33333333 <offset+0x333332cb>
90000b34:	fd456593          	ori	a1,a0,-44
90000b38:	28b22623          	sw	a1,652(tp) # 28c <offset+0x224>

90000b3c <inst_186>:
90000b3c:	33333537          	lui	a0,0x33333
90000b40:	33350513          	addi	a0,a0,819 # 33333333 <offset+0x333332cb>
90000b44:	02e56593          	ori	a1,a0,46
90000b48:	28b22823          	sw	a1,656(tp) # 290 <offset+0x228>

90000b4c <inst_187>:
90000b4c:	66666537          	lui	a0,0x66666
90000b50:	66650513          	addi	a0,a0,1638 # 66666666 <offset+0x666665fe>
90000b54:	00356593          	ori	a1,a0,3
90000b58:	28b22a23          	sw	a1,660(tp) # 294 <offset+0x22c>

90000b5c <inst_188>:
90000b5c:	66666537          	lui	a0,0x66666
90000b60:	66650513          	addi	a0,a0,1638 # 66666666 <offset+0x666665fe>
90000b64:	55556593          	ori	a1,a0,1365
90000b68:	28b22c23          	sw	a1,664(tp) # 298 <offset+0x230>

90000b6c <inst_189>:
90000b6c:	66666537          	lui	a0,0x66666
90000b70:	66650513          	addi	a0,a0,1638 # 66666666 <offset+0x666665fe>
90000b74:	aaa56593          	ori	a1,a0,-1366
90000b78:	28b22e23          	sw	a1,668(tp) # 29c <offset+0x234>

90000b7c <inst_190>:
90000b7c:	66666537          	lui	a0,0x66666
90000b80:	66650513          	addi	a0,a0,1638 # 66666666 <offset+0x666665fe>
90000b84:	00556593          	ori	a1,a0,5
90000b88:	2ab22023          	sw	a1,672(tp) # 2a0 <offset+0x238>

90000b8c <inst_191>:
90000b8c:	66666537          	lui	a0,0x66666
90000b90:	66650513          	addi	a0,a0,1638 # 66666666 <offset+0x666665fe>
90000b94:	33356593          	ori	a1,a0,819
90000b98:	2ab22223          	sw	a1,676(tp) # 2a4 <offset+0x23c>

90000b9c <inst_192>:
90000b9c:	66666537          	lui	a0,0x66666
90000ba0:	66650513          	addi	a0,a0,1638 # 66666666 <offset+0x666665fe>
90000ba4:	66656593          	ori	a1,a0,1638
90000ba8:	2ab22423          	sw	a1,680(tp) # 2a8 <offset+0x240>

90000bac <inst_193>:
90000bac:	66666537          	lui	a0,0x66666
90000bb0:	66650513          	addi	a0,a0,1638 # 66666666 <offset+0x666665fe>
90000bb4:	fd356593          	ori	a1,a0,-45
90000bb8:	2ab22623          	sw	a1,684(tp) # 2ac <offset+0x244>

90000bbc <inst_194>:
90000bbc:	66666537          	lui	a0,0x66666
90000bc0:	66650513          	addi	a0,a0,1638 # 66666666 <offset+0x666665fe>
90000bc4:	02d56593          	ori	a1,a0,45
90000bc8:	2ab22823          	sw	a1,688(tp) # 2b0 <offset+0x248>

90000bcc <inst_195>:
90000bcc:	66666537          	lui	a0,0x66666
90000bd0:	66650513          	addi	a0,a0,1638 # 66666666 <offset+0x666665fe>
90000bd4:	00256593          	ori	a1,a0,2
90000bd8:	2ab22a23          	sw	a1,692(tp) # 2b4 <offset+0x24c>

90000bdc <inst_196>:
90000bdc:	66666537          	lui	a0,0x66666
90000be0:	66650513          	addi	a0,a0,1638 # 66666666 <offset+0x666665fe>
90000be4:	55456593          	ori	a1,a0,1364
90000be8:	2ab22c23          	sw	a1,696(tp) # 2b8 <offset+0x250>

90000bec <inst_197>:
90000bec:	66666537          	lui	a0,0x66666
90000bf0:	66650513          	addi	a0,a0,1638 # 66666666 <offset+0x666665fe>
90000bf4:	00056593          	ori	a1,a0,0
90000bf8:	2ab22e23          	sw	a1,700(tp) # 2bc <offset+0x254>

90000bfc <inst_198>:
90000bfc:	66666537          	lui	a0,0x66666
90000c00:	66650513          	addi	a0,a0,1638 # 66666666 <offset+0x666665fe>
90000c04:	00456593          	ori	a1,a0,4
90000c08:	2cb22023          	sw	a1,704(tp) # 2c0 <offset+0x258>

90000c0c <inst_199>:
90000c0c:	66666537          	lui	a0,0x66666
90000c10:	66650513          	addi	a0,a0,1638 # 66666666 <offset+0x666665fe>
90000c14:	33256593          	ori	a1,a0,818
90000c18:	2cb22223          	sw	a1,708(tp) # 2c4 <offset+0x25c>

90000c1c <inst_200>:
90000c1c:	66666537          	lui	a0,0x66666
90000c20:	66650513          	addi	a0,a0,1638 # 66666666 <offset+0x666665fe>
90000c24:	66556593          	ori	a1,a0,1637
90000c28:	2cb22423          	sw	a1,712(tp) # 2c8 <offset+0x260>

90000c2c <inst_201>:
90000c2c:	66666537          	lui	a0,0x66666
90000c30:	66650513          	addi	a0,a0,1638 # 66666666 <offset+0x666665fe>
90000c34:	02c56593          	ori	a1,a0,44
90000c38:	2cb22623          	sw	a1,716(tp) # 2cc <offset+0x264>

90000c3c <inst_202>:
90000c3c:	66666537          	lui	a0,0x66666
90000c40:	66650513          	addi	a0,a0,1638 # 66666666 <offset+0x666665fe>
90000c44:	55656593          	ori	a1,a0,1366
90000c48:	2cb22823          	sw	a1,720(tp) # 2d0 <offset+0x268>

90000c4c <inst_203>:
90000c4c:	66666537          	lui	a0,0x66666
90000c50:	66650513          	addi	a0,a0,1638 # 66666666 <offset+0x666665fe>
90000c54:	aab56593          	ori	a1,a0,-1365
90000c58:	2cb22a23          	sw	a1,724(tp) # 2d4 <offset+0x26c>

90000c5c <inst_204>:
90000c5c:	66666537          	lui	a0,0x66666
90000c60:	66650513          	addi	a0,a0,1638 # 66666666 <offset+0x666665fe>
90000c64:	00656593          	ori	a1,a0,6
90000c68:	2cb22c23          	sw	a1,728(tp) # 2d8 <offset+0x270>

90000c6c <inst_205>:
90000c6c:	66666537          	lui	a0,0x66666
90000c70:	66650513          	addi	a0,a0,1638 # 66666666 <offset+0x666665fe>
90000c74:	33456593          	ori	a1,a0,820
90000c78:	2cb22e23          	sw	a1,732(tp) # 2dc <offset+0x274>

90000c7c <inst_206>:
90000c7c:	66666537          	lui	a0,0x66666
90000c80:	66650513          	addi	a0,a0,1638 # 66666666 <offset+0x666665fe>
90000c84:	66756593          	ori	a1,a0,1639
90000c88:	2eb22023          	sw	a1,736(tp) # 2e0 <offset+0x278>

90000c8c <inst_207>:
90000c8c:	66666537          	lui	a0,0x66666
90000c90:	66650513          	addi	a0,a0,1638 # 66666666 <offset+0x666665fe>
90000c94:	fd456593          	ori	a1,a0,-44
90000c98:	2eb22223          	sw	a1,740(tp) # 2e4 <offset+0x27c>

90000c9c <inst_208>:
90000c9c:	66666537          	lui	a0,0x66666
90000ca0:	66650513          	addi	a0,a0,1638 # 66666666 <offset+0x666665fe>
90000ca4:	02e56593          	ori	a1,a0,46
90000ca8:	2eb22423          	sw	a1,744(tp) # 2e8 <offset+0x280>

90000cac <inst_209>:
90000cac:	ffff5537          	lui	a0,0xffff5
90000cb0:	afc50513          	addi	a0,a0,-1284 # ffff4afc <_end+0x6fff00f8>
90000cb4:	00356593          	ori	a1,a0,3
90000cb8:	2eb22623          	sw	a1,748(tp) # 2ec <offset+0x284>

90000cbc <inst_210>:
90000cbc:	ffff5537          	lui	a0,0xffff5
90000cc0:	afc50513          	addi	a0,a0,-1284 # ffff4afc <_end+0x6fff00f8>
90000cc4:	55556593          	ori	a1,a0,1365
90000cc8:	2eb22823          	sw	a1,752(tp) # 2f0 <offset+0x288>

90000ccc <inst_211>:
90000ccc:	ffff5537          	lui	a0,0xffff5
90000cd0:	afc50513          	addi	a0,a0,-1284 # ffff4afc <_end+0x6fff00f8>
90000cd4:	00556593          	ori	a1,a0,5
90000cd8:	2eb22a23          	sw	a1,756(tp) # 2f4 <offset+0x28c>

90000cdc <inst_212>:
90000cdc:	ffff5537          	lui	a0,0xffff5
90000ce0:	afc50513          	addi	a0,a0,-1284 # ffff4afc <_end+0x6fff00f8>
90000ce4:	33356593          	ori	a1,a0,819
90000ce8:	2eb22c23          	sw	a1,760(tp) # 2f8 <offset+0x290>

90000cec <inst_213>:
90000cec:	ffff5537          	lui	a0,0xffff5
90000cf0:	afc50513          	addi	a0,a0,-1284 # ffff4afc <_end+0x6fff00f8>
90000cf4:	66656593          	ori	a1,a0,1638
90000cf8:	2eb22e23          	sw	a1,764(tp) # 2fc <offset+0x294>

90000cfc <inst_214>:
90000cfc:	ffff5537          	lui	a0,0xffff5
90000d00:	afc50513          	addi	a0,a0,-1284 # ffff4afc <_end+0x6fff00f8>
90000d04:	fd356593          	ori	a1,a0,-45
90000d08:	30b22023          	sw	a1,768(tp) # 300 <offset+0x298>

90000d0c <inst_215>:
90000d0c:	ffff5537          	lui	a0,0xffff5
90000d10:	afc50513          	addi	a0,a0,-1284 # ffff4afc <_end+0x6fff00f8>
90000d14:	02d56593          	ori	a1,a0,45
90000d18:	30b22223          	sw	a1,772(tp) # 304 <offset+0x29c>

90000d1c <inst_216>:
90000d1c:	ffff5537          	lui	a0,0xffff5
90000d20:	afc50513          	addi	a0,a0,-1284 # ffff4afc <_end+0x6fff00f8>
90000d24:	00256593          	ori	a1,a0,2
90000d28:	30b22423          	sw	a1,776(tp) # 308 <offset+0x2a0>

90000d2c <inst_217>:
90000d2c:	ffff5537          	lui	a0,0xffff5
90000d30:	afc50513          	addi	a0,a0,-1284 # ffff4afc <_end+0x6fff00f8>
90000d34:	55456593          	ori	a1,a0,1364
90000d38:	30b22623          	sw	a1,780(tp) # 30c <offset+0x2a4>

90000d3c <inst_218>:
90000d3c:	ffff5537          	lui	a0,0xffff5
90000d40:	afc50513          	addi	a0,a0,-1284 # ffff4afc <_end+0x6fff00f8>
90000d44:	00056593          	ori	a1,a0,0
90000d48:	30b22823          	sw	a1,784(tp) # 310 <offset+0x2a8>

90000d4c <inst_219>:
90000d4c:	ffff5537          	lui	a0,0xffff5
90000d50:	afc50513          	addi	a0,a0,-1284 # ffff4afc <_end+0x6fff00f8>
90000d54:	00456593          	ori	a1,a0,4
90000d58:	30b22a23          	sw	a1,788(tp) # 314 <offset+0x2ac>

90000d5c <inst_220>:
90000d5c:	ffff5537          	lui	a0,0xffff5
90000d60:	afc50513          	addi	a0,a0,-1284 # ffff4afc <_end+0x6fff00f8>
90000d64:	33256593          	ori	a1,a0,818
90000d68:	30b22c23          	sw	a1,792(tp) # 318 <offset+0x2b0>

90000d6c <inst_221>:
90000d6c:	ffff5537          	lui	a0,0xffff5
90000d70:	afc50513          	addi	a0,a0,-1284 # ffff4afc <_end+0x6fff00f8>
90000d74:	66556593          	ori	a1,a0,1637
90000d78:	30b22e23          	sw	a1,796(tp) # 31c <offset+0x2b4>

90000d7c <inst_222>:
90000d7c:	ffff5537          	lui	a0,0xffff5
90000d80:	afc50513          	addi	a0,a0,-1284 # ffff4afc <_end+0x6fff00f8>
90000d84:	02c56593          	ori	a1,a0,44
90000d88:	32b22023          	sw	a1,800(tp) # 320 <offset+0x2b8>

90000d8c <inst_223>:
90000d8c:	ffff5537          	lui	a0,0xffff5
90000d90:	afc50513          	addi	a0,a0,-1284 # ffff4afc <_end+0x6fff00f8>
90000d94:	55656593          	ori	a1,a0,1366
90000d98:	32b22223          	sw	a1,804(tp) # 324 <offset+0x2bc>

90000d9c <inst_224>:
90000d9c:	ffff5537          	lui	a0,0xffff5
90000da0:	afc50513          	addi	a0,a0,-1284 # ffff4afc <_end+0x6fff00f8>
90000da4:	aab56593          	ori	a1,a0,-1365
90000da8:	32b22423          	sw	a1,808(tp) # 328 <offset+0x2c0>

90000dac <inst_225>:
90000dac:	ffff5537          	lui	a0,0xffff5
90000db0:	afc50513          	addi	a0,a0,-1284 # ffff4afc <_end+0x6fff00f8>
90000db4:	00656593          	ori	a1,a0,6
90000db8:	32b22623          	sw	a1,812(tp) # 32c <offset+0x2c4>

90000dbc <inst_226>:
90000dbc:	ffff5537          	lui	a0,0xffff5
90000dc0:	afc50513          	addi	a0,a0,-1284 # ffff4afc <_end+0x6fff00f8>
90000dc4:	33456593          	ori	a1,a0,820
90000dc8:	32b22823          	sw	a1,816(tp) # 330 <offset+0x2c8>

90000dcc <inst_227>:
90000dcc:	ffff5537          	lui	a0,0xffff5
90000dd0:	afc50513          	addi	a0,a0,-1284 # ffff4afc <_end+0x6fff00f8>
90000dd4:	66756593          	ori	a1,a0,1639
90000dd8:	32b22a23          	sw	a1,820(tp) # 334 <offset+0x2cc>

90000ddc <inst_228>:
90000ddc:	ffff5537          	lui	a0,0xffff5
90000de0:	afc50513          	addi	a0,a0,-1284 # ffff4afc <_end+0x6fff00f8>
90000de4:	fd456593          	ori	a1,a0,-44
90000de8:	32b22c23          	sw	a1,824(tp) # 338 <offset+0x2d0>

90000dec <inst_229>:
90000dec:	ffff5537          	lui	a0,0xffff5
90000df0:	afc50513          	addi	a0,a0,-1284 # ffff4afc <_end+0x6fff00f8>
90000df4:	02e56593          	ori	a1,a0,46
90000df8:	32b22e23          	sw	a1,828(tp) # 33c <offset+0x2d4>

90000dfc <inst_230>:
90000dfc:	0000b537          	lui	a0,0xb
90000e00:	50450513          	addi	a0,a0,1284 # b504 <offset+0xb49c>
90000e04:	00356593          	ori	a1,a0,3
90000e08:	34b22023          	sw	a1,832(tp) # 340 <offset+0x2d8>

90000e0c <inst_231>:
90000e0c:	0000b537          	lui	a0,0xb
90000e10:	50450513          	addi	a0,a0,1284 # b504 <offset+0xb49c>
90000e14:	55556593          	ori	a1,a0,1365
90000e18:	34b22223          	sw	a1,836(tp) # 344 <offset+0x2dc>

90000e1c <inst_232>:
90000e1c:	0000b537          	lui	a0,0xb
90000e20:	50450513          	addi	a0,a0,1284 # b504 <offset+0xb49c>
90000e24:	aaa56593          	ori	a1,a0,-1366
90000e28:	34b22423          	sw	a1,840(tp) # 348 <offset+0x2e0>

90000e2c <inst_233>:
90000e2c:	0000b537          	lui	a0,0xb
90000e30:	50450513          	addi	a0,a0,1284 # b504 <offset+0xb49c>
90000e34:	00556593          	ori	a1,a0,5
90000e38:	34b22623          	sw	a1,844(tp) # 34c <offset+0x2e4>

90000e3c <inst_234>:
90000e3c:	0000b537          	lui	a0,0xb
90000e40:	50450513          	addi	a0,a0,1284 # b504 <offset+0xb49c>
90000e44:	33356593          	ori	a1,a0,819
90000e48:	34b22823          	sw	a1,848(tp) # 350 <offset+0x2e8>

90000e4c <inst_235>:
90000e4c:	0000b537          	lui	a0,0xb
90000e50:	50450513          	addi	a0,a0,1284 # b504 <offset+0xb49c>
90000e54:	66656593          	ori	a1,a0,1638
90000e58:	34b22a23          	sw	a1,852(tp) # 354 <offset+0x2ec>

90000e5c <inst_236>:
90000e5c:	0000b537          	lui	a0,0xb
90000e60:	50450513          	addi	a0,a0,1284 # b504 <offset+0xb49c>
90000e64:	fd356593          	ori	a1,a0,-45
90000e68:	34b22c23          	sw	a1,856(tp) # 358 <offset+0x2f0>

90000e6c <inst_237>:
90000e6c:	0000b537          	lui	a0,0xb
90000e70:	50450513          	addi	a0,a0,1284 # b504 <offset+0xb49c>
90000e74:	02d56593          	ori	a1,a0,45
90000e78:	34b22e23          	sw	a1,860(tp) # 35c <offset+0x2f4>

90000e7c <inst_238>:
90000e7c:	0000b537          	lui	a0,0xb
90000e80:	50450513          	addi	a0,a0,1284 # b504 <offset+0xb49c>
90000e84:	00256593          	ori	a1,a0,2
90000e88:	36b22023          	sw	a1,864(tp) # 360 <offset+0x2f8>

90000e8c <inst_239>:
90000e8c:	0000b537          	lui	a0,0xb
90000e90:	50450513          	addi	a0,a0,1284 # b504 <offset+0xb49c>
90000e94:	55456593          	ori	a1,a0,1364
90000e98:	36b22223          	sw	a1,868(tp) # 364 <offset+0x2fc>

90000e9c <inst_240>:
90000e9c:	0000b537          	lui	a0,0xb
90000ea0:	50450513          	addi	a0,a0,1284 # b504 <offset+0xb49c>
90000ea4:	00056593          	ori	a1,a0,0
90000ea8:	36b22423          	sw	a1,872(tp) # 368 <offset+0x300>

90000eac <inst_241>:
90000eac:	0000b537          	lui	a0,0xb
90000eb0:	50450513          	addi	a0,a0,1284 # b504 <offset+0xb49c>
90000eb4:	00456593          	ori	a1,a0,4
90000eb8:	36b22623          	sw	a1,876(tp) # 36c <offset+0x304>

90000ebc <inst_242>:
90000ebc:	0000b537          	lui	a0,0xb
90000ec0:	50450513          	addi	a0,a0,1284 # b504 <offset+0xb49c>
90000ec4:	33256593          	ori	a1,a0,818
90000ec8:	36b22823          	sw	a1,880(tp) # 370 <offset+0x308>

90000ecc <inst_243>:
90000ecc:	0000b537          	lui	a0,0xb
90000ed0:	50450513          	addi	a0,a0,1284 # b504 <offset+0xb49c>
90000ed4:	66556593          	ori	a1,a0,1637
90000ed8:	36b22a23          	sw	a1,884(tp) # 374 <offset+0x30c>

90000edc <inst_244>:
90000edc:	0000b537          	lui	a0,0xb
90000ee0:	50450513          	addi	a0,a0,1284 # b504 <offset+0xb49c>
90000ee4:	02c56593          	ori	a1,a0,44
90000ee8:	36b22c23          	sw	a1,888(tp) # 378 <offset+0x310>

90000eec <inst_245>:
90000eec:	0000b537          	lui	a0,0xb
90000ef0:	50450513          	addi	a0,a0,1284 # b504 <offset+0xb49c>
90000ef4:	55656593          	ori	a1,a0,1366
90000ef8:	36b22e23          	sw	a1,892(tp) # 37c <offset+0x314>

90000efc <inst_246>:
90000efc:	0000b537          	lui	a0,0xb
90000f00:	50450513          	addi	a0,a0,1284 # b504 <offset+0xb49c>
90000f04:	aab56593          	ori	a1,a0,-1365
90000f08:	38b22023          	sw	a1,896(tp) # 380 <offset+0x318>

90000f0c <inst_247>:
90000f0c:	0000b537          	lui	a0,0xb
90000f10:	50450513          	addi	a0,a0,1284 # b504 <offset+0xb49c>
90000f14:	00656593          	ori	a1,a0,6
90000f18:	38b22223          	sw	a1,900(tp) # 384 <offset+0x31c>

90000f1c <inst_248>:
90000f1c:	0000b537          	lui	a0,0xb
90000f20:	50450513          	addi	a0,a0,1284 # b504 <offset+0xb49c>
90000f24:	33456593          	ori	a1,a0,820
90000f28:	38b22423          	sw	a1,904(tp) # 388 <offset+0x320>

90000f2c <inst_249>:
90000f2c:	0000b537          	lui	a0,0xb
90000f30:	50450513          	addi	a0,a0,1284 # b504 <offset+0xb49c>
90000f34:	66756593          	ori	a1,a0,1639
90000f38:	38b22623          	sw	a1,908(tp) # 38c <offset+0x324>

90000f3c <inst_250>:
90000f3c:	0000b537          	lui	a0,0xb
90000f40:	50450513          	addi	a0,a0,1284 # b504 <offset+0xb49c>
90000f44:	fd456593          	ori	a1,a0,-44
90000f48:	38b22823          	sw	a1,912(tp) # 390 <offset+0x328>

90000f4c <inst_251>:
90000f4c:	0000b537          	lui	a0,0xb
90000f50:	50450513          	addi	a0,a0,1284 # b504 <offset+0xb49c>
90000f54:	02e56593          	ori	a1,a0,46
90000f58:	38b22a23          	sw	a1,916(tp) # 394 <offset+0x32c>

90000f5c <inst_252>:
90000f5c:	00200513          	li	a0,2
90000f60:	00356593          	ori	a1,a0,3
90000f64:	38b22c23          	sw	a1,920(tp) # 398 <offset+0x330>

90000f68 <inst_253>:
90000f68:	00200513          	li	a0,2
90000f6c:	55556593          	ori	a1,a0,1365
90000f70:	38b22e23          	sw	a1,924(tp) # 39c <offset+0x334>

90000f74 <inst_254>:
90000f74:	00200513          	li	a0,2
90000f78:	aaa56593          	ori	a1,a0,-1366
90000f7c:	3ab22023          	sw	a1,928(tp) # 3a0 <offset+0x338>

90000f80 <inst_255>:
90000f80:	00200513          	li	a0,2
90000f84:	00556593          	ori	a1,a0,5
90000f88:	3ab22223          	sw	a1,932(tp) # 3a4 <offset+0x33c>

90000f8c <inst_256>:
90000f8c:	00200513          	li	a0,2
90000f90:	33356593          	ori	a1,a0,819
90000f94:	3ab22423          	sw	a1,936(tp) # 3a8 <offset+0x340>

90000f98 <inst_257>:
90000f98:	00200513          	li	a0,2
90000f9c:	66656593          	ori	a1,a0,1638
90000fa0:	3ab22623          	sw	a1,940(tp) # 3ac <offset+0x344>

90000fa4 <inst_258>:
90000fa4:	00200513          	li	a0,2
90000fa8:	fd356593          	ori	a1,a0,-45
90000fac:	3ab22823          	sw	a1,944(tp) # 3b0 <offset+0x348>

90000fb0 <inst_259>:
90000fb0:	00200513          	li	a0,2
90000fb4:	02d56593          	ori	a1,a0,45
90000fb8:	3ab22a23          	sw	a1,948(tp) # 3b4 <offset+0x34c>

90000fbc <inst_260>:
90000fbc:	00200513          	li	a0,2
90000fc0:	00256593          	ori	a1,a0,2
90000fc4:	3ab22c23          	sw	a1,952(tp) # 3b8 <offset+0x350>

90000fc8 <inst_261>:
90000fc8:	00200513          	li	a0,2
90000fcc:	55456593          	ori	a1,a0,1364
90000fd0:	3ab22e23          	sw	a1,956(tp) # 3bc <offset+0x354>

90000fd4 <inst_262>:
90000fd4:	00200513          	li	a0,2
90000fd8:	00056593          	ori	a1,a0,0
90000fdc:	3cb22023          	sw	a1,960(tp) # 3c0 <offset+0x358>

90000fe0 <inst_263>:
90000fe0:	00200513          	li	a0,2
90000fe4:	00456593          	ori	a1,a0,4
90000fe8:	3cb22223          	sw	a1,964(tp) # 3c4 <offset+0x35c>

90000fec <inst_264>:
90000fec:	00200513          	li	a0,2
90000ff0:	33256593          	ori	a1,a0,818
90000ff4:	3cb22423          	sw	a1,968(tp) # 3c8 <offset+0x360>

90000ff8 <inst_265>:
90000ff8:	00200513          	li	a0,2
90000ffc:	66556593          	ori	a1,a0,1637
90001000:	3cb22623          	sw	a1,972(tp) # 3cc <offset+0x364>

90001004 <inst_266>:
90001004:	00200513          	li	a0,2
90001008:	02c56593          	ori	a1,a0,44
9000100c:	3cb22823          	sw	a1,976(tp) # 3d0 <offset+0x368>

90001010 <inst_267>:
90001010:	00200513          	li	a0,2
90001014:	55656593          	ori	a1,a0,1366
90001018:	3cb22a23          	sw	a1,980(tp) # 3d4 <offset+0x36c>

9000101c <inst_268>:
9000101c:	00200513          	li	a0,2
90001020:	aab56593          	ori	a1,a0,-1365
90001024:	3cb22c23          	sw	a1,984(tp) # 3d8 <offset+0x370>

90001028 <inst_269>:
90001028:	00200513          	li	a0,2
9000102c:	00656593          	ori	a1,a0,6
90001030:	3cb22e23          	sw	a1,988(tp) # 3dc <offset+0x374>

90001034 <inst_270>:
90001034:	00200513          	li	a0,2
90001038:	33456593          	ori	a1,a0,820
9000103c:	3eb22023          	sw	a1,992(tp) # 3e0 <offset+0x378>

90001040 <inst_271>:
90001040:	00200513          	li	a0,2
90001044:	66756593          	ori	a1,a0,1639
90001048:	3eb22223          	sw	a1,996(tp) # 3e4 <offset+0x37c>

9000104c <inst_272>:
9000104c:	00200513          	li	a0,2
90001050:	fd456593          	ori	a1,a0,-44
90001054:	3eb22423          	sw	a1,1000(tp) # 3e8 <offset+0x380>

90001058 <inst_273>:
90001058:	00200513          	li	a0,2
9000105c:	02e56593          	ori	a1,a0,46
90001060:	3eb22623          	sw	a1,1004(tp) # 3ec <offset+0x384>

90001064 <inst_274>:
90001064:	55555537          	lui	a0,0x55555
90001068:	55450513          	addi	a0,a0,1364 # 55555554 <offset+0x555554ec>
9000106c:	00356593          	ori	a1,a0,3
90001070:	3eb22823          	sw	a1,1008(tp) # 3f0 <offset+0x388>

90001074 <inst_275>:
90001074:	55555537          	lui	a0,0x55555
90001078:	55450513          	addi	a0,a0,1364 # 55555554 <offset+0x555554ec>
9000107c:	55556593          	ori	a1,a0,1365
90001080:	3eb22a23          	sw	a1,1012(tp) # 3f4 <offset+0x38c>

90001084 <inst_276>:
90001084:	55555537          	lui	a0,0x55555
90001088:	55450513          	addi	a0,a0,1364 # 55555554 <offset+0x555554ec>
9000108c:	aaa56593          	ori	a1,a0,-1366
90001090:	3eb22c23          	sw	a1,1016(tp) # 3f8 <offset+0x390>

90001094 <inst_277>:
90001094:	55555537          	lui	a0,0x55555
90001098:	55450513          	addi	a0,a0,1364 # 55555554 <offset+0x555554ec>
9000109c:	00556593          	ori	a1,a0,5
900010a0:	3eb22e23          	sw	a1,1020(tp) # 3fc <offset+0x394>

900010a4 <inst_278>:
900010a4:	55555537          	lui	a0,0x55555
900010a8:	55450513          	addi	a0,a0,1364 # 55555554 <offset+0x555554ec>
900010ac:	33356593          	ori	a1,a0,819
900010b0:	40b22023          	sw	a1,1024(tp) # 400 <offset+0x398>

900010b4 <inst_279>:
900010b4:	55555537          	lui	a0,0x55555
900010b8:	55450513          	addi	a0,a0,1364 # 55555554 <offset+0x555554ec>
900010bc:	66656593          	ori	a1,a0,1638
900010c0:	40b22223          	sw	a1,1028(tp) # 404 <offset+0x39c>

900010c4 <inst_280>:
900010c4:	55555537          	lui	a0,0x55555
900010c8:	55450513          	addi	a0,a0,1364 # 55555554 <offset+0x555554ec>
900010cc:	fd356593          	ori	a1,a0,-45
900010d0:	40b22423          	sw	a1,1032(tp) # 408 <offset+0x3a0>

900010d4 <inst_281>:
900010d4:	55555537          	lui	a0,0x55555
900010d8:	55450513          	addi	a0,a0,1364 # 55555554 <offset+0x555554ec>
900010dc:	02d56593          	ori	a1,a0,45
900010e0:	40b22623          	sw	a1,1036(tp) # 40c <offset+0x3a4>

900010e4 <inst_282>:
900010e4:	55555537          	lui	a0,0x55555
900010e8:	55450513          	addi	a0,a0,1364 # 55555554 <offset+0x555554ec>
900010ec:	00256593          	ori	a1,a0,2
900010f0:	40b22823          	sw	a1,1040(tp) # 410 <offset+0x3a8>

900010f4 <inst_283>:
900010f4:	55555537          	lui	a0,0x55555
900010f8:	55450513          	addi	a0,a0,1364 # 55555554 <offset+0x555554ec>
900010fc:	55456593          	ori	a1,a0,1364
90001100:	40b22a23          	sw	a1,1044(tp) # 414 <offset+0x3ac>

90001104 <inst_284>:
90001104:	55555537          	lui	a0,0x55555
90001108:	55450513          	addi	a0,a0,1364 # 55555554 <offset+0x555554ec>
9000110c:	00056593          	ori	a1,a0,0
90001110:	40b22c23          	sw	a1,1048(tp) # 418 <offset+0x3b0>

90001114 <inst_285>:
90001114:	55555537          	lui	a0,0x55555
90001118:	55450513          	addi	a0,a0,1364 # 55555554 <offset+0x555554ec>
9000111c:	00456593          	ori	a1,a0,4
90001120:	40b22e23          	sw	a1,1052(tp) # 41c <offset+0x3b4>

90001124 <inst_286>:
90001124:	55555537          	lui	a0,0x55555
90001128:	55450513          	addi	a0,a0,1364 # 55555554 <offset+0x555554ec>
9000112c:	33256593          	ori	a1,a0,818
90001130:	42b22023          	sw	a1,1056(tp) # 420 <offset+0x3b8>

90001134 <inst_287>:
90001134:	55555537          	lui	a0,0x55555
90001138:	55450513          	addi	a0,a0,1364 # 55555554 <offset+0x555554ec>
9000113c:	66556593          	ori	a1,a0,1637
90001140:	42b22223          	sw	a1,1060(tp) # 424 <offset+0x3bc>

90001144 <inst_288>:
90001144:	55555537          	lui	a0,0x55555
90001148:	55450513          	addi	a0,a0,1364 # 55555554 <offset+0x555554ec>
9000114c:	02c56593          	ori	a1,a0,44
90001150:	42b22423          	sw	a1,1064(tp) # 428 <offset+0x3c0>

90001154 <inst_289>:
90001154:	55555537          	lui	a0,0x55555
90001158:	55450513          	addi	a0,a0,1364 # 55555554 <offset+0x555554ec>
9000115c:	55656593          	ori	a1,a0,1366
90001160:	42b22623          	sw	a1,1068(tp) # 42c <offset+0x3c4>

90001164 <inst_290>:
90001164:	55555537          	lui	a0,0x55555
90001168:	55450513          	addi	a0,a0,1364 # 55555554 <offset+0x555554ec>
9000116c:	aab56593          	ori	a1,a0,-1365
90001170:	42b22823          	sw	a1,1072(tp) # 430 <offset+0x3c8>

90001174 <inst_291>:
90001174:	55555537          	lui	a0,0x55555
90001178:	55450513          	addi	a0,a0,1364 # 55555554 <offset+0x555554ec>
9000117c:	00656593          	ori	a1,a0,6
90001180:	42b22a23          	sw	a1,1076(tp) # 434 <offset+0x3cc>

90001184 <inst_292>:
90001184:	55555537          	lui	a0,0x55555
90001188:	55450513          	addi	a0,a0,1364 # 55555554 <offset+0x555554ec>
9000118c:	33456593          	ori	a1,a0,820
90001190:	42b22c23          	sw	a1,1080(tp) # 438 <offset+0x3d0>

90001194 <inst_293>:
90001194:	55555537          	lui	a0,0x55555
90001198:	55450513          	addi	a0,a0,1364 # 55555554 <offset+0x555554ec>
9000119c:	66756593          	ori	a1,a0,1639
900011a0:	42b22e23          	sw	a1,1084(tp) # 43c <offset+0x3d4>

900011a4 <inst_294>:
900011a4:	55555537          	lui	a0,0x55555
900011a8:	55450513          	addi	a0,a0,1364 # 55555554 <offset+0x555554ec>
900011ac:	fd456593          	ori	a1,a0,-44
900011b0:	44b22023          	sw	a1,1088(tp) # 440 <offset+0x3d8>

900011b4 <inst_295>:
900011b4:	55555537          	lui	a0,0x55555
900011b8:	55450513          	addi	a0,a0,1364 # 55555554 <offset+0x555554ec>
900011bc:	02e56593          	ori	a1,a0,46
900011c0:	44b22223          	sw	a1,1092(tp) # 444 <offset+0x3dc>

900011c4 <inst_296>:
900011c4:	00000513          	li	a0,0
900011c8:	00356593          	ori	a1,a0,3
900011cc:	44b22423          	sw	a1,1096(tp) # 448 <offset+0x3e0>

900011d0 <inst_297>:
900011d0:	00000513          	li	a0,0
900011d4:	55556593          	ori	a1,a0,1365
900011d8:	44b22623          	sw	a1,1100(tp) # 44c <offset+0x3e4>

900011dc <inst_298>:
900011dc:	00000513          	li	a0,0
900011e0:	aaa56593          	ori	a1,a0,-1366
900011e4:	44b22823          	sw	a1,1104(tp) # 450 <offset+0x3e8>

900011e8 <inst_299>:
900011e8:	00000513          	li	a0,0
900011ec:	00556593          	ori	a1,a0,5
900011f0:	44b22a23          	sw	a1,1108(tp) # 454 <offset+0x3ec>

900011f4 <inst_300>:
900011f4:	00000513          	li	a0,0
900011f8:	33356593          	ori	a1,a0,819
900011fc:	44b22c23          	sw	a1,1112(tp) # 458 <offset+0x3f0>

90001200 <inst_301>:
90001200:	00000513          	li	a0,0
90001204:	66656593          	ori	a1,a0,1638
90001208:	44b22e23          	sw	a1,1116(tp) # 45c <offset+0x3f4>

9000120c <inst_302>:
9000120c:	00000513          	li	a0,0
90001210:	fd356593          	ori	a1,a0,-45
90001214:	46b22023          	sw	a1,1120(tp) # 460 <offset+0x3f8>

90001218 <inst_303>:
90001218:	33333537          	lui	a0,0x33333
9000121c:	33450513          	addi	a0,a0,820 # 33333334 <offset+0x333332cc>
90001220:	33256593          	ori	a1,a0,818
90001224:	46b22223          	sw	a1,1124(tp) # 464 <offset+0x3fc>

90001228 <inst_304>:
90001228:	33333537          	lui	a0,0x33333
9000122c:	33450513          	addi	a0,a0,820 # 33333334 <offset+0x333332cc>
90001230:	66556593          	ori	a1,a0,1637
90001234:	46b22423          	sw	a1,1128(tp) # 468 <offset+0x400>

90001238 <inst_305>:
90001238:	33333537          	lui	a0,0x33333
9000123c:	33450513          	addi	a0,a0,820 # 33333334 <offset+0x333332cc>
90001240:	02c56593          	ori	a1,a0,44
90001244:	46b22623          	sw	a1,1132(tp) # 46c <offset+0x404>

90001248 <inst_306>:
90001248:	33333537          	lui	a0,0x33333
9000124c:	33450513          	addi	a0,a0,820 # 33333334 <offset+0x333332cc>
90001250:	55656593          	ori	a1,a0,1366
90001254:	46b22823          	sw	a1,1136(tp) # 470 <offset+0x408>

90001258 <inst_307>:
90001258:	33333537          	lui	a0,0x33333
9000125c:	33450513          	addi	a0,a0,820 # 33333334 <offset+0x333332cc>
90001260:	aab56593          	ori	a1,a0,-1365
90001264:	46b22a23          	sw	a1,1140(tp) # 474 <offset+0x40c>

90001268 <inst_308>:
90001268:	33333537          	lui	a0,0x33333
9000126c:	33450513          	addi	a0,a0,820 # 33333334 <offset+0x333332cc>
90001270:	00656593          	ori	a1,a0,6
90001274:	46b22c23          	sw	a1,1144(tp) # 478 <offset+0x410>

90001278 <inst_309>:
90001278:	33333537          	lui	a0,0x33333
9000127c:	33450513          	addi	a0,a0,820 # 33333334 <offset+0x333332cc>
90001280:	33456593          	ori	a1,a0,820
90001284:	46b22e23          	sw	a1,1148(tp) # 47c <offset+0x414>

90001288 <inst_310>:
90001288:	33333537          	lui	a0,0x33333
9000128c:	33450513          	addi	a0,a0,820 # 33333334 <offset+0x333332cc>
90001290:	66756593          	ori	a1,a0,1639
90001294:	48b22023          	sw	a1,1152(tp) # 480 <offset+0x418>

90001298 <inst_311>:
90001298:	33333537          	lui	a0,0x33333
9000129c:	33450513          	addi	a0,a0,820 # 33333334 <offset+0x333332cc>
900012a0:	fd456593          	ori	a1,a0,-44
900012a4:	48b22223          	sw	a1,1156(tp) # 484 <offset+0x41c>

900012a8 <inst_312>:
900012a8:	33333537          	lui	a0,0x33333
900012ac:	33450513          	addi	a0,a0,820 # 33333334 <offset+0x333332cc>
900012b0:	02e56593          	ori	a1,a0,46
900012b4:	48b22423          	sw	a1,1160(tp) # 488 <offset+0x420>

900012b8 <inst_313>:
900012b8:	66666537          	lui	a0,0x66666
900012bc:	66750513          	addi	a0,a0,1639 # 66666667 <offset+0x666665ff>
900012c0:	00356593          	ori	a1,a0,3
900012c4:	48b22623          	sw	a1,1164(tp) # 48c <offset+0x424>

900012c8 <inst_314>:
900012c8:	66666537          	lui	a0,0x66666
900012cc:	66750513          	addi	a0,a0,1639 # 66666667 <offset+0x666665ff>
900012d0:	55556593          	ori	a1,a0,1365
900012d4:	48b22823          	sw	a1,1168(tp) # 490 <offset+0x428>

900012d8 <inst_315>:
900012d8:	66666537          	lui	a0,0x66666
900012dc:	66750513          	addi	a0,a0,1639 # 66666667 <offset+0x666665ff>
900012e0:	aaa56593          	ori	a1,a0,-1366
900012e4:	48b22a23          	sw	a1,1172(tp) # 494 <offset+0x42c>

900012e8 <inst_316>:
900012e8:	66666537          	lui	a0,0x66666
900012ec:	66750513          	addi	a0,a0,1639 # 66666667 <offset+0x666665ff>
900012f0:	00556593          	ori	a1,a0,5
900012f4:	48b22c23          	sw	a1,1176(tp) # 498 <offset+0x430>

900012f8 <inst_317>:
900012f8:	66666537          	lui	a0,0x66666
900012fc:	66750513          	addi	a0,a0,1639 # 66666667 <offset+0x666665ff>
90001300:	33356593          	ori	a1,a0,819
90001304:	48b22e23          	sw	a1,1180(tp) # 49c <offset+0x434>

90001308 <inst_318>:
90001308:	66666537          	lui	a0,0x66666
9000130c:	66750513          	addi	a0,a0,1639 # 66666667 <offset+0x666665ff>
90001310:	66656593          	ori	a1,a0,1638
90001314:	4ab22023          	sw	a1,1184(tp) # 4a0 <offset+0x438>

90001318 <inst_319>:
90001318:	66666537          	lui	a0,0x66666
9000131c:	66750513          	addi	a0,a0,1639 # 66666667 <offset+0x666665ff>
90001320:	fd356593          	ori	a1,a0,-45
90001324:	4ab22223          	sw	a1,1188(tp) # 4a4 <offset+0x43c>

90001328 <inst_320>:
90001328:	66666537          	lui	a0,0x66666
9000132c:	66750513          	addi	a0,a0,1639 # 66666667 <offset+0x666665ff>
90001330:	02d56593          	ori	a1,a0,45
90001334:	4ab22423          	sw	a1,1192(tp) # 4a8 <offset+0x440>

90001338 <inst_321>:
90001338:	66666537          	lui	a0,0x66666
9000133c:	66750513          	addi	a0,a0,1639 # 66666667 <offset+0x666665ff>
90001340:	00256593          	ori	a1,a0,2
90001344:	4ab22623          	sw	a1,1196(tp) # 4ac <offset+0x444>

90001348 <inst_322>:
90001348:	66666537          	lui	a0,0x66666
9000134c:	66750513          	addi	a0,a0,1639 # 66666667 <offset+0x666665ff>
90001350:	55456593          	ori	a1,a0,1364
90001354:	4ab22823          	sw	a1,1200(tp) # 4b0 <offset+0x448>

90001358 <inst_323>:
90001358:	66666537          	lui	a0,0x66666
9000135c:	66750513          	addi	a0,a0,1639 # 66666667 <offset+0x666665ff>
90001360:	00056593          	ori	a1,a0,0
90001364:	4ab22a23          	sw	a1,1204(tp) # 4b4 <offset+0x44c>

90001368 <inst_324>:
90001368:	66666537          	lui	a0,0x66666
9000136c:	66750513          	addi	a0,a0,1639 # 66666667 <offset+0x666665ff>
90001370:	00456593          	ori	a1,a0,4
90001374:	4ab22c23          	sw	a1,1208(tp) # 4b8 <offset+0x450>

90001378 <inst_325>:
90001378:	66666537          	lui	a0,0x66666
9000137c:	66750513          	addi	a0,a0,1639 # 66666667 <offset+0x666665ff>
90001380:	33256593          	ori	a1,a0,818
90001384:	4ab22e23          	sw	a1,1212(tp) # 4bc <offset+0x454>

90001388 <inst_326>:
90001388:	66666537          	lui	a0,0x66666
9000138c:	66750513          	addi	a0,a0,1639 # 66666667 <offset+0x666665ff>
90001390:	66556593          	ori	a1,a0,1637
90001394:	4cb22023          	sw	a1,1216(tp) # 4c0 <offset+0x458>

90001398 <inst_327>:
90001398:	66666537          	lui	a0,0x66666
9000139c:	66750513          	addi	a0,a0,1639 # 66666667 <offset+0x666665ff>
900013a0:	02c56593          	ori	a1,a0,44
900013a4:	4cb22223          	sw	a1,1220(tp) # 4c4 <offset+0x45c>

900013a8 <inst_328>:
900013a8:	66666537          	lui	a0,0x66666
900013ac:	66750513          	addi	a0,a0,1639 # 66666667 <offset+0x666665ff>
900013b0:	55656593          	ori	a1,a0,1366
900013b4:	4cb22423          	sw	a1,1224(tp) # 4c8 <offset+0x460>

900013b8 <inst_329>:
900013b8:	66666537          	lui	a0,0x66666
900013bc:	66750513          	addi	a0,a0,1639 # 66666667 <offset+0x666665ff>
900013c0:	aab56593          	ori	a1,a0,-1365
900013c4:	4cb22623          	sw	a1,1228(tp) # 4cc <offset+0x464>

900013c8 <inst_330>:
900013c8:	66666537          	lui	a0,0x66666
900013cc:	66750513          	addi	a0,a0,1639 # 66666667 <offset+0x666665ff>
900013d0:	00656593          	ori	a1,a0,6
900013d4:	4cb22823          	sw	a1,1232(tp) # 4d0 <offset+0x468>

900013d8 <inst_331>:
900013d8:	66666537          	lui	a0,0x66666
900013dc:	66750513          	addi	a0,a0,1639 # 66666667 <offset+0x666665ff>
900013e0:	33456593          	ori	a1,a0,820
900013e4:	4cb22a23          	sw	a1,1236(tp) # 4d4 <offset+0x46c>

900013e8 <inst_332>:
900013e8:	66666537          	lui	a0,0x66666
900013ec:	66750513          	addi	a0,a0,1639 # 66666667 <offset+0x666665ff>
900013f0:	66756593          	ori	a1,a0,1639
900013f4:	4cb22c23          	sw	a1,1240(tp) # 4d8 <offset+0x470>

900013f8 <inst_333>:
900013f8:	66666537          	lui	a0,0x66666
900013fc:	66750513          	addi	a0,a0,1639 # 66666667 <offset+0x666665ff>
90001400:	fd456593          	ori	a1,a0,-44
90001404:	4cb22e23          	sw	a1,1244(tp) # 4dc <offset+0x474>

90001408 <inst_334>:
90001408:	66666537          	lui	a0,0x66666
9000140c:	66750513          	addi	a0,a0,1639 # 66666667 <offset+0x666665ff>
90001410:	02e56593          	ori	a1,a0,46
90001414:	4eb22023          	sw	a1,1248(tp) # 4e0 <offset+0x478>

90001418 <inst_335>:
90001418:	ffff5537          	lui	a0,0xffff5
9000141c:	afd50513          	addi	a0,a0,-1283 # ffff4afd <_end+0x6fff00f9>
90001420:	00356593          	ori	a1,a0,3
90001424:	4eb22223          	sw	a1,1252(tp) # 4e4 <offset+0x47c>

90001428 <inst_336>:
90001428:	ffff5537          	lui	a0,0xffff5
9000142c:	afd50513          	addi	a0,a0,-1283 # ffff4afd <_end+0x6fff00f9>
90001430:	55556593          	ori	a1,a0,1365
90001434:	4eb22423          	sw	a1,1256(tp) # 4e8 <offset+0x480>

90001438 <inst_337>:
90001438:	ffff5537          	lui	a0,0xffff5
9000143c:	afd50513          	addi	a0,a0,-1283 # ffff4afd <_end+0x6fff00f9>
90001440:	aaa56593          	ori	a1,a0,-1366
90001444:	4eb22623          	sw	a1,1260(tp) # 4ec <offset+0x484>

90001448 <inst_338>:
90001448:	ffff5537          	lui	a0,0xffff5
9000144c:	afd50513          	addi	a0,a0,-1283 # ffff4afd <_end+0x6fff00f9>
90001450:	00556593          	ori	a1,a0,5
90001454:	4eb22823          	sw	a1,1264(tp) # 4f0 <offset+0x488>

90001458 <inst_339>:
90001458:	ffff5537          	lui	a0,0xffff5
9000145c:	afd50513          	addi	a0,a0,-1283 # ffff4afd <_end+0x6fff00f9>
90001460:	33356593          	ori	a1,a0,819
90001464:	4eb22a23          	sw	a1,1268(tp) # 4f4 <offset+0x48c>

90001468 <inst_340>:
90001468:	ffff5537          	lui	a0,0xffff5
9000146c:	afd50513          	addi	a0,a0,-1283 # ffff4afd <_end+0x6fff00f9>
90001470:	66656593          	ori	a1,a0,1638
90001474:	4eb22c23          	sw	a1,1272(tp) # 4f8 <offset+0x490>

90001478 <inst_341>:
90001478:	ffff5537          	lui	a0,0xffff5
9000147c:	afd50513          	addi	a0,a0,-1283 # ffff4afd <_end+0x6fff00f9>
90001480:	fd356593          	ori	a1,a0,-45
90001484:	4eb22e23          	sw	a1,1276(tp) # 4fc <offset+0x494>

90001488 <inst_342>:
90001488:	ffff5537          	lui	a0,0xffff5
9000148c:	afd50513          	addi	a0,a0,-1283 # ffff4afd <_end+0x6fff00f9>
90001490:	02d56593          	ori	a1,a0,45
90001494:	50b22023          	sw	a1,1280(tp) # 500 <offset+0x498>

90001498 <inst_343>:
90001498:	ffff5537          	lui	a0,0xffff5
9000149c:	afd50513          	addi	a0,a0,-1283 # ffff4afd <_end+0x6fff00f9>
900014a0:	00256593          	ori	a1,a0,2
900014a4:	50b22223          	sw	a1,1284(tp) # 504 <offset+0x49c>

900014a8 <inst_344>:
900014a8:	ffff5537          	lui	a0,0xffff5
900014ac:	afd50513          	addi	a0,a0,-1283 # ffff4afd <_end+0x6fff00f9>
900014b0:	55456593          	ori	a1,a0,1364
900014b4:	50b22423          	sw	a1,1288(tp) # 508 <offset+0x4a0>

900014b8 <inst_345>:
900014b8:	ffff5537          	lui	a0,0xffff5
900014bc:	afd50513          	addi	a0,a0,-1283 # ffff4afd <_end+0x6fff00f9>
900014c0:	00056593          	ori	a1,a0,0
900014c4:	50b22623          	sw	a1,1292(tp) # 50c <offset+0x4a4>

900014c8 <inst_346>:
900014c8:	ffff5537          	lui	a0,0xffff5
900014cc:	afd50513          	addi	a0,a0,-1283 # ffff4afd <_end+0x6fff00f9>
900014d0:	00456593          	ori	a1,a0,4
900014d4:	50b22823          	sw	a1,1296(tp) # 510 <offset+0x4a8>

900014d8 <inst_347>:
900014d8:	ffff5537          	lui	a0,0xffff5
900014dc:	afd50513          	addi	a0,a0,-1283 # ffff4afd <_end+0x6fff00f9>
900014e0:	33256593          	ori	a1,a0,818
900014e4:	50b22a23          	sw	a1,1300(tp) # 514 <offset+0x4ac>

900014e8 <inst_348>:
900014e8:	ffff5537          	lui	a0,0xffff5
900014ec:	afd50513          	addi	a0,a0,-1283 # ffff4afd <_end+0x6fff00f9>
900014f0:	66556593          	ori	a1,a0,1637
900014f4:	50b22c23          	sw	a1,1304(tp) # 518 <offset+0x4b0>

900014f8 <inst_349>:
900014f8:	ffff5537          	lui	a0,0xffff5
900014fc:	afd50513          	addi	a0,a0,-1283 # ffff4afd <_end+0x6fff00f9>
90001500:	02c56593          	ori	a1,a0,44
90001504:	50b22e23          	sw	a1,1308(tp) # 51c <offset+0x4b4>

90001508 <inst_350>:
90001508:	ffff5537          	lui	a0,0xffff5
9000150c:	afd50513          	addi	a0,a0,-1283 # ffff4afd <_end+0x6fff00f9>
90001510:	55656593          	ori	a1,a0,1366
90001514:	52b22023          	sw	a1,1312(tp) # 520 <offset+0x4b8>

90001518 <inst_351>:
90001518:	ffff5537          	lui	a0,0xffff5
9000151c:	afd50513          	addi	a0,a0,-1283 # ffff4afd <_end+0x6fff00f9>
90001520:	aab56593          	ori	a1,a0,-1365
90001524:	52b22223          	sw	a1,1316(tp) # 524 <offset+0x4bc>

90001528 <inst_352>:
90001528:	ffff5537          	lui	a0,0xffff5
9000152c:	afd50513          	addi	a0,a0,-1283 # ffff4afd <_end+0x6fff00f9>
90001530:	00656593          	ori	a1,a0,6
90001534:	52b22423          	sw	a1,1320(tp) # 528 <offset+0x4c0>

90001538 <inst_353>:
90001538:	ffff5537          	lui	a0,0xffff5
9000153c:	afd50513          	addi	a0,a0,-1283 # ffff4afd <_end+0x6fff00f9>
90001540:	33456593          	ori	a1,a0,820
90001544:	52b22623          	sw	a1,1324(tp) # 52c <offset+0x4c4>

90001548 <inst_354>:
90001548:	ffff5537          	lui	a0,0xffff5
9000154c:	afd50513          	addi	a0,a0,-1283 # ffff4afd <_end+0x6fff00f9>
90001550:	66756593          	ori	a1,a0,1639
90001554:	52b22823          	sw	a1,1328(tp) # 530 <offset+0x4c8>

90001558 <inst_355>:
90001558:	ffff5537          	lui	a0,0xffff5
9000155c:	afd50513          	addi	a0,a0,-1283 # ffff4afd <_end+0x6fff00f9>
90001560:	fd456593          	ori	a1,a0,-44
90001564:	52b22a23          	sw	a1,1332(tp) # 534 <offset+0x4cc>

90001568 <inst_356>:
90001568:	ffff5537          	lui	a0,0xffff5
9000156c:	afd50513          	addi	a0,a0,-1283 # ffff4afd <_end+0x6fff00f9>
90001570:	02e56593          	ori	a1,a0,46
90001574:	52b22c23          	sw	a1,1336(tp) # 538 <offset+0x4d0>

90001578 <inst_357>:
90001578:	0000b537          	lui	a0,0xb
9000157c:	50550513          	addi	a0,a0,1285 # b505 <offset+0xb49d>
90001580:	00356593          	ori	a1,a0,3
90001584:	52b22e23          	sw	a1,1340(tp) # 53c <offset+0x4d4>

90001588 <inst_358>:
90001588:	0000b537          	lui	a0,0xb
9000158c:	50550513          	addi	a0,a0,1285 # b505 <offset+0xb49d>
90001590:	55556593          	ori	a1,a0,1365
90001594:	54b22023          	sw	a1,1344(tp) # 540 <offset+0x4d8>

90001598 <inst_359>:
90001598:	0000b537          	lui	a0,0xb
9000159c:	50550513          	addi	a0,a0,1285 # b505 <offset+0xb49d>
900015a0:	aaa56593          	ori	a1,a0,-1366
900015a4:	54b22223          	sw	a1,1348(tp) # 544 <offset+0x4dc>

900015a8 <inst_360>:
900015a8:	0000b537          	lui	a0,0xb
900015ac:	50550513          	addi	a0,a0,1285 # b505 <offset+0xb49d>
900015b0:	00556593          	ori	a1,a0,5
900015b4:	54b22423          	sw	a1,1352(tp) # 548 <offset+0x4e0>

900015b8 <inst_361>:
900015b8:	0000b537          	lui	a0,0xb
900015bc:	50550513          	addi	a0,a0,1285 # b505 <offset+0xb49d>
900015c0:	33356593          	ori	a1,a0,819
900015c4:	54b22623          	sw	a1,1356(tp) # 54c <offset+0x4e4>

900015c8 <inst_362>:
900015c8:	0000b537          	lui	a0,0xb
900015cc:	50550513          	addi	a0,a0,1285 # b505 <offset+0xb49d>
900015d0:	66656593          	ori	a1,a0,1638
900015d4:	54b22823          	sw	a1,1360(tp) # 550 <offset+0x4e8>

900015d8 <inst_363>:
900015d8:	0000b537          	lui	a0,0xb
900015dc:	50550513          	addi	a0,a0,1285 # b505 <offset+0xb49d>
900015e0:	fd356593          	ori	a1,a0,-45
900015e4:	54b22a23          	sw	a1,1364(tp) # 554 <offset+0x4ec>

900015e8 <inst_364>:
900015e8:	0000b537          	lui	a0,0xb
900015ec:	50550513          	addi	a0,a0,1285 # b505 <offset+0xb49d>
900015f0:	02d56593          	ori	a1,a0,45
900015f4:	54b22c23          	sw	a1,1368(tp) # 558 <offset+0x4f0>

900015f8 <inst_365>:
900015f8:	0000b537          	lui	a0,0xb
900015fc:	50550513          	addi	a0,a0,1285 # b505 <offset+0xb49d>
90001600:	00256593          	ori	a1,a0,2
90001604:	54b22e23          	sw	a1,1372(tp) # 55c <offset+0x4f4>

90001608 <inst_366>:
90001608:	0000b537          	lui	a0,0xb
9000160c:	50550513          	addi	a0,a0,1285 # b505 <offset+0xb49d>
90001610:	55456593          	ori	a1,a0,1364
90001614:	56b22023          	sw	a1,1376(tp) # 560 <offset+0x4f8>

90001618 <inst_367>:
90001618:	0000b537          	lui	a0,0xb
9000161c:	50550513          	addi	a0,a0,1285 # b505 <offset+0xb49d>
90001620:	00056593          	ori	a1,a0,0
90001624:	56b22223          	sw	a1,1380(tp) # 564 <offset+0x4fc>

90001628 <inst_368>:
90001628:	0000b537          	lui	a0,0xb
9000162c:	50550513          	addi	a0,a0,1285 # b505 <offset+0xb49d>
90001630:	00456593          	ori	a1,a0,4
90001634:	56b22423          	sw	a1,1384(tp) # 568 <offset+0x500>

90001638 <inst_369>:
90001638:	0000b537          	lui	a0,0xb
9000163c:	50550513          	addi	a0,a0,1285 # b505 <offset+0xb49d>
90001640:	33256593          	ori	a1,a0,818
90001644:	56b22623          	sw	a1,1388(tp) # 56c <offset+0x504>

90001648 <inst_370>:
90001648:	0000b537          	lui	a0,0xb
9000164c:	50550513          	addi	a0,a0,1285 # b505 <offset+0xb49d>
90001650:	66556593          	ori	a1,a0,1637
90001654:	56b22823          	sw	a1,1392(tp) # 570 <offset+0x508>

90001658 <inst_371>:
90001658:	0000b537          	lui	a0,0xb
9000165c:	50550513          	addi	a0,a0,1285 # b505 <offset+0xb49d>
90001660:	02c56593          	ori	a1,a0,44
90001664:	56b22a23          	sw	a1,1396(tp) # 574 <offset+0x50c>

90001668 <inst_372>:
90001668:	0000b537          	lui	a0,0xb
9000166c:	50550513          	addi	a0,a0,1285 # b505 <offset+0xb49d>
90001670:	55656593          	ori	a1,a0,1366
90001674:	56b22c23          	sw	a1,1400(tp) # 578 <offset+0x510>

90001678 <inst_373>:
90001678:	0000b537          	lui	a0,0xb
9000167c:	50550513          	addi	a0,a0,1285 # b505 <offset+0xb49d>
90001680:	aab56593          	ori	a1,a0,-1365
90001684:	56b22e23          	sw	a1,1404(tp) # 57c <offset+0x514>

90001688 <inst_374>:
90001688:	0000b537          	lui	a0,0xb
9000168c:	50550513          	addi	a0,a0,1285 # b505 <offset+0xb49d>
90001690:	00656593          	ori	a1,a0,6
90001694:	58b22023          	sw	a1,1408(tp) # 580 <offset+0x518>

90001698 <inst_375>:
90001698:	0000b537          	lui	a0,0xb
9000169c:	50550513          	addi	a0,a0,1285 # b505 <offset+0xb49d>
900016a0:	33456593          	ori	a1,a0,820
900016a4:	58b22223          	sw	a1,1412(tp) # 584 <offset+0x51c>

900016a8 <inst_376>:
900016a8:	0000b537          	lui	a0,0xb
900016ac:	50550513          	addi	a0,a0,1285 # b505 <offset+0xb49d>
900016b0:	66756593          	ori	a1,a0,1639
900016b4:	58b22423          	sw	a1,1416(tp) # 588 <offset+0x520>

900016b8 <inst_377>:
900016b8:	0000b537          	lui	a0,0xb
900016bc:	50550513          	addi	a0,a0,1285 # b505 <offset+0xb49d>
900016c0:	fd456593          	ori	a1,a0,-44
900016c4:	58b22623          	sw	a1,1420(tp) # 58c <offset+0x524>

900016c8 <inst_378>:
900016c8:	0000b537          	lui	a0,0xb
900016cc:	50550513          	addi	a0,a0,1285 # b505 <offset+0xb49d>
900016d0:	02e56593          	ori	a1,a0,46
900016d4:	58b22823          	sw	a1,1424(tp) # 590 <offset+0x528>

900016d8 <inst_379>:
900016d8:	00000513          	li	a0,0
900016dc:	02d56593          	ori	a1,a0,45
900016e0:	58b22a23          	sw	a1,1428(tp) # 594 <offset+0x52c>

900016e4 <inst_380>:
900016e4:	00000513          	li	a0,0
900016e8:	00256593          	ori	a1,a0,2
900016ec:	58b22c23          	sw	a1,1432(tp) # 598 <offset+0x530>

900016f0 <inst_381>:
900016f0:	00000513          	li	a0,0
900016f4:	55456593          	ori	a1,a0,1364
900016f8:	58b22e23          	sw	a1,1436(tp) # 59c <offset+0x534>

900016fc <inst_382>:
900016fc:	00000513          	li	a0,0
90001700:	00456593          	ori	a1,a0,4
90001704:	5ab22023          	sw	a1,1440(tp) # 5a0 <offset+0x538>

90001708 <inst_383>:
90001708:	00000513          	li	a0,0
9000170c:	33256593          	ori	a1,a0,818
90001710:	5ab22223          	sw	a1,1444(tp) # 5a4 <offset+0x53c>

90001714 <inst_384>:
90001714:	00000513          	li	a0,0
90001718:	66556593          	ori	a1,a0,1637
9000171c:	5ab22423          	sw	a1,1448(tp) # 5a8 <offset+0x540>

90001720 <inst_385>:
90001720:	00000513          	li	a0,0
90001724:	02c56593          	ori	a1,a0,44
90001728:	5ab22623          	sw	a1,1452(tp) # 5ac <offset+0x544>

9000172c <inst_386>:
9000172c:	00000513          	li	a0,0
90001730:	55656593          	ori	a1,a0,1366
90001734:	5ab22823          	sw	a1,1456(tp) # 5b0 <offset+0x548>

90001738 <inst_387>:
90001738:	00000513          	li	a0,0
9000173c:	aab56593          	ori	a1,a0,-1365
90001740:	5ab22a23          	sw	a1,1460(tp) # 5b4 <offset+0x54c>

90001744 <inst_388>:
90001744:	00000513          	li	a0,0
90001748:	00656593          	ori	a1,a0,6
9000174c:	5ab22c23          	sw	a1,1464(tp) # 5b8 <offset+0x550>

90001750 <inst_389>:
90001750:	00000513          	li	a0,0
90001754:	33456593          	ori	a1,a0,820
90001758:	5ab22e23          	sw	a1,1468(tp) # 5bc <offset+0x554>

9000175c <inst_390>:
9000175c:	00000513          	li	a0,0
90001760:	66756593          	ori	a1,a0,1639
90001764:	5cb22023          	sw	a1,1472(tp) # 5c0 <offset+0x558>

90001768 <inst_391>:
90001768:	00000513          	li	a0,0
9000176c:	fd456593          	ori	a1,a0,-44
90001770:	5cb22223          	sw	a1,1476(tp) # 5c4 <offset+0x55c>

90001774 <inst_392>:
90001774:	00000513          	li	a0,0
90001778:	02e56593          	ori	a1,a0,46
9000177c:	5cb22423          	sw	a1,1480(tp) # 5c8 <offset+0x560>

90001780 <inst_393>:
90001780:	00400513          	li	a0,4
90001784:	00356593          	ori	a1,a0,3
90001788:	5cb22623          	sw	a1,1484(tp) # 5cc <offset+0x564>

9000178c <inst_394>:
9000178c:	00400513          	li	a0,4
90001790:	55556593          	ori	a1,a0,1365
90001794:	5cb22823          	sw	a1,1488(tp) # 5d0 <offset+0x568>

90001798 <inst_395>:
90001798:	00400513          	li	a0,4
9000179c:	aaa56593          	ori	a1,a0,-1366
900017a0:	5cb22a23          	sw	a1,1492(tp) # 5d4 <offset+0x56c>

900017a4 <inst_396>:
900017a4:	00400513          	li	a0,4
900017a8:	33356593          	ori	a1,a0,819
900017ac:	5cb22c23          	sw	a1,1496(tp) # 5d8 <offset+0x570>

900017b0 <inst_397>:
900017b0:	00400513          	li	a0,4
900017b4:	66656593          	ori	a1,a0,1638
900017b8:	5cb22e23          	sw	a1,1500(tp) # 5dc <offset+0x574>

900017bc <inst_398>:
900017bc:	00400513          	li	a0,4
900017c0:	fd356593          	ori	a1,a0,-45
900017c4:	5eb22023          	sw	a1,1504(tp) # 5e0 <offset+0x578>

900017c8 <inst_399>:
900017c8:	00400513          	li	a0,4
900017cc:	02d56593          	ori	a1,a0,45
900017d0:	5eb22223          	sw	a1,1508(tp) # 5e4 <offset+0x57c>

900017d4 <inst_400>:
900017d4:	00400513          	li	a0,4
900017d8:	00256593          	ori	a1,a0,2
900017dc:	5eb22423          	sw	a1,1512(tp) # 5e8 <offset+0x580>

900017e0 <inst_401>:
900017e0:	00400513          	li	a0,4
900017e4:	55456593          	ori	a1,a0,1364
900017e8:	5eb22623          	sw	a1,1516(tp) # 5ec <offset+0x584>

900017ec <inst_402>:
900017ec:	00400513          	li	a0,4
900017f0:	00056593          	ori	a1,a0,0
900017f4:	5eb22823          	sw	a1,1520(tp) # 5f0 <offset+0x588>

900017f8 <inst_403>:
900017f8:	00400513          	li	a0,4
900017fc:	00456593          	ori	a1,a0,4
90001800:	5eb22a23          	sw	a1,1524(tp) # 5f4 <offset+0x58c>

90001804 <inst_404>:
90001804:	00400513          	li	a0,4
90001808:	33256593          	ori	a1,a0,818
9000180c:	5eb22c23          	sw	a1,1528(tp) # 5f8 <offset+0x590>

90001810 <inst_405>:
90001810:	00400513          	li	a0,4
90001814:	66556593          	ori	a1,a0,1637
90001818:	5eb22e23          	sw	a1,1532(tp) # 5fc <offset+0x594>

9000181c <inst_406>:
9000181c:	00400513          	li	a0,4
90001820:	02c56593          	ori	a1,a0,44
90001824:	60b22023          	sw	a1,1536(tp) # 600 <offset+0x598>

90001828 <inst_407>:
90001828:	00400513          	li	a0,4
9000182c:	55656593          	ori	a1,a0,1366
90001830:	60b22223          	sw	a1,1540(tp) # 604 <offset+0x59c>

90001834 <inst_408>:
90001834:	00400513          	li	a0,4
90001838:	aab56593          	ori	a1,a0,-1365
9000183c:	60b22423          	sw	a1,1544(tp) # 608 <offset+0x5a0>

90001840 <inst_409>:
90001840:	00400513          	li	a0,4
90001844:	00656593          	ori	a1,a0,6
90001848:	60b22623          	sw	a1,1548(tp) # 60c <offset+0x5a4>

9000184c <inst_410>:
9000184c:	00400513          	li	a0,4
90001850:	33456593          	ori	a1,a0,820
90001854:	60b22823          	sw	a1,1552(tp) # 610 <offset+0x5a8>

90001858 <inst_411>:
90001858:	00400513          	li	a0,4
9000185c:	66756593          	ori	a1,a0,1639
90001860:	60b22a23          	sw	a1,1556(tp) # 614 <offset+0x5ac>

90001864 <inst_412>:
90001864:	00400513          	li	a0,4
90001868:	fd456593          	ori	a1,a0,-44
9000186c:	60b22c23          	sw	a1,1560(tp) # 618 <offset+0x5b0>

90001870 <inst_413>:
90001870:	00400513          	li	a0,4
90001874:	02e56593          	ori	a1,a0,46
90001878:	60b22e23          	sw	a1,1564(tp) # 61c <offset+0x5b4>

9000187c <inst_414>:
9000187c:	33333537          	lui	a0,0x33333
90001880:	33250513          	addi	a0,a0,818 # 33333332 <offset+0x333332ca>
90001884:	00356593          	ori	a1,a0,3
90001888:	62b22023          	sw	a1,1568(tp) # 620 <offset+0x5b8>

9000188c <inst_415>:
9000188c:	33333537          	lui	a0,0x33333
90001890:	33250513          	addi	a0,a0,818 # 33333332 <offset+0x333332ca>
90001894:	55556593          	ori	a1,a0,1365
90001898:	62b22223          	sw	a1,1572(tp) # 624 <offset+0x5bc>

9000189c <inst_416>:
9000189c:	33333537          	lui	a0,0x33333
900018a0:	33250513          	addi	a0,a0,818 # 33333332 <offset+0x333332ca>
900018a4:	aaa56593          	ori	a1,a0,-1366
900018a8:	62b22423          	sw	a1,1576(tp) # 628 <offset+0x5c0>

900018ac <inst_417>:
900018ac:	33333537          	lui	a0,0x33333
900018b0:	33250513          	addi	a0,a0,818 # 33333332 <offset+0x333332ca>
900018b4:	00556593          	ori	a1,a0,5
900018b8:	62b22623          	sw	a1,1580(tp) # 62c <offset+0x5c4>

900018bc <inst_418>:
900018bc:	33333537          	lui	a0,0x33333
900018c0:	33250513          	addi	a0,a0,818 # 33333332 <offset+0x333332ca>
900018c4:	33356593          	ori	a1,a0,819
900018c8:	62b22823          	sw	a1,1584(tp) # 630 <offset+0x5c8>

900018cc <inst_419>:
900018cc:	33333537          	lui	a0,0x33333
900018d0:	33250513          	addi	a0,a0,818 # 33333332 <offset+0x333332ca>
900018d4:	66656593          	ori	a1,a0,1638
900018d8:	62b22a23          	sw	a1,1588(tp) # 634 <offset+0x5cc>

900018dc <inst_420>:
900018dc:	33333537          	lui	a0,0x33333
900018e0:	33250513          	addi	a0,a0,818 # 33333332 <offset+0x333332ca>
900018e4:	fd356593          	ori	a1,a0,-45
900018e8:	62b22c23          	sw	a1,1592(tp) # 638 <offset+0x5d0>

900018ec <inst_421>:
900018ec:	33333537          	lui	a0,0x33333
900018f0:	33250513          	addi	a0,a0,818 # 33333332 <offset+0x333332ca>
900018f4:	02d56593          	ori	a1,a0,45
900018f8:	62b22e23          	sw	a1,1596(tp) # 63c <offset+0x5d4>

900018fc <inst_422>:
900018fc:	33333537          	lui	a0,0x33333
90001900:	33250513          	addi	a0,a0,818 # 33333332 <offset+0x333332ca>
90001904:	00256593          	ori	a1,a0,2
90001908:	64b22023          	sw	a1,1600(tp) # 640 <offset+0x5d8>

9000190c <inst_423>:
9000190c:	33333537          	lui	a0,0x33333
90001910:	33250513          	addi	a0,a0,818 # 33333332 <offset+0x333332ca>
90001914:	55456593          	ori	a1,a0,1364
90001918:	64b22223          	sw	a1,1604(tp) # 644 <offset+0x5dc>

9000191c <inst_424>:
9000191c:	33333537          	lui	a0,0x33333
90001920:	33250513          	addi	a0,a0,818 # 33333332 <offset+0x333332ca>
90001924:	00056593          	ori	a1,a0,0
90001928:	64b22423          	sw	a1,1608(tp) # 648 <offset+0x5e0>

9000192c <inst_425>:
9000192c:	33333537          	lui	a0,0x33333
90001930:	33250513          	addi	a0,a0,818 # 33333332 <offset+0x333332ca>
90001934:	00456593          	ori	a1,a0,4
90001938:	64b22623          	sw	a1,1612(tp) # 64c <offset+0x5e4>

9000193c <inst_426>:
9000193c:	33333537          	lui	a0,0x33333
90001940:	33250513          	addi	a0,a0,818 # 33333332 <offset+0x333332ca>
90001944:	33256593          	ori	a1,a0,818
90001948:	64b22823          	sw	a1,1616(tp) # 650 <offset+0x5e8>

9000194c <inst_427>:
9000194c:	33333537          	lui	a0,0x33333
90001950:	33250513          	addi	a0,a0,818 # 33333332 <offset+0x333332ca>
90001954:	66556593          	ori	a1,a0,1637
90001958:	64b22a23          	sw	a1,1620(tp) # 654 <offset+0x5ec>

9000195c <inst_428>:
9000195c:	33333537          	lui	a0,0x33333
90001960:	33250513          	addi	a0,a0,818 # 33333332 <offset+0x333332ca>
90001964:	02c56593          	ori	a1,a0,44
90001968:	64b22c23          	sw	a1,1624(tp) # 658 <offset+0x5f0>

9000196c <inst_429>:
9000196c:	33333537          	lui	a0,0x33333
90001970:	33250513          	addi	a0,a0,818 # 33333332 <offset+0x333332ca>
90001974:	55656593          	ori	a1,a0,1366
90001978:	64b22e23          	sw	a1,1628(tp) # 65c <offset+0x5f4>

9000197c <inst_430>:
9000197c:	33333537          	lui	a0,0x33333
90001980:	33250513          	addi	a0,a0,818 # 33333332 <offset+0x333332ca>
90001984:	aab56593          	ori	a1,a0,-1365
90001988:	66b22023          	sw	a1,1632(tp) # 660 <offset+0x5f8>

9000198c <inst_431>:
9000198c:	33333537          	lui	a0,0x33333
90001990:	33250513          	addi	a0,a0,818 # 33333332 <offset+0x333332ca>
90001994:	00656593          	ori	a1,a0,6
90001998:	66b22223          	sw	a1,1636(tp) # 664 <offset+0x5fc>

9000199c <inst_432>:
9000199c:	33333537          	lui	a0,0x33333
900019a0:	33250513          	addi	a0,a0,818 # 33333332 <offset+0x333332ca>
900019a4:	33456593          	ori	a1,a0,820
900019a8:	66b22423          	sw	a1,1640(tp) # 668 <offset+0x600>

900019ac <inst_433>:
900019ac:	33333537          	lui	a0,0x33333
900019b0:	33250513          	addi	a0,a0,818 # 33333332 <offset+0x333332ca>
900019b4:	66756593          	ori	a1,a0,1639
900019b8:	66b22623          	sw	a1,1644(tp) # 66c <offset+0x604>

900019bc <inst_434>:
900019bc:	33333537          	lui	a0,0x33333
900019c0:	33250513          	addi	a0,a0,818 # 33333332 <offset+0x333332ca>
900019c4:	fd456593          	ori	a1,a0,-44
900019c8:	66b22823          	sw	a1,1648(tp) # 670 <offset+0x608>

900019cc <inst_435>:
900019cc:	33333537          	lui	a0,0x33333
900019d0:	33250513          	addi	a0,a0,818 # 33333332 <offset+0x333332ca>
900019d4:	02e56593          	ori	a1,a0,46
900019d8:	66b22a23          	sw	a1,1652(tp) # 674 <offset+0x60c>

900019dc <inst_436>:
900019dc:	66666537          	lui	a0,0x66666
900019e0:	66550513          	addi	a0,a0,1637 # 66666665 <offset+0x666665fd>
900019e4:	00356593          	ori	a1,a0,3
900019e8:	66b22c23          	sw	a1,1656(tp) # 678 <offset+0x610>

900019ec <inst_437>:
900019ec:	66666537          	lui	a0,0x66666
900019f0:	66550513          	addi	a0,a0,1637 # 66666665 <offset+0x666665fd>
900019f4:	55556593          	ori	a1,a0,1365
900019f8:	66b22e23          	sw	a1,1660(tp) # 67c <offset+0x614>

900019fc <inst_438>:
900019fc:	66666537          	lui	a0,0x66666
90001a00:	66550513          	addi	a0,a0,1637 # 66666665 <offset+0x666665fd>
90001a04:	aaa56593          	ori	a1,a0,-1366
90001a08:	68b22023          	sw	a1,1664(tp) # 680 <offset+0x618>

90001a0c <inst_439>:
90001a0c:	66666537          	lui	a0,0x66666
90001a10:	66550513          	addi	a0,a0,1637 # 66666665 <offset+0x666665fd>
90001a14:	00556593          	ori	a1,a0,5
90001a18:	68b22223          	sw	a1,1668(tp) # 684 <offset+0x61c>

90001a1c <inst_440>:
90001a1c:	66666537          	lui	a0,0x66666
90001a20:	66550513          	addi	a0,a0,1637 # 66666665 <offset+0x666665fd>
90001a24:	33356593          	ori	a1,a0,819
90001a28:	68b22423          	sw	a1,1672(tp) # 688 <offset+0x620>

90001a2c <inst_441>:
90001a2c:	66666537          	lui	a0,0x66666
90001a30:	66550513          	addi	a0,a0,1637 # 66666665 <offset+0x666665fd>
90001a34:	66656593          	ori	a1,a0,1638
90001a38:	68b22623          	sw	a1,1676(tp) # 68c <offset+0x624>

90001a3c <inst_442>:
90001a3c:	66666537          	lui	a0,0x66666
90001a40:	66550513          	addi	a0,a0,1637 # 66666665 <offset+0x666665fd>
90001a44:	fd356593          	ori	a1,a0,-45
90001a48:	68b22823          	sw	a1,1680(tp) # 690 <offset+0x628>

90001a4c <inst_443>:
90001a4c:	66666537          	lui	a0,0x66666
90001a50:	66550513          	addi	a0,a0,1637 # 66666665 <offset+0x666665fd>
90001a54:	02d56593          	ori	a1,a0,45
90001a58:	68b22a23          	sw	a1,1684(tp) # 694 <offset+0x62c>

90001a5c <inst_444>:
90001a5c:	66666537          	lui	a0,0x66666
90001a60:	66550513          	addi	a0,a0,1637 # 66666665 <offset+0x666665fd>
90001a64:	00256593          	ori	a1,a0,2
90001a68:	68b22c23          	sw	a1,1688(tp) # 698 <offset+0x630>

90001a6c <inst_445>:
90001a6c:	66666537          	lui	a0,0x66666
90001a70:	66550513          	addi	a0,a0,1637 # 66666665 <offset+0x666665fd>
90001a74:	55456593          	ori	a1,a0,1364
90001a78:	68b22e23          	sw	a1,1692(tp) # 69c <offset+0x634>

90001a7c <inst_446>:
90001a7c:	66666537          	lui	a0,0x66666
90001a80:	66550513          	addi	a0,a0,1637 # 66666665 <offset+0x666665fd>
90001a84:	00056593          	ori	a1,a0,0
90001a88:	6ab22023          	sw	a1,1696(tp) # 6a0 <offset+0x638>

90001a8c <inst_447>:
90001a8c:	66666537          	lui	a0,0x66666
90001a90:	66550513          	addi	a0,a0,1637 # 66666665 <offset+0x666665fd>
90001a94:	00456593          	ori	a1,a0,4
90001a98:	6ab22223          	sw	a1,1700(tp) # 6a4 <offset+0x63c>

90001a9c <inst_448>:
90001a9c:	66666537          	lui	a0,0x66666
90001aa0:	66550513          	addi	a0,a0,1637 # 66666665 <offset+0x666665fd>
90001aa4:	33256593          	ori	a1,a0,818
90001aa8:	6ab22423          	sw	a1,1704(tp) # 6a8 <offset+0x640>

90001aac <inst_449>:
90001aac:	66666537          	lui	a0,0x66666
90001ab0:	66550513          	addi	a0,a0,1637 # 66666665 <offset+0x666665fd>
90001ab4:	66556593          	ori	a1,a0,1637
90001ab8:	6ab22623          	sw	a1,1708(tp) # 6ac <offset+0x644>

90001abc <inst_450>:
90001abc:	66666537          	lui	a0,0x66666
90001ac0:	66550513          	addi	a0,a0,1637 # 66666665 <offset+0x666665fd>
90001ac4:	02c56593          	ori	a1,a0,44
90001ac8:	6ab22823          	sw	a1,1712(tp) # 6b0 <offset+0x648>

90001acc <inst_451>:
90001acc:	66666537          	lui	a0,0x66666
90001ad0:	66550513          	addi	a0,a0,1637 # 66666665 <offset+0x666665fd>
90001ad4:	55656593          	ori	a1,a0,1366
90001ad8:	6ab22a23          	sw	a1,1716(tp) # 6b4 <offset+0x64c>

90001adc <inst_452>:
90001adc:	66666537          	lui	a0,0x66666
90001ae0:	66550513          	addi	a0,a0,1637 # 66666665 <offset+0x666665fd>
90001ae4:	aab56593          	ori	a1,a0,-1365
90001ae8:	6ab22c23          	sw	a1,1720(tp) # 6b8 <offset+0x650>

90001aec <inst_453>:
90001aec:	66666537          	lui	a0,0x66666
90001af0:	66550513          	addi	a0,a0,1637 # 66666665 <offset+0x666665fd>
90001af4:	00656593          	ori	a1,a0,6
90001af8:	6ab22e23          	sw	a1,1724(tp) # 6bc <offset+0x654>

90001afc <inst_454>:
90001afc:	66666537          	lui	a0,0x66666
90001b00:	66550513          	addi	a0,a0,1637 # 66666665 <offset+0x666665fd>
90001b04:	33456593          	ori	a1,a0,820
90001b08:	6cb22023          	sw	a1,1728(tp) # 6c0 <offset+0x658>

90001b0c <inst_455>:
90001b0c:	66666537          	lui	a0,0x66666
90001b10:	66550513          	addi	a0,a0,1637 # 66666665 <offset+0x666665fd>
90001b14:	66756593          	ori	a1,a0,1639
90001b18:	6cb22223          	sw	a1,1732(tp) # 6c4 <offset+0x65c>

90001b1c <inst_456>:
90001b1c:	66666537          	lui	a0,0x66666
90001b20:	66550513          	addi	a0,a0,1637 # 66666665 <offset+0x666665fd>
90001b24:	fd456593          	ori	a1,a0,-44
90001b28:	6cb22423          	sw	a1,1736(tp) # 6c8 <offset+0x660>

90001b2c <inst_457>:
90001b2c:	66666537          	lui	a0,0x66666
90001b30:	66550513          	addi	a0,a0,1637 # 66666665 <offset+0x666665fd>
90001b34:	02e56593          	ori	a1,a0,46
90001b38:	6cb22623          	sw	a1,1740(tp) # 6cc <offset+0x664>

90001b3c <inst_458>:
90001b3c:	0000b537          	lui	a0,0xb
90001b40:	50350513          	addi	a0,a0,1283 # b503 <offset+0xb49b>
90001b44:	00356593          	ori	a1,a0,3
90001b48:	6cb22823          	sw	a1,1744(tp) # 6d0 <offset+0x668>

90001b4c <inst_459>:
90001b4c:	0000b537          	lui	a0,0xb
90001b50:	50350513          	addi	a0,a0,1283 # b503 <offset+0xb49b>
90001b54:	55556593          	ori	a1,a0,1365
90001b58:	6cb22a23          	sw	a1,1748(tp) # 6d4 <offset+0x66c>

90001b5c <inst_460>:
90001b5c:	0000b537          	lui	a0,0xb
90001b60:	50350513          	addi	a0,a0,1283 # b503 <offset+0xb49b>
90001b64:	aaa56593          	ori	a1,a0,-1366
90001b68:	6cb22c23          	sw	a1,1752(tp) # 6d8 <offset+0x670>

90001b6c <inst_461>:
90001b6c:	0000b537          	lui	a0,0xb
90001b70:	50350513          	addi	a0,a0,1283 # b503 <offset+0xb49b>
90001b74:	00556593          	ori	a1,a0,5
90001b78:	6cb22e23          	sw	a1,1756(tp) # 6dc <offset+0x674>

90001b7c <inst_462>:
90001b7c:	0000b537          	lui	a0,0xb
90001b80:	50350513          	addi	a0,a0,1283 # b503 <offset+0xb49b>
90001b84:	33356593          	ori	a1,a0,819
90001b88:	6eb22023          	sw	a1,1760(tp) # 6e0 <offset+0x678>

90001b8c <inst_463>:
90001b8c:	0000b537          	lui	a0,0xb
90001b90:	50350513          	addi	a0,a0,1283 # b503 <offset+0xb49b>
90001b94:	66656593          	ori	a1,a0,1638
90001b98:	6eb22223          	sw	a1,1764(tp) # 6e4 <offset+0x67c>

90001b9c <inst_464>:
90001b9c:	0000b537          	lui	a0,0xb
90001ba0:	50350513          	addi	a0,a0,1283 # b503 <offset+0xb49b>
90001ba4:	fd356593          	ori	a1,a0,-45
90001ba8:	6eb22423          	sw	a1,1768(tp) # 6e8 <offset+0x680>

90001bac <inst_465>:
90001bac:	0000b537          	lui	a0,0xb
90001bb0:	50350513          	addi	a0,a0,1283 # b503 <offset+0xb49b>
90001bb4:	02d56593          	ori	a1,a0,45
90001bb8:	6eb22623          	sw	a1,1772(tp) # 6ec <offset+0x684>

90001bbc <inst_466>:
90001bbc:	0000b537          	lui	a0,0xb
90001bc0:	50350513          	addi	a0,a0,1283 # b503 <offset+0xb49b>
90001bc4:	00256593          	ori	a1,a0,2
90001bc8:	6eb22823          	sw	a1,1776(tp) # 6f0 <offset+0x688>

90001bcc <inst_467>:
90001bcc:	0000b537          	lui	a0,0xb
90001bd0:	50350513          	addi	a0,a0,1283 # b503 <offset+0xb49b>
90001bd4:	55456593          	ori	a1,a0,1364
90001bd8:	6eb22a23          	sw	a1,1780(tp) # 6f4 <offset+0x68c>

90001bdc <inst_468>:
90001bdc:	0000b537          	lui	a0,0xb
90001be0:	50350513          	addi	a0,a0,1283 # b503 <offset+0xb49b>
90001be4:	00056593          	ori	a1,a0,0
90001be8:	6eb22c23          	sw	a1,1784(tp) # 6f8 <offset+0x690>

90001bec <inst_469>:
90001bec:	0000b537          	lui	a0,0xb
90001bf0:	50350513          	addi	a0,a0,1283 # b503 <offset+0xb49b>
90001bf4:	00456593          	ori	a1,a0,4
90001bf8:	6eb22e23          	sw	a1,1788(tp) # 6fc <offset+0x694>

90001bfc <inst_470>:
90001bfc:	0000b537          	lui	a0,0xb
90001c00:	50350513          	addi	a0,a0,1283 # b503 <offset+0xb49b>
90001c04:	33256593          	ori	a1,a0,818
90001c08:	70b22023          	sw	a1,1792(tp) # 700 <offset+0x698>

90001c0c <inst_471>:
90001c0c:	0000b537          	lui	a0,0xb
90001c10:	50350513          	addi	a0,a0,1283 # b503 <offset+0xb49b>
90001c14:	66556593          	ori	a1,a0,1637
90001c18:	70b22223          	sw	a1,1796(tp) # 704 <offset+0x69c>

90001c1c <inst_472>:
90001c1c:	0000b537          	lui	a0,0xb
90001c20:	50350513          	addi	a0,a0,1283 # b503 <offset+0xb49b>
90001c24:	02c56593          	ori	a1,a0,44
90001c28:	70b22423          	sw	a1,1800(tp) # 708 <offset+0x6a0>

90001c2c <inst_473>:
90001c2c:	0000b537          	lui	a0,0xb
90001c30:	50350513          	addi	a0,a0,1283 # b503 <offset+0xb49b>
90001c34:	55656593          	ori	a1,a0,1366
90001c38:	70b22623          	sw	a1,1804(tp) # 70c <offset+0x6a4>

90001c3c <inst_474>:
90001c3c:	0000b537          	lui	a0,0xb
90001c40:	50350513          	addi	a0,a0,1283 # b503 <offset+0xb49b>
90001c44:	aab56593          	ori	a1,a0,-1365
90001c48:	70b22823          	sw	a1,1808(tp) # 710 <offset+0x6a8>

90001c4c <inst_475>:
90001c4c:	0000b537          	lui	a0,0xb
90001c50:	50350513          	addi	a0,a0,1283 # b503 <offset+0xb49b>
90001c54:	00656593          	ori	a1,a0,6
90001c58:	70b22a23          	sw	a1,1812(tp) # 714 <offset+0x6ac>

90001c5c <inst_476>:
90001c5c:	0000b537          	lui	a0,0xb
90001c60:	50350513          	addi	a0,a0,1283 # b503 <offset+0xb49b>
90001c64:	33456593          	ori	a1,a0,820
90001c68:	70b22c23          	sw	a1,1816(tp) # 718 <offset+0x6b0>

90001c6c <inst_477>:
90001c6c:	0000b537          	lui	a0,0xb
90001c70:	50350513          	addi	a0,a0,1283 # b503 <offset+0xb49b>
90001c74:	66756593          	ori	a1,a0,1639
90001c78:	70b22e23          	sw	a1,1820(tp) # 71c <offset+0x6b4>

90001c7c <inst_478>:
90001c7c:	0000b537          	lui	a0,0xb
90001c80:	50350513          	addi	a0,a0,1283 # b503 <offset+0xb49b>
90001c84:	fd456593          	ori	a1,a0,-44
90001c88:	72b22023          	sw	a1,1824(tp) # 720 <offset+0x6b8>

90001c8c <inst_479>:
90001c8c:	0000b537          	lui	a0,0xb
90001c90:	50350513          	addi	a0,a0,1283 # b503 <offset+0xb49b>
90001c94:	02e56593          	ori	a1,a0,46
90001c98:	72b22223          	sw	a1,1828(tp) # 724 <offset+0x6bc>

90001c9c <inst_480>:
90001c9c:	55555537          	lui	a0,0x55555
90001ca0:	55650513          	addi	a0,a0,1366 # 55555556 <offset+0x555554ee>
90001ca4:	00356593          	ori	a1,a0,3
90001ca8:	72b22423          	sw	a1,1832(tp) # 728 <offset+0x6c0>

90001cac <inst_481>:
90001cac:	55555537          	lui	a0,0x55555
90001cb0:	55650513          	addi	a0,a0,1366 # 55555556 <offset+0x555554ee>
90001cb4:	55556593          	ori	a1,a0,1365
90001cb8:	72b22623          	sw	a1,1836(tp) # 72c <offset+0x6c4>

90001cbc <inst_482>:
90001cbc:	55555537          	lui	a0,0x55555
90001cc0:	55650513          	addi	a0,a0,1366 # 55555556 <offset+0x555554ee>
90001cc4:	aaa56593          	ori	a1,a0,-1366
90001cc8:	72b22823          	sw	a1,1840(tp) # 730 <offset+0x6c8>

90001ccc <inst_483>:
90001ccc:	55555537          	lui	a0,0x55555
90001cd0:	55650513          	addi	a0,a0,1366 # 55555556 <offset+0x555554ee>
90001cd4:	00556593          	ori	a1,a0,5
90001cd8:	72b22a23          	sw	a1,1844(tp) # 734 <offset+0x6cc>

90001cdc <inst_484>:
90001cdc:	55555537          	lui	a0,0x55555
90001ce0:	55650513          	addi	a0,a0,1366 # 55555556 <offset+0x555554ee>
90001ce4:	33356593          	ori	a1,a0,819
90001ce8:	72b22c23          	sw	a1,1848(tp) # 738 <offset+0x6d0>

90001cec <inst_485>:
90001cec:	55555537          	lui	a0,0x55555
90001cf0:	55650513          	addi	a0,a0,1366 # 55555556 <offset+0x555554ee>
90001cf4:	66656593          	ori	a1,a0,1638
90001cf8:	72b22e23          	sw	a1,1852(tp) # 73c <offset+0x6d4>

90001cfc <inst_486>:
90001cfc:	55555537          	lui	a0,0x55555
90001d00:	55650513          	addi	a0,a0,1366 # 55555556 <offset+0x555554ee>
90001d04:	fd356593          	ori	a1,a0,-45
90001d08:	74b22023          	sw	a1,1856(tp) # 740 <offset+0x6d8>

90001d0c <inst_487>:
90001d0c:	55555537          	lui	a0,0x55555
90001d10:	55650513          	addi	a0,a0,1366 # 55555556 <offset+0x555554ee>
90001d14:	02d56593          	ori	a1,a0,45
90001d18:	74b22223          	sw	a1,1860(tp) # 744 <offset+0x6dc>

90001d1c <inst_488>:
90001d1c:	55555537          	lui	a0,0x55555
90001d20:	55650513          	addi	a0,a0,1366 # 55555556 <offset+0x555554ee>
90001d24:	00256593          	ori	a1,a0,2
90001d28:	74b22423          	sw	a1,1864(tp) # 748 <offset+0x6e0>

90001d2c <inst_489>:
90001d2c:	55555537          	lui	a0,0x55555
90001d30:	55650513          	addi	a0,a0,1366 # 55555556 <offset+0x555554ee>
90001d34:	55456593          	ori	a1,a0,1364
90001d38:	74b22623          	sw	a1,1868(tp) # 74c <offset+0x6e4>

90001d3c <inst_490>:
90001d3c:	55555537          	lui	a0,0x55555
90001d40:	55650513          	addi	a0,a0,1366 # 55555556 <offset+0x555554ee>
90001d44:	00056593          	ori	a1,a0,0
90001d48:	74b22823          	sw	a1,1872(tp) # 750 <offset+0x6e8>

90001d4c <inst_491>:
90001d4c:	55555537          	lui	a0,0x55555
90001d50:	55650513          	addi	a0,a0,1366 # 55555556 <offset+0x555554ee>
90001d54:	00456593          	ori	a1,a0,4
90001d58:	74b22a23          	sw	a1,1876(tp) # 754 <offset+0x6ec>

90001d5c <inst_492>:
90001d5c:	55555537          	lui	a0,0x55555
90001d60:	55650513          	addi	a0,a0,1366 # 55555556 <offset+0x555554ee>
90001d64:	33256593          	ori	a1,a0,818
90001d68:	74b22c23          	sw	a1,1880(tp) # 758 <offset+0x6f0>

90001d6c <inst_493>:
90001d6c:	55555537          	lui	a0,0x55555
90001d70:	55650513          	addi	a0,a0,1366 # 55555556 <offset+0x555554ee>
90001d74:	66556593          	ori	a1,a0,1637
90001d78:	74b22e23          	sw	a1,1884(tp) # 75c <offset+0x6f4>

90001d7c <inst_494>:
90001d7c:	55555537          	lui	a0,0x55555
90001d80:	55650513          	addi	a0,a0,1366 # 55555556 <offset+0x555554ee>
90001d84:	02c56593          	ori	a1,a0,44
90001d88:	76b22023          	sw	a1,1888(tp) # 760 <offset+0x6f8>

90001d8c <inst_495>:
90001d8c:	55555537          	lui	a0,0x55555
90001d90:	55650513          	addi	a0,a0,1366 # 55555556 <offset+0x555554ee>
90001d94:	55656593          	ori	a1,a0,1366
90001d98:	76b22223          	sw	a1,1892(tp) # 764 <offset+0x6fc>

90001d9c <inst_496>:
90001d9c:	55555537          	lui	a0,0x55555
90001da0:	55650513          	addi	a0,a0,1366 # 55555556 <offset+0x555554ee>
90001da4:	aab56593          	ori	a1,a0,-1365
90001da8:	76b22423          	sw	a1,1896(tp) # 768 <offset+0x700>

90001dac <inst_497>:
90001dac:	55555537          	lui	a0,0x55555
90001db0:	55650513          	addi	a0,a0,1366 # 55555556 <offset+0x555554ee>
90001db4:	00656593          	ori	a1,a0,6
90001db8:	76b22623          	sw	a1,1900(tp) # 76c <offset+0x704>

90001dbc <inst_498>:
90001dbc:	55555537          	lui	a0,0x55555
90001dc0:	55650513          	addi	a0,a0,1366 # 55555556 <offset+0x555554ee>
90001dc4:	33456593          	ori	a1,a0,820
90001dc8:	76b22823          	sw	a1,1904(tp) # 770 <offset+0x708>

90001dcc <inst_499>:
90001dcc:	55555537          	lui	a0,0x55555
90001dd0:	55650513          	addi	a0,a0,1366 # 55555556 <offset+0x555554ee>
90001dd4:	66756593          	ori	a1,a0,1639
90001dd8:	76b22a23          	sw	a1,1908(tp) # 774 <offset+0x70c>

90001ddc <inst_500>:
90001ddc:	55555537          	lui	a0,0x55555
90001de0:	55650513          	addi	a0,a0,1366 # 55555556 <offset+0x555554ee>
90001de4:	fd456593          	ori	a1,a0,-44
90001de8:	76b22c23          	sw	a1,1912(tp) # 778 <offset+0x710>

90001dec <inst_501>:
90001dec:	55555537          	lui	a0,0x55555
90001df0:	55650513          	addi	a0,a0,1366 # 55555556 <offset+0x555554ee>
90001df4:	02e56593          	ori	a1,a0,46
90001df8:	76b22e23          	sw	a1,1916(tp) # 77c <offset+0x714>

90001dfc <inst_502>:
90001dfc:	aaaab537          	lui	a0,0xaaaab
90001e00:	aab50513          	addi	a0,a0,-1365 # aaaaaaab <_end+0x1aaa60a7>
90001e04:	00356593          	ori	a1,a0,3
90001e08:	78b22023          	sw	a1,1920(tp) # 780 <offset+0x718>

90001e0c <inst_503>:
90001e0c:	aaaab537          	lui	a0,0xaaaab
90001e10:	aab50513          	addi	a0,a0,-1365 # aaaaaaab <_end+0x1aaa60a7>
90001e14:	55556593          	ori	a1,a0,1365
90001e18:	78b22223          	sw	a1,1924(tp) # 784 <offset+0x71c>

90001e1c <inst_504>:
90001e1c:	aaaab537          	lui	a0,0xaaaab
90001e20:	aab50513          	addi	a0,a0,-1365 # aaaaaaab <_end+0x1aaa60a7>
90001e24:	aaa56593          	ori	a1,a0,-1366
90001e28:	78b22423          	sw	a1,1928(tp) # 788 <offset+0x720>

90001e2c <inst_505>:
90001e2c:	aaaab537          	lui	a0,0xaaaab
90001e30:	aab50513          	addi	a0,a0,-1365 # aaaaaaab <_end+0x1aaa60a7>
90001e34:	00556593          	ori	a1,a0,5
90001e38:	78b22623          	sw	a1,1932(tp) # 78c <offset+0x724>

90001e3c <inst_506>:
90001e3c:	aaaab537          	lui	a0,0xaaaab
90001e40:	aab50513          	addi	a0,a0,-1365 # aaaaaaab <_end+0x1aaa60a7>
90001e44:	33356593          	ori	a1,a0,819
90001e48:	78b22823          	sw	a1,1936(tp) # 790 <offset+0x728>

90001e4c <inst_507>:
90001e4c:	aaaab537          	lui	a0,0xaaaab
90001e50:	aab50513          	addi	a0,a0,-1365 # aaaaaaab <_end+0x1aaa60a7>
90001e54:	66656593          	ori	a1,a0,1638
90001e58:	78b22a23          	sw	a1,1940(tp) # 794 <offset+0x72c>

90001e5c <inst_508>:
90001e5c:	aaaab537          	lui	a0,0xaaaab
90001e60:	aab50513          	addi	a0,a0,-1365 # aaaaaaab <_end+0x1aaa60a7>
90001e64:	fd356593          	ori	a1,a0,-45
90001e68:	78b22c23          	sw	a1,1944(tp) # 798 <offset+0x730>

90001e6c <inst_509>:
90001e6c:	aaaab537          	lui	a0,0xaaaab
90001e70:	aab50513          	addi	a0,a0,-1365 # aaaaaaab <_end+0x1aaa60a7>
90001e74:	02d56593          	ori	a1,a0,45
90001e78:	78b22e23          	sw	a1,1948(tp) # 79c <offset+0x734>

90001e7c <inst_510>:
90001e7c:	aaaab537          	lui	a0,0xaaaab
90001e80:	aab50513          	addi	a0,a0,-1365 # aaaaaaab <_end+0x1aaa60a7>
90001e84:	00256593          	ori	a1,a0,2
90001e88:	7ab22023          	sw	a1,1952(tp) # 7a0 <offset+0x738>

90001e8c <inst_511>:
90001e8c:	aaaab537          	lui	a0,0xaaaab
90001e90:	aab50513          	addi	a0,a0,-1365 # aaaaaaab <_end+0x1aaa60a7>
90001e94:	55456593          	ori	a1,a0,1364
90001e98:	7ab22223          	sw	a1,1956(tp) # 7a4 <offset+0x73c>

90001e9c <inst_512>:
90001e9c:	aaaab537          	lui	a0,0xaaaab
90001ea0:	aab50513          	addi	a0,a0,-1365 # aaaaaaab <_end+0x1aaa60a7>
90001ea4:	00056593          	ori	a1,a0,0
90001ea8:	7ab22423          	sw	a1,1960(tp) # 7a8 <offset+0x740>

90001eac <inst_513>:
90001eac:	aaaab537          	lui	a0,0xaaaab
90001eb0:	aab50513          	addi	a0,a0,-1365 # aaaaaaab <_end+0x1aaa60a7>
90001eb4:	00456593          	ori	a1,a0,4
90001eb8:	7ab22623          	sw	a1,1964(tp) # 7ac <offset+0x744>

90001ebc <inst_514>:
90001ebc:	aaaab537          	lui	a0,0xaaaab
90001ec0:	aab50513          	addi	a0,a0,-1365 # aaaaaaab <_end+0x1aaa60a7>
90001ec4:	33256593          	ori	a1,a0,818
90001ec8:	7ab22823          	sw	a1,1968(tp) # 7b0 <offset+0x748>

90001ecc <inst_515>:
90001ecc:	aaaab537          	lui	a0,0xaaaab
90001ed0:	aab50513          	addi	a0,a0,-1365 # aaaaaaab <_end+0x1aaa60a7>
90001ed4:	66556593          	ori	a1,a0,1637
90001ed8:	7ab22a23          	sw	a1,1972(tp) # 7b4 <offset+0x74c>

90001edc <inst_516>:
90001edc:	aaaab537          	lui	a0,0xaaaab
90001ee0:	aab50513          	addi	a0,a0,-1365 # aaaaaaab <_end+0x1aaa60a7>
90001ee4:	02c56593          	ori	a1,a0,44
90001ee8:	7ab22c23          	sw	a1,1976(tp) # 7b8 <offset+0x750>

90001eec <inst_517>:
90001eec:	aaaab537          	lui	a0,0xaaaab
90001ef0:	aab50513          	addi	a0,a0,-1365 # aaaaaaab <_end+0x1aaa60a7>
90001ef4:	55656593          	ori	a1,a0,1366
90001ef8:	7ab22e23          	sw	a1,1980(tp) # 7bc <offset+0x754>

90001efc <inst_518>:
90001efc:	aaaab537          	lui	a0,0xaaaab
90001f00:	aab50513          	addi	a0,a0,-1365 # aaaaaaab <_end+0x1aaa60a7>
90001f04:	aab56593          	ori	a1,a0,-1365
90001f08:	7cb22023          	sw	a1,1984(tp) # 7c0 <offset+0x758>

90001f0c <inst_519>:
90001f0c:	aaaab537          	lui	a0,0xaaaab
90001f10:	aab50513          	addi	a0,a0,-1365 # aaaaaaab <_end+0x1aaa60a7>
90001f14:	00656593          	ori	a1,a0,6
90001f18:	7cb22223          	sw	a1,1988(tp) # 7c4 <offset+0x75c>

90001f1c <inst_520>:
90001f1c:	aaaab537          	lui	a0,0xaaaab
90001f20:	aab50513          	addi	a0,a0,-1365 # aaaaaaab <_end+0x1aaa60a7>
90001f24:	33456593          	ori	a1,a0,820
90001f28:	7cb22423          	sw	a1,1992(tp) # 7c8 <offset+0x760>

90001f2c <inst_521>:
90001f2c:	aaaab537          	lui	a0,0xaaaab
90001f30:	aab50513          	addi	a0,a0,-1365 # aaaaaaab <_end+0x1aaa60a7>
90001f34:	66756593          	ori	a1,a0,1639
90001f38:	7cb22623          	sw	a1,1996(tp) # 7cc <offset+0x764>

90001f3c <inst_522>:
90001f3c:	aaaab537          	lui	a0,0xaaaab
90001f40:	aab50513          	addi	a0,a0,-1365 # aaaaaaab <_end+0x1aaa60a7>
90001f44:	fd456593          	ori	a1,a0,-44
90001f48:	7cb22823          	sw	a1,2000(tp) # 7d0 <offset+0x768>

90001f4c <inst_523>:
90001f4c:	aaaab537          	lui	a0,0xaaaab
90001f50:	aab50513          	addi	a0,a0,-1365 # aaaaaaab <_end+0x1aaa60a7>
90001f54:	02e56593          	ori	a1,a0,46
90001f58:	7cb22a23          	sw	a1,2004(tp) # 7d4 <offset+0x76c>

90001f5c <inst_524>:
90001f5c:	00600513          	li	a0,6
90001f60:	00356593          	ori	a1,a0,3
90001f64:	7cb22c23          	sw	a1,2008(tp) # 7d8 <offset+0x770>

90001f68 <inst_525>:
90001f68:	00600513          	li	a0,6
90001f6c:	55556593          	ori	a1,a0,1365
90001f70:	7cb22e23          	sw	a1,2012(tp) # 7dc <offset+0x774>

90001f74 <inst_526>:
90001f74:	00600513          	li	a0,6
90001f78:	aaa56593          	ori	a1,a0,-1366
90001f7c:	7eb22023          	sw	a1,2016(tp) # 7e0 <offset+0x778>

90001f80 <inst_527>:
90001f80:	00600513          	li	a0,6
90001f84:	00556593          	ori	a1,a0,5
90001f88:	7eb22223          	sw	a1,2020(tp) # 7e4 <offset+0x77c>

90001f8c <inst_528>:
90001f8c:	00600513          	li	a0,6
90001f90:	33356593          	ori	a1,a0,819
90001f94:	7eb22423          	sw	a1,2024(tp) # 7e8 <offset+0x780>

90001f98 <inst_529>:
90001f98:	00600513          	li	a0,6
90001f9c:	66656593          	ori	a1,a0,1638
90001fa0:	7eb22623          	sw	a1,2028(tp) # 7ec <offset+0x784>

90001fa4 <inst_530>:
90001fa4:	00600513          	li	a0,6
90001fa8:	fd356593          	ori	a1,a0,-45
90001fac:	7eb22823          	sw	a1,2032(tp) # 7f0 <offset+0x788>

90001fb0 <inst_531>:
90001fb0:	00600513          	li	a0,6
90001fb4:	02d56593          	ori	a1,a0,45
90001fb8:	7eb22a23          	sw	a1,2036(tp) # 7f4 <offset+0x78c>

90001fbc <inst_532>:
90001fbc:	00600513          	li	a0,6
90001fc0:	00256593          	ori	a1,a0,2
90001fc4:	7eb22c23          	sw	a1,2040(tp) # 7f8 <offset+0x790>

90001fc8 <inst_533>:
90001fc8:	00600513          	li	a0,6
90001fcc:	55456593          	ori	a1,a0,1364
90001fd0:	7eb22e23          	sw	a1,2044(tp) # 7fc <offset+0x794>
90001fd4:	00003217          	auipc	tp,0x3
90001fd8:	89420213          	addi	tp,tp,-1900 # 90004868 <signature_x4_1>

90001fdc <inst_534>:
90001fdc:	00600513          	li	a0,6
90001fe0:	00056593          	ori	a1,a0,0
90001fe4:	00b22023          	sw	a1,0(tp) # 0 <offset-0x68>

90001fe8 <inst_535>:
90001fe8:	00600513          	li	a0,6
90001fec:	00456593          	ori	a1,a0,4
90001ff0:	00b22223          	sw	a1,4(tp) # 4 <offset-0x64>

90001ff4 <inst_536>:
90001ff4:	00600513          	li	a0,6
90001ff8:	33256593          	ori	a1,a0,818
90001ffc:	00b22423          	sw	a1,8(tp) # 8 <offset-0x60>

90002000 <inst_537>:
90002000:	00600513          	li	a0,6
90002004:	66556593          	ori	a1,a0,1637
90002008:	00b22623          	sw	a1,12(tp) # c <offset-0x5c>

9000200c <inst_538>:
9000200c:	00600513          	li	a0,6
90002010:	02c56593          	ori	a1,a0,44
90002014:	00b22823          	sw	a1,16(tp) # 10 <offset-0x58>

90002018 <inst_539>:
90002018:	00600513          	li	a0,6
9000201c:	55656593          	ori	a1,a0,1366
90002020:	00b22a23          	sw	a1,20(tp) # 14 <offset-0x54>

90002024 <inst_540>:
90002024:	00600513          	li	a0,6
90002028:	aab56593          	ori	a1,a0,-1365
9000202c:	00b22c23          	sw	a1,24(tp) # 18 <offset-0x50>

90002030 <inst_541>:
90002030:	00600513          	li	a0,6
90002034:	00656593          	ori	a1,a0,6
90002038:	00b22e23          	sw	a1,28(tp) # 1c <offset-0x4c>

9000203c <inst_542>:
9000203c:	00600513          	li	a0,6
90002040:	33456593          	ori	a1,a0,820
90002044:	02b22023          	sw	a1,32(tp) # 20 <offset-0x48>

90002048 <inst_543>:
90002048:	00600513          	li	a0,6
9000204c:	66756593          	ori	a1,a0,1639
90002050:	02b22223          	sw	a1,36(tp) # 24 <offset-0x44>

90002054 <inst_544>:
90002054:	00600513          	li	a0,6
90002058:	fd456593          	ori	a1,a0,-44
9000205c:	02b22423          	sw	a1,40(tp) # 28 <offset-0x40>

90002060 <inst_545>:
90002060:	00600513          	li	a0,6
90002064:	02e56593          	ori	a1,a0,46
90002068:	02b22623          	sw	a1,44(tp) # 2c <offset-0x3c>

9000206c <inst_546>:
9000206c:	33333537          	lui	a0,0x33333
90002070:	33450513          	addi	a0,a0,820 # 33333334 <offset+0x333332cc>
90002074:	00356593          	ori	a1,a0,3
90002078:	02b22823          	sw	a1,48(tp) # 30 <offset-0x38>

9000207c <inst_547>:
9000207c:	33333537          	lui	a0,0x33333
90002080:	33450513          	addi	a0,a0,820 # 33333334 <offset+0x333332cc>
90002084:	55556593          	ori	a1,a0,1365
90002088:	02b22a23          	sw	a1,52(tp) # 34 <offset-0x34>

9000208c <inst_548>:
9000208c:	33333537          	lui	a0,0x33333
90002090:	33450513          	addi	a0,a0,820 # 33333334 <offset+0x333332cc>
90002094:	aaa56593          	ori	a1,a0,-1366
90002098:	02b22c23          	sw	a1,56(tp) # 38 <offset-0x30>

9000209c <inst_549>:
9000209c:	33333537          	lui	a0,0x33333
900020a0:	33450513          	addi	a0,a0,820 # 33333334 <offset+0x333332cc>
900020a4:	00556593          	ori	a1,a0,5
900020a8:	02b22e23          	sw	a1,60(tp) # 3c <offset-0x2c>

900020ac <inst_550>:
900020ac:	33333537          	lui	a0,0x33333
900020b0:	33450513          	addi	a0,a0,820 # 33333334 <offset+0x333332cc>
900020b4:	33356593          	ori	a1,a0,819
900020b8:	04b22023          	sw	a1,64(tp) # 40 <offset-0x28>

900020bc <inst_551>:
900020bc:	33333537          	lui	a0,0x33333
900020c0:	33450513          	addi	a0,a0,820 # 33333334 <offset+0x333332cc>
900020c4:	66656593          	ori	a1,a0,1638
900020c8:	04b22223          	sw	a1,68(tp) # 44 <offset-0x24>

900020cc <inst_552>:
900020cc:	33333537          	lui	a0,0x33333
900020d0:	33450513          	addi	a0,a0,820 # 33333334 <offset+0x333332cc>
900020d4:	fd356593          	ori	a1,a0,-45
900020d8:	04b22423          	sw	a1,72(tp) # 48 <offset-0x20>

900020dc <inst_553>:
900020dc:	33333537          	lui	a0,0x33333
900020e0:	33450513          	addi	a0,a0,820 # 33333334 <offset+0x333332cc>
900020e4:	02d56593          	ori	a1,a0,45
900020e8:	04b22623          	sw	a1,76(tp) # 4c <offset-0x1c>

900020ec <inst_554>:
900020ec:	33333537          	lui	a0,0x33333
900020f0:	33450513          	addi	a0,a0,820 # 33333334 <offset+0x333332cc>
900020f4:	00256593          	ori	a1,a0,2
900020f8:	04b22823          	sw	a1,80(tp) # 50 <offset-0x18>

900020fc <inst_555>:
900020fc:	33333537          	lui	a0,0x33333
90002100:	33450513          	addi	a0,a0,820 # 33333334 <offset+0x333332cc>
90002104:	55456593          	ori	a1,a0,1364
90002108:	04b22a23          	sw	a1,84(tp) # 54 <offset-0x14>

9000210c <inst_556>:
9000210c:	33333537          	lui	a0,0x33333
90002110:	33450513          	addi	a0,a0,820 # 33333334 <offset+0x333332cc>
90002114:	00056593          	ori	a1,a0,0
90002118:	04b22c23          	sw	a1,88(tp) # 58 <offset-0x10>

9000211c <inst_557>:
9000211c:	33333537          	lui	a0,0x33333
90002120:	33450513          	addi	a0,a0,820 # 33333334 <offset+0x333332cc>
90002124:	00456593          	ori	a1,a0,4
90002128:	04b22e23          	sw	a1,92(tp) # 5c <offset-0xc>

9000212c <inst_558>:
9000212c:	c0000537          	lui	a0,0xc0000
90002130:	fff50513          	addi	a0,a0,-1 # bfffffff <_end+0x2fffb5fb>
90002134:	40056593          	ori	a1,a0,1024
90002138:	06b22023          	sw	a1,96(tp) # 60 <offset-0x8>

9000213c <inst_559>:
9000213c:	ffffc537          	lui	a0,0xffffc
90002140:	fff50513          	addi	a0,a0,-1 # ffffbfff <_end+0x6fff75fb>
90002144:	fef56593          	ori	a1,a0,-17
90002148:	06b22223          	sw	a1,100(tp) # 64 <offset-0x4>
9000214c:	00000013          	nop

90002150 <rvtest_code_end>:
90002150:	00408093          	addi	ra,ra,4
90002154:	00100093          	li	ra,1

90002158 <write_tohost>:
90002158:	00001f17          	auipc	t5,0x1
9000215c:	ea1f2423          	sw	ra,-344(t5) # 90003000 <tohost>

90002160 <self_loop>:
90002160:	0000006f          	j	90002160 <self_loop>
	...

Disassembly of section .tohost:

90003000 <tohost>:
	...

90003100 <fromhost>:
	...

Disassembly of section .data:

90004000 <rvtest_data_begin>:
90004000:	cafe                	sw	t6,84(sp)
90004002:	babe                	fsd	fa5,368(sp)

90004004 <rvtest_data_end>:
	...

90004010 <begin_signature>:
90004010:	deadbeef          	jal	t4,8ffdf5fa <offset+0x8ffdf592>
90004014:	deadbeef          	jal	t4,8ffdf5fe <offset+0x8ffdf596>
90004018:	deadbeef          	jal	t4,8ffdf602 <offset+0x8ffdf59a>
9000401c:	deadbeef          	jal	t4,8ffdf606 <offset+0x8ffdf59e>
90004020:	deadbeef          	jal	t4,8ffdf60a <offset+0x8ffdf5a2>
90004024:	deadbeef          	jal	t4,8ffdf60e <offset+0x8ffdf5a6>
90004028:	deadbeef          	jal	t4,8ffdf612 <offset+0x8ffdf5aa>
9000402c:	deadbeef          	jal	t4,8ffdf616 <offset+0x8ffdf5ae>
90004030:	deadbeef          	jal	t4,8ffdf61a <offset+0x8ffdf5b2>
90004034:	deadbeef          	jal	t4,8ffdf61e <offset+0x8ffdf5b6>
90004038:	deadbeef          	jal	t4,8ffdf622 <offset+0x8ffdf5ba>
9000403c:	deadbeef          	jal	t4,8ffdf626 <offset+0x8ffdf5be>
90004040:	deadbeef          	jal	t4,8ffdf62a <offset+0x8ffdf5c2>
90004044:	deadbeef          	jal	t4,8ffdf62e <offset+0x8ffdf5c6>
90004048:	deadbeef          	jal	t4,8ffdf632 <offset+0x8ffdf5ca>
9000404c:	deadbeef          	jal	t4,8ffdf636 <offset+0x8ffdf5ce>
90004050:	deadbeef          	jal	t4,8ffdf63a <offset+0x8ffdf5d2>
90004054:	deadbeef          	jal	t4,8ffdf63e <offset+0x8ffdf5d6>
90004058:	deadbeef          	jal	t4,8ffdf642 <offset+0x8ffdf5da>
9000405c:	deadbeef          	jal	t4,8ffdf646 <offset+0x8ffdf5de>
90004060:	deadbeef          	jal	t4,8ffdf64a <offset+0x8ffdf5e2>
90004064:	deadbeef          	jal	t4,8ffdf64e <offset+0x8ffdf5e6>

90004068 <signature_x4_0>:
90004068:	deadbeef          	jal	t4,8ffdf652 <offset+0x8ffdf5ea>
9000406c:	deadbeef          	jal	t4,8ffdf656 <offset+0x8ffdf5ee>
90004070:	deadbeef          	jal	t4,8ffdf65a <offset+0x8ffdf5f2>
90004074:	deadbeef          	jal	t4,8ffdf65e <offset+0x8ffdf5f6>
90004078:	deadbeef          	jal	t4,8ffdf662 <offset+0x8ffdf5fa>
9000407c:	deadbeef          	jal	t4,8ffdf666 <offset+0x8ffdf5fe>
90004080:	deadbeef          	jal	t4,8ffdf66a <offset+0x8ffdf602>
90004084:	deadbeef          	jal	t4,8ffdf66e <offset+0x8ffdf606>
90004088:	deadbeef          	jal	t4,8ffdf672 <offset+0x8ffdf60a>
9000408c:	deadbeef          	jal	t4,8ffdf676 <offset+0x8ffdf60e>
90004090:	deadbeef          	jal	t4,8ffdf67a <offset+0x8ffdf612>
90004094:	deadbeef          	jal	t4,8ffdf67e <offset+0x8ffdf616>
90004098:	deadbeef          	jal	t4,8ffdf682 <offset+0x8ffdf61a>
9000409c:	deadbeef          	jal	t4,8ffdf686 <offset+0x8ffdf61e>
900040a0:	deadbeef          	jal	t4,8ffdf68a <offset+0x8ffdf622>
900040a4:	deadbeef          	jal	t4,8ffdf68e <offset+0x8ffdf626>
900040a8:	deadbeef          	jal	t4,8ffdf692 <offset+0x8ffdf62a>
900040ac:	deadbeef          	jal	t4,8ffdf696 <offset+0x8ffdf62e>
900040b0:	deadbeef          	jal	t4,8ffdf69a <offset+0x8ffdf632>
900040b4:	deadbeef          	jal	t4,8ffdf69e <offset+0x8ffdf636>
900040b8:	deadbeef          	jal	t4,8ffdf6a2 <offset+0x8ffdf63a>
900040bc:	deadbeef          	jal	t4,8ffdf6a6 <offset+0x8ffdf63e>
900040c0:	deadbeef          	jal	t4,8ffdf6aa <offset+0x8ffdf642>
900040c4:	deadbeef          	jal	t4,8ffdf6ae <offset+0x8ffdf646>
900040c8:	deadbeef          	jal	t4,8ffdf6b2 <offset+0x8ffdf64a>
900040cc:	deadbeef          	jal	t4,8ffdf6b6 <offset+0x8ffdf64e>
900040d0:	deadbeef          	jal	t4,8ffdf6ba <offset+0x8ffdf652>
900040d4:	deadbeef          	jal	t4,8ffdf6be <offset+0x8ffdf656>
900040d8:	deadbeef          	jal	t4,8ffdf6c2 <offset+0x8ffdf65a>
900040dc:	deadbeef          	jal	t4,8ffdf6c6 <offset+0x8ffdf65e>
900040e0:	deadbeef          	jal	t4,8ffdf6ca <offset+0x8ffdf662>
900040e4:	deadbeef          	jal	t4,8ffdf6ce <offset+0x8ffdf666>
900040e8:	deadbeef          	jal	t4,8ffdf6d2 <offset+0x8ffdf66a>
900040ec:	deadbeef          	jal	t4,8ffdf6d6 <offset+0x8ffdf66e>
900040f0:	deadbeef          	jal	t4,8ffdf6da <offset+0x8ffdf672>
900040f4:	deadbeef          	jal	t4,8ffdf6de <offset+0x8ffdf676>
900040f8:	deadbeef          	jal	t4,8ffdf6e2 <offset+0x8ffdf67a>
900040fc:	deadbeef          	jal	t4,8ffdf6e6 <offset+0x8ffdf67e>
90004100:	deadbeef          	jal	t4,8ffdf6ea <offset+0x8ffdf682>
90004104:	deadbeef          	jal	t4,8ffdf6ee <offset+0x8ffdf686>
90004108:	deadbeef          	jal	t4,8ffdf6f2 <offset+0x8ffdf68a>
9000410c:	deadbeef          	jal	t4,8ffdf6f6 <offset+0x8ffdf68e>
90004110:	deadbeef          	jal	t4,8ffdf6fa <offset+0x8ffdf692>
90004114:	deadbeef          	jal	t4,8ffdf6fe <offset+0x8ffdf696>
90004118:	deadbeef          	jal	t4,8ffdf702 <offset+0x8ffdf69a>
9000411c:	deadbeef          	jal	t4,8ffdf706 <offset+0x8ffdf69e>
90004120:	deadbeef          	jal	t4,8ffdf70a <offset+0x8ffdf6a2>
90004124:	deadbeef          	jal	t4,8ffdf70e <offset+0x8ffdf6a6>
90004128:	deadbeef          	jal	t4,8ffdf712 <offset+0x8ffdf6aa>
9000412c:	deadbeef          	jal	t4,8ffdf716 <offset+0x8ffdf6ae>
90004130:	deadbeef          	jal	t4,8ffdf71a <offset+0x8ffdf6b2>
90004134:	deadbeef          	jal	t4,8ffdf71e <offset+0x8ffdf6b6>
90004138:	deadbeef          	jal	t4,8ffdf722 <offset+0x8ffdf6ba>
9000413c:	deadbeef          	jal	t4,8ffdf726 <offset+0x8ffdf6be>
90004140:	deadbeef          	jal	t4,8ffdf72a <offset+0x8ffdf6c2>
90004144:	deadbeef          	jal	t4,8ffdf72e <offset+0x8ffdf6c6>
90004148:	deadbeef          	jal	t4,8ffdf732 <offset+0x8ffdf6ca>
9000414c:	deadbeef          	jal	t4,8ffdf736 <offset+0x8ffdf6ce>
90004150:	deadbeef          	jal	t4,8ffdf73a <offset+0x8ffdf6d2>
90004154:	deadbeef          	jal	t4,8ffdf73e <offset+0x8ffdf6d6>
90004158:	deadbeef          	jal	t4,8ffdf742 <offset+0x8ffdf6da>
9000415c:	deadbeef          	jal	t4,8ffdf746 <offset+0x8ffdf6de>
90004160:	deadbeef          	jal	t4,8ffdf74a <offset+0x8ffdf6e2>
90004164:	deadbeef          	jal	t4,8ffdf74e <offset+0x8ffdf6e6>
90004168:	deadbeef          	jal	t4,8ffdf752 <offset+0x8ffdf6ea>
9000416c:	deadbeef          	jal	t4,8ffdf756 <offset+0x8ffdf6ee>
90004170:	deadbeef          	jal	t4,8ffdf75a <offset+0x8ffdf6f2>
90004174:	deadbeef          	jal	t4,8ffdf75e <offset+0x8ffdf6f6>
90004178:	deadbeef          	jal	t4,8ffdf762 <offset+0x8ffdf6fa>
9000417c:	deadbeef          	jal	t4,8ffdf766 <offset+0x8ffdf6fe>
90004180:	deadbeef          	jal	t4,8ffdf76a <offset+0x8ffdf702>
90004184:	deadbeef          	jal	t4,8ffdf76e <offset+0x8ffdf706>
90004188:	deadbeef          	jal	t4,8ffdf772 <offset+0x8ffdf70a>
9000418c:	deadbeef          	jal	t4,8ffdf776 <offset+0x8ffdf70e>
90004190:	deadbeef          	jal	t4,8ffdf77a <offset+0x8ffdf712>
90004194:	deadbeef          	jal	t4,8ffdf77e <offset+0x8ffdf716>
90004198:	deadbeef          	jal	t4,8ffdf782 <offset+0x8ffdf71a>
9000419c:	deadbeef          	jal	t4,8ffdf786 <offset+0x8ffdf71e>
900041a0:	deadbeef          	jal	t4,8ffdf78a <offset+0x8ffdf722>
900041a4:	deadbeef          	jal	t4,8ffdf78e <offset+0x8ffdf726>
900041a8:	deadbeef          	jal	t4,8ffdf792 <offset+0x8ffdf72a>
900041ac:	deadbeef          	jal	t4,8ffdf796 <offset+0x8ffdf72e>
900041b0:	deadbeef          	jal	t4,8ffdf79a <offset+0x8ffdf732>
900041b4:	deadbeef          	jal	t4,8ffdf79e <offset+0x8ffdf736>
900041b8:	deadbeef          	jal	t4,8ffdf7a2 <offset+0x8ffdf73a>
900041bc:	deadbeef          	jal	t4,8ffdf7a6 <offset+0x8ffdf73e>
900041c0:	deadbeef          	jal	t4,8ffdf7aa <offset+0x8ffdf742>
900041c4:	deadbeef          	jal	t4,8ffdf7ae <offset+0x8ffdf746>
900041c8:	deadbeef          	jal	t4,8ffdf7b2 <offset+0x8ffdf74a>
900041cc:	deadbeef          	jal	t4,8ffdf7b6 <offset+0x8ffdf74e>
900041d0:	deadbeef          	jal	t4,8ffdf7ba <offset+0x8ffdf752>
900041d4:	deadbeef          	jal	t4,8ffdf7be <offset+0x8ffdf756>
900041d8:	deadbeef          	jal	t4,8ffdf7c2 <offset+0x8ffdf75a>
900041dc:	deadbeef          	jal	t4,8ffdf7c6 <offset+0x8ffdf75e>
900041e0:	deadbeef          	jal	t4,8ffdf7ca <offset+0x8ffdf762>
900041e4:	deadbeef          	jal	t4,8ffdf7ce <offset+0x8ffdf766>
900041e8:	deadbeef          	jal	t4,8ffdf7d2 <offset+0x8ffdf76a>
900041ec:	deadbeef          	jal	t4,8ffdf7d6 <offset+0x8ffdf76e>
900041f0:	deadbeef          	jal	t4,8ffdf7da <offset+0x8ffdf772>
900041f4:	deadbeef          	jal	t4,8ffdf7de <offset+0x8ffdf776>
900041f8:	deadbeef          	jal	t4,8ffdf7e2 <offset+0x8ffdf77a>
900041fc:	deadbeef          	jal	t4,8ffdf7e6 <offset+0x8ffdf77e>
90004200:	deadbeef          	jal	t4,8ffdf7ea <offset+0x8ffdf782>
90004204:	deadbeef          	jal	t4,8ffdf7ee <offset+0x8ffdf786>
90004208:	deadbeef          	jal	t4,8ffdf7f2 <offset+0x8ffdf78a>
9000420c:	deadbeef          	jal	t4,8ffdf7f6 <offset+0x8ffdf78e>
90004210:	deadbeef          	jal	t4,8ffdf7fa <offset+0x8ffdf792>
90004214:	deadbeef          	jal	t4,8ffdf7fe <offset+0x8ffdf796>
90004218:	deadbeef          	jal	t4,8ffdf802 <offset+0x8ffdf79a>
9000421c:	deadbeef          	jal	t4,8ffdf806 <offset+0x8ffdf79e>
90004220:	deadbeef          	jal	t4,8ffdf80a <offset+0x8ffdf7a2>
90004224:	deadbeef          	jal	t4,8ffdf80e <offset+0x8ffdf7a6>
90004228:	deadbeef          	jal	t4,8ffdf812 <offset+0x8ffdf7aa>
9000422c:	deadbeef          	jal	t4,8ffdf816 <offset+0x8ffdf7ae>
90004230:	deadbeef          	jal	t4,8ffdf81a <offset+0x8ffdf7b2>
90004234:	deadbeef          	jal	t4,8ffdf81e <offset+0x8ffdf7b6>
90004238:	deadbeef          	jal	t4,8ffdf822 <offset+0x8ffdf7ba>
9000423c:	deadbeef          	jal	t4,8ffdf826 <offset+0x8ffdf7be>
90004240:	deadbeef          	jal	t4,8ffdf82a <offset+0x8ffdf7c2>
90004244:	deadbeef          	jal	t4,8ffdf82e <offset+0x8ffdf7c6>
90004248:	deadbeef          	jal	t4,8ffdf832 <offset+0x8ffdf7ca>
9000424c:	deadbeef          	jal	t4,8ffdf836 <offset+0x8ffdf7ce>
90004250:	deadbeef          	jal	t4,8ffdf83a <offset+0x8ffdf7d2>
90004254:	deadbeef          	jal	t4,8ffdf83e <offset+0x8ffdf7d6>
90004258:	deadbeef          	jal	t4,8ffdf842 <offset+0x8ffdf7da>
9000425c:	deadbeef          	jal	t4,8ffdf846 <offset+0x8ffdf7de>
90004260:	deadbeef          	jal	t4,8ffdf84a <offset+0x8ffdf7e2>
90004264:	deadbeef          	jal	t4,8ffdf84e <offset+0x8ffdf7e6>
90004268:	deadbeef          	jal	t4,8ffdf852 <offset+0x8ffdf7ea>
9000426c:	deadbeef          	jal	t4,8ffdf856 <offset+0x8ffdf7ee>
90004270:	deadbeef          	jal	t4,8ffdf85a <offset+0x8ffdf7f2>
90004274:	deadbeef          	jal	t4,8ffdf85e <offset+0x8ffdf7f6>
90004278:	deadbeef          	jal	t4,8ffdf862 <offset+0x8ffdf7fa>
9000427c:	deadbeef          	jal	t4,8ffdf866 <offset+0x8ffdf7fe>
90004280:	deadbeef          	jal	t4,8ffdf86a <offset+0x8ffdf802>
90004284:	deadbeef          	jal	t4,8ffdf86e <offset+0x8ffdf806>
90004288:	deadbeef          	jal	t4,8ffdf872 <offset+0x8ffdf80a>
9000428c:	deadbeef          	jal	t4,8ffdf876 <offset+0x8ffdf80e>
90004290:	deadbeef          	jal	t4,8ffdf87a <offset+0x8ffdf812>
90004294:	deadbeef          	jal	t4,8ffdf87e <offset+0x8ffdf816>
90004298:	deadbeef          	jal	t4,8ffdf882 <offset+0x8ffdf81a>
9000429c:	deadbeef          	jal	t4,8ffdf886 <offset+0x8ffdf81e>
900042a0:	deadbeef          	jal	t4,8ffdf88a <offset+0x8ffdf822>
900042a4:	deadbeef          	jal	t4,8ffdf88e <offset+0x8ffdf826>
900042a8:	deadbeef          	jal	t4,8ffdf892 <offset+0x8ffdf82a>
900042ac:	deadbeef          	jal	t4,8ffdf896 <offset+0x8ffdf82e>
900042b0:	deadbeef          	jal	t4,8ffdf89a <offset+0x8ffdf832>
900042b4:	deadbeef          	jal	t4,8ffdf89e <offset+0x8ffdf836>
900042b8:	deadbeef          	jal	t4,8ffdf8a2 <offset+0x8ffdf83a>
900042bc:	deadbeef          	jal	t4,8ffdf8a6 <offset+0x8ffdf83e>
900042c0:	deadbeef          	jal	t4,8ffdf8aa <offset+0x8ffdf842>
900042c4:	deadbeef          	jal	t4,8ffdf8ae <offset+0x8ffdf846>
900042c8:	deadbeef          	jal	t4,8ffdf8b2 <offset+0x8ffdf84a>
900042cc:	deadbeef          	jal	t4,8ffdf8b6 <offset+0x8ffdf84e>
900042d0:	deadbeef          	jal	t4,8ffdf8ba <offset+0x8ffdf852>
900042d4:	deadbeef          	jal	t4,8ffdf8be <offset+0x8ffdf856>
900042d8:	deadbeef          	jal	t4,8ffdf8c2 <offset+0x8ffdf85a>
900042dc:	deadbeef          	jal	t4,8ffdf8c6 <offset+0x8ffdf85e>
900042e0:	deadbeef          	jal	t4,8ffdf8ca <offset+0x8ffdf862>
900042e4:	deadbeef          	jal	t4,8ffdf8ce <offset+0x8ffdf866>
900042e8:	deadbeef          	jal	t4,8ffdf8d2 <offset+0x8ffdf86a>
900042ec:	deadbeef          	jal	t4,8ffdf8d6 <offset+0x8ffdf86e>
900042f0:	deadbeef          	jal	t4,8ffdf8da <offset+0x8ffdf872>
900042f4:	deadbeef          	jal	t4,8ffdf8de <offset+0x8ffdf876>
900042f8:	deadbeef          	jal	t4,8ffdf8e2 <offset+0x8ffdf87a>
900042fc:	deadbeef          	jal	t4,8ffdf8e6 <offset+0x8ffdf87e>
90004300:	deadbeef          	jal	t4,8ffdf8ea <offset+0x8ffdf882>
90004304:	deadbeef          	jal	t4,8ffdf8ee <offset+0x8ffdf886>
90004308:	deadbeef          	jal	t4,8ffdf8f2 <offset+0x8ffdf88a>
9000430c:	deadbeef          	jal	t4,8ffdf8f6 <offset+0x8ffdf88e>
90004310:	deadbeef          	jal	t4,8ffdf8fa <offset+0x8ffdf892>
90004314:	deadbeef          	jal	t4,8ffdf8fe <offset+0x8ffdf896>
90004318:	deadbeef          	jal	t4,8ffdf902 <offset+0x8ffdf89a>
9000431c:	deadbeef          	jal	t4,8ffdf906 <offset+0x8ffdf89e>
90004320:	deadbeef          	jal	t4,8ffdf90a <offset+0x8ffdf8a2>
90004324:	deadbeef          	jal	t4,8ffdf90e <offset+0x8ffdf8a6>
90004328:	deadbeef          	jal	t4,8ffdf912 <offset+0x8ffdf8aa>
9000432c:	deadbeef          	jal	t4,8ffdf916 <offset+0x8ffdf8ae>
90004330:	deadbeef          	jal	t4,8ffdf91a <offset+0x8ffdf8b2>
90004334:	deadbeef          	jal	t4,8ffdf91e <offset+0x8ffdf8b6>
90004338:	deadbeef          	jal	t4,8ffdf922 <offset+0x8ffdf8ba>
9000433c:	deadbeef          	jal	t4,8ffdf926 <offset+0x8ffdf8be>
90004340:	deadbeef          	jal	t4,8ffdf92a <offset+0x8ffdf8c2>
90004344:	deadbeef          	jal	t4,8ffdf92e <offset+0x8ffdf8c6>
90004348:	deadbeef          	jal	t4,8ffdf932 <offset+0x8ffdf8ca>
9000434c:	deadbeef          	jal	t4,8ffdf936 <offset+0x8ffdf8ce>
90004350:	deadbeef          	jal	t4,8ffdf93a <offset+0x8ffdf8d2>
90004354:	deadbeef          	jal	t4,8ffdf93e <offset+0x8ffdf8d6>
90004358:	deadbeef          	jal	t4,8ffdf942 <offset+0x8ffdf8da>
9000435c:	deadbeef          	jal	t4,8ffdf946 <offset+0x8ffdf8de>
90004360:	deadbeef          	jal	t4,8ffdf94a <offset+0x8ffdf8e2>
90004364:	deadbeef          	jal	t4,8ffdf94e <offset+0x8ffdf8e6>
90004368:	deadbeef          	jal	t4,8ffdf952 <offset+0x8ffdf8ea>
9000436c:	deadbeef          	jal	t4,8ffdf956 <offset+0x8ffdf8ee>
90004370:	deadbeef          	jal	t4,8ffdf95a <offset+0x8ffdf8f2>
90004374:	deadbeef          	jal	t4,8ffdf95e <offset+0x8ffdf8f6>
90004378:	deadbeef          	jal	t4,8ffdf962 <offset+0x8ffdf8fa>
9000437c:	deadbeef          	jal	t4,8ffdf966 <offset+0x8ffdf8fe>
90004380:	deadbeef          	jal	t4,8ffdf96a <offset+0x8ffdf902>
90004384:	deadbeef          	jal	t4,8ffdf96e <offset+0x8ffdf906>
90004388:	deadbeef          	jal	t4,8ffdf972 <offset+0x8ffdf90a>
9000438c:	deadbeef          	jal	t4,8ffdf976 <offset+0x8ffdf90e>
90004390:	deadbeef          	jal	t4,8ffdf97a <offset+0x8ffdf912>
90004394:	deadbeef          	jal	t4,8ffdf97e <offset+0x8ffdf916>
90004398:	deadbeef          	jal	t4,8ffdf982 <offset+0x8ffdf91a>
9000439c:	deadbeef          	jal	t4,8ffdf986 <offset+0x8ffdf91e>
900043a0:	deadbeef          	jal	t4,8ffdf98a <offset+0x8ffdf922>
900043a4:	deadbeef          	jal	t4,8ffdf98e <offset+0x8ffdf926>
900043a8:	deadbeef          	jal	t4,8ffdf992 <offset+0x8ffdf92a>
900043ac:	deadbeef          	jal	t4,8ffdf996 <offset+0x8ffdf92e>
900043b0:	deadbeef          	jal	t4,8ffdf99a <offset+0x8ffdf932>
900043b4:	deadbeef          	jal	t4,8ffdf99e <offset+0x8ffdf936>
900043b8:	deadbeef          	jal	t4,8ffdf9a2 <offset+0x8ffdf93a>
900043bc:	deadbeef          	jal	t4,8ffdf9a6 <offset+0x8ffdf93e>
900043c0:	deadbeef          	jal	t4,8ffdf9aa <offset+0x8ffdf942>
900043c4:	deadbeef          	jal	t4,8ffdf9ae <offset+0x8ffdf946>
900043c8:	deadbeef          	jal	t4,8ffdf9b2 <offset+0x8ffdf94a>
900043cc:	deadbeef          	jal	t4,8ffdf9b6 <offset+0x8ffdf94e>
900043d0:	deadbeef          	jal	t4,8ffdf9ba <offset+0x8ffdf952>
900043d4:	deadbeef          	jal	t4,8ffdf9be <offset+0x8ffdf956>
900043d8:	deadbeef          	jal	t4,8ffdf9c2 <offset+0x8ffdf95a>
900043dc:	deadbeef          	jal	t4,8ffdf9c6 <offset+0x8ffdf95e>
900043e0:	deadbeef          	jal	t4,8ffdf9ca <offset+0x8ffdf962>
900043e4:	deadbeef          	jal	t4,8ffdf9ce <offset+0x8ffdf966>
900043e8:	deadbeef          	jal	t4,8ffdf9d2 <offset+0x8ffdf96a>
900043ec:	deadbeef          	jal	t4,8ffdf9d6 <offset+0x8ffdf96e>
900043f0:	deadbeef          	jal	t4,8ffdf9da <offset+0x8ffdf972>
900043f4:	deadbeef          	jal	t4,8ffdf9de <offset+0x8ffdf976>
900043f8:	deadbeef          	jal	t4,8ffdf9e2 <offset+0x8ffdf97a>
900043fc:	deadbeef          	jal	t4,8ffdf9e6 <offset+0x8ffdf97e>
90004400:	deadbeef          	jal	t4,8ffdf9ea <offset+0x8ffdf982>
90004404:	deadbeef          	jal	t4,8ffdf9ee <offset+0x8ffdf986>
90004408:	deadbeef          	jal	t4,8ffdf9f2 <offset+0x8ffdf98a>
9000440c:	deadbeef          	jal	t4,8ffdf9f6 <offset+0x8ffdf98e>
90004410:	deadbeef          	jal	t4,8ffdf9fa <offset+0x8ffdf992>
90004414:	deadbeef          	jal	t4,8ffdf9fe <offset+0x8ffdf996>
90004418:	deadbeef          	jal	t4,8ffdfa02 <offset+0x8ffdf99a>
9000441c:	deadbeef          	jal	t4,8ffdfa06 <offset+0x8ffdf99e>
90004420:	deadbeef          	jal	t4,8ffdfa0a <offset+0x8ffdf9a2>
90004424:	deadbeef          	jal	t4,8ffdfa0e <offset+0x8ffdf9a6>
90004428:	deadbeef          	jal	t4,8ffdfa12 <offset+0x8ffdf9aa>
9000442c:	deadbeef          	jal	t4,8ffdfa16 <offset+0x8ffdf9ae>
90004430:	deadbeef          	jal	t4,8ffdfa1a <offset+0x8ffdf9b2>
90004434:	deadbeef          	jal	t4,8ffdfa1e <offset+0x8ffdf9b6>
90004438:	deadbeef          	jal	t4,8ffdfa22 <offset+0x8ffdf9ba>
9000443c:	deadbeef          	jal	t4,8ffdfa26 <offset+0x8ffdf9be>
90004440:	deadbeef          	jal	t4,8ffdfa2a <offset+0x8ffdf9c2>
90004444:	deadbeef          	jal	t4,8ffdfa2e <offset+0x8ffdf9c6>
90004448:	deadbeef          	jal	t4,8ffdfa32 <offset+0x8ffdf9ca>
9000444c:	deadbeef          	jal	t4,8ffdfa36 <offset+0x8ffdf9ce>
90004450:	deadbeef          	jal	t4,8ffdfa3a <offset+0x8ffdf9d2>
90004454:	deadbeef          	jal	t4,8ffdfa3e <offset+0x8ffdf9d6>
90004458:	deadbeef          	jal	t4,8ffdfa42 <offset+0x8ffdf9da>
9000445c:	deadbeef          	jal	t4,8ffdfa46 <offset+0x8ffdf9de>
90004460:	deadbeef          	jal	t4,8ffdfa4a <offset+0x8ffdf9e2>
90004464:	deadbeef          	jal	t4,8ffdfa4e <offset+0x8ffdf9e6>
90004468:	deadbeef          	jal	t4,8ffdfa52 <offset+0x8ffdf9ea>
9000446c:	deadbeef          	jal	t4,8ffdfa56 <offset+0x8ffdf9ee>
90004470:	deadbeef          	jal	t4,8ffdfa5a <offset+0x8ffdf9f2>
90004474:	deadbeef          	jal	t4,8ffdfa5e <offset+0x8ffdf9f6>
90004478:	deadbeef          	jal	t4,8ffdfa62 <offset+0x8ffdf9fa>
9000447c:	deadbeef          	jal	t4,8ffdfa66 <offset+0x8ffdf9fe>
90004480:	deadbeef          	jal	t4,8ffdfa6a <offset+0x8ffdfa02>
90004484:	deadbeef          	jal	t4,8ffdfa6e <offset+0x8ffdfa06>
90004488:	deadbeef          	jal	t4,8ffdfa72 <offset+0x8ffdfa0a>
9000448c:	deadbeef          	jal	t4,8ffdfa76 <offset+0x8ffdfa0e>
90004490:	deadbeef          	jal	t4,8ffdfa7a <offset+0x8ffdfa12>
90004494:	deadbeef          	jal	t4,8ffdfa7e <offset+0x8ffdfa16>
90004498:	deadbeef          	jal	t4,8ffdfa82 <offset+0x8ffdfa1a>
9000449c:	deadbeef          	jal	t4,8ffdfa86 <offset+0x8ffdfa1e>
900044a0:	deadbeef          	jal	t4,8ffdfa8a <offset+0x8ffdfa22>
900044a4:	deadbeef          	jal	t4,8ffdfa8e <offset+0x8ffdfa26>
900044a8:	deadbeef          	jal	t4,8ffdfa92 <offset+0x8ffdfa2a>
900044ac:	deadbeef          	jal	t4,8ffdfa96 <offset+0x8ffdfa2e>
900044b0:	deadbeef          	jal	t4,8ffdfa9a <offset+0x8ffdfa32>
900044b4:	deadbeef          	jal	t4,8ffdfa9e <offset+0x8ffdfa36>
900044b8:	deadbeef          	jal	t4,8ffdfaa2 <offset+0x8ffdfa3a>
900044bc:	deadbeef          	jal	t4,8ffdfaa6 <offset+0x8ffdfa3e>
900044c0:	deadbeef          	jal	t4,8ffdfaaa <offset+0x8ffdfa42>
900044c4:	deadbeef          	jal	t4,8ffdfaae <offset+0x8ffdfa46>
900044c8:	deadbeef          	jal	t4,8ffdfab2 <offset+0x8ffdfa4a>
900044cc:	deadbeef          	jal	t4,8ffdfab6 <offset+0x8ffdfa4e>
900044d0:	deadbeef          	jal	t4,8ffdfaba <offset+0x8ffdfa52>
900044d4:	deadbeef          	jal	t4,8ffdfabe <offset+0x8ffdfa56>
900044d8:	deadbeef          	jal	t4,8ffdfac2 <offset+0x8ffdfa5a>
900044dc:	deadbeef          	jal	t4,8ffdfac6 <offset+0x8ffdfa5e>
900044e0:	deadbeef          	jal	t4,8ffdfaca <offset+0x8ffdfa62>
900044e4:	deadbeef          	jal	t4,8ffdface <offset+0x8ffdfa66>
900044e8:	deadbeef          	jal	t4,8ffdfad2 <offset+0x8ffdfa6a>
900044ec:	deadbeef          	jal	t4,8ffdfad6 <offset+0x8ffdfa6e>
900044f0:	deadbeef          	jal	t4,8ffdfada <offset+0x8ffdfa72>
900044f4:	deadbeef          	jal	t4,8ffdfade <offset+0x8ffdfa76>
900044f8:	deadbeef          	jal	t4,8ffdfae2 <offset+0x8ffdfa7a>
900044fc:	deadbeef          	jal	t4,8ffdfae6 <offset+0x8ffdfa7e>
90004500:	deadbeef          	jal	t4,8ffdfaea <offset+0x8ffdfa82>
90004504:	deadbeef          	jal	t4,8ffdfaee <offset+0x8ffdfa86>
90004508:	deadbeef          	jal	t4,8ffdfaf2 <offset+0x8ffdfa8a>
9000450c:	deadbeef          	jal	t4,8ffdfaf6 <offset+0x8ffdfa8e>
90004510:	deadbeef          	jal	t4,8ffdfafa <offset+0x8ffdfa92>
90004514:	deadbeef          	jal	t4,8ffdfafe <offset+0x8ffdfa96>
90004518:	deadbeef          	jal	t4,8ffdfb02 <offset+0x8ffdfa9a>
9000451c:	deadbeef          	jal	t4,8ffdfb06 <offset+0x8ffdfa9e>
90004520:	deadbeef          	jal	t4,8ffdfb0a <offset+0x8ffdfaa2>
90004524:	deadbeef          	jal	t4,8ffdfb0e <offset+0x8ffdfaa6>
90004528:	deadbeef          	jal	t4,8ffdfb12 <offset+0x8ffdfaaa>
9000452c:	deadbeef          	jal	t4,8ffdfb16 <offset+0x8ffdfaae>
90004530:	deadbeef          	jal	t4,8ffdfb1a <offset+0x8ffdfab2>
90004534:	deadbeef          	jal	t4,8ffdfb1e <offset+0x8ffdfab6>
90004538:	deadbeef          	jal	t4,8ffdfb22 <offset+0x8ffdfaba>
9000453c:	deadbeef          	jal	t4,8ffdfb26 <offset+0x8ffdfabe>
90004540:	deadbeef          	jal	t4,8ffdfb2a <offset+0x8ffdfac2>
90004544:	deadbeef          	jal	t4,8ffdfb2e <offset+0x8ffdfac6>
90004548:	deadbeef          	jal	t4,8ffdfb32 <offset+0x8ffdfaca>
9000454c:	deadbeef          	jal	t4,8ffdfb36 <offset+0x8ffdface>
90004550:	deadbeef          	jal	t4,8ffdfb3a <offset+0x8ffdfad2>
90004554:	deadbeef          	jal	t4,8ffdfb3e <offset+0x8ffdfad6>
90004558:	deadbeef          	jal	t4,8ffdfb42 <offset+0x8ffdfada>
9000455c:	deadbeef          	jal	t4,8ffdfb46 <offset+0x8ffdfade>
90004560:	deadbeef          	jal	t4,8ffdfb4a <offset+0x8ffdfae2>
90004564:	deadbeef          	jal	t4,8ffdfb4e <offset+0x8ffdfae6>
90004568:	deadbeef          	jal	t4,8ffdfb52 <offset+0x8ffdfaea>
9000456c:	deadbeef          	jal	t4,8ffdfb56 <offset+0x8ffdfaee>
90004570:	deadbeef          	jal	t4,8ffdfb5a <offset+0x8ffdfaf2>
90004574:	deadbeef          	jal	t4,8ffdfb5e <offset+0x8ffdfaf6>
90004578:	deadbeef          	jal	t4,8ffdfb62 <offset+0x8ffdfafa>
9000457c:	deadbeef          	jal	t4,8ffdfb66 <offset+0x8ffdfafe>
90004580:	deadbeef          	jal	t4,8ffdfb6a <offset+0x8ffdfb02>
90004584:	deadbeef          	jal	t4,8ffdfb6e <offset+0x8ffdfb06>
90004588:	deadbeef          	jal	t4,8ffdfb72 <offset+0x8ffdfb0a>
9000458c:	deadbeef          	jal	t4,8ffdfb76 <offset+0x8ffdfb0e>
90004590:	deadbeef          	jal	t4,8ffdfb7a <offset+0x8ffdfb12>
90004594:	deadbeef          	jal	t4,8ffdfb7e <offset+0x8ffdfb16>
90004598:	deadbeef          	jal	t4,8ffdfb82 <offset+0x8ffdfb1a>
9000459c:	deadbeef          	jal	t4,8ffdfb86 <offset+0x8ffdfb1e>
900045a0:	deadbeef          	jal	t4,8ffdfb8a <offset+0x8ffdfb22>
900045a4:	deadbeef          	jal	t4,8ffdfb8e <offset+0x8ffdfb26>
900045a8:	deadbeef          	jal	t4,8ffdfb92 <offset+0x8ffdfb2a>
900045ac:	deadbeef          	jal	t4,8ffdfb96 <offset+0x8ffdfb2e>
900045b0:	deadbeef          	jal	t4,8ffdfb9a <offset+0x8ffdfb32>
900045b4:	deadbeef          	jal	t4,8ffdfb9e <offset+0x8ffdfb36>
900045b8:	deadbeef          	jal	t4,8ffdfba2 <offset+0x8ffdfb3a>
900045bc:	deadbeef          	jal	t4,8ffdfba6 <offset+0x8ffdfb3e>
900045c0:	deadbeef          	jal	t4,8ffdfbaa <offset+0x8ffdfb42>
900045c4:	deadbeef          	jal	t4,8ffdfbae <offset+0x8ffdfb46>
900045c8:	deadbeef          	jal	t4,8ffdfbb2 <offset+0x8ffdfb4a>
900045cc:	deadbeef          	jal	t4,8ffdfbb6 <offset+0x8ffdfb4e>
900045d0:	deadbeef          	jal	t4,8ffdfbba <offset+0x8ffdfb52>
900045d4:	deadbeef          	jal	t4,8ffdfbbe <offset+0x8ffdfb56>
900045d8:	deadbeef          	jal	t4,8ffdfbc2 <offset+0x8ffdfb5a>
900045dc:	deadbeef          	jal	t4,8ffdfbc6 <offset+0x8ffdfb5e>
900045e0:	deadbeef          	jal	t4,8ffdfbca <offset+0x8ffdfb62>
900045e4:	deadbeef          	jal	t4,8ffdfbce <offset+0x8ffdfb66>
900045e8:	deadbeef          	jal	t4,8ffdfbd2 <offset+0x8ffdfb6a>
900045ec:	deadbeef          	jal	t4,8ffdfbd6 <offset+0x8ffdfb6e>
900045f0:	deadbeef          	jal	t4,8ffdfbda <offset+0x8ffdfb72>
900045f4:	deadbeef          	jal	t4,8ffdfbde <offset+0x8ffdfb76>
900045f8:	deadbeef          	jal	t4,8ffdfbe2 <offset+0x8ffdfb7a>
900045fc:	deadbeef          	jal	t4,8ffdfbe6 <offset+0x8ffdfb7e>
90004600:	deadbeef          	jal	t4,8ffdfbea <offset+0x8ffdfb82>
90004604:	deadbeef          	jal	t4,8ffdfbee <offset+0x8ffdfb86>
90004608:	deadbeef          	jal	t4,8ffdfbf2 <offset+0x8ffdfb8a>
9000460c:	deadbeef          	jal	t4,8ffdfbf6 <offset+0x8ffdfb8e>
90004610:	deadbeef          	jal	t4,8ffdfbfa <offset+0x8ffdfb92>
90004614:	deadbeef          	jal	t4,8ffdfbfe <offset+0x8ffdfb96>
90004618:	deadbeef          	jal	t4,8ffdfc02 <offset+0x8ffdfb9a>
9000461c:	deadbeef          	jal	t4,8ffdfc06 <offset+0x8ffdfb9e>
90004620:	deadbeef          	jal	t4,8ffdfc0a <offset+0x8ffdfba2>
90004624:	deadbeef          	jal	t4,8ffdfc0e <offset+0x8ffdfba6>
90004628:	deadbeef          	jal	t4,8ffdfc12 <offset+0x8ffdfbaa>
9000462c:	deadbeef          	jal	t4,8ffdfc16 <offset+0x8ffdfbae>
90004630:	deadbeef          	jal	t4,8ffdfc1a <offset+0x8ffdfbb2>
90004634:	deadbeef          	jal	t4,8ffdfc1e <offset+0x8ffdfbb6>
90004638:	deadbeef          	jal	t4,8ffdfc22 <offset+0x8ffdfbba>
9000463c:	deadbeef          	jal	t4,8ffdfc26 <offset+0x8ffdfbbe>
90004640:	deadbeef          	jal	t4,8ffdfc2a <offset+0x8ffdfbc2>
90004644:	deadbeef          	jal	t4,8ffdfc2e <offset+0x8ffdfbc6>
90004648:	deadbeef          	jal	t4,8ffdfc32 <offset+0x8ffdfbca>
9000464c:	deadbeef          	jal	t4,8ffdfc36 <offset+0x8ffdfbce>
90004650:	deadbeef          	jal	t4,8ffdfc3a <offset+0x8ffdfbd2>
90004654:	deadbeef          	jal	t4,8ffdfc3e <offset+0x8ffdfbd6>
90004658:	deadbeef          	jal	t4,8ffdfc42 <offset+0x8ffdfbda>
9000465c:	deadbeef          	jal	t4,8ffdfc46 <offset+0x8ffdfbde>
90004660:	deadbeef          	jal	t4,8ffdfc4a <offset+0x8ffdfbe2>
90004664:	deadbeef          	jal	t4,8ffdfc4e <offset+0x8ffdfbe6>
90004668:	deadbeef          	jal	t4,8ffdfc52 <offset+0x8ffdfbea>
9000466c:	deadbeef          	jal	t4,8ffdfc56 <offset+0x8ffdfbee>
90004670:	deadbeef          	jal	t4,8ffdfc5a <offset+0x8ffdfbf2>
90004674:	deadbeef          	jal	t4,8ffdfc5e <offset+0x8ffdfbf6>
90004678:	deadbeef          	jal	t4,8ffdfc62 <offset+0x8ffdfbfa>
9000467c:	deadbeef          	jal	t4,8ffdfc66 <offset+0x8ffdfbfe>
90004680:	deadbeef          	jal	t4,8ffdfc6a <offset+0x8ffdfc02>
90004684:	deadbeef          	jal	t4,8ffdfc6e <offset+0x8ffdfc06>
90004688:	deadbeef          	jal	t4,8ffdfc72 <offset+0x8ffdfc0a>
9000468c:	deadbeef          	jal	t4,8ffdfc76 <offset+0x8ffdfc0e>
90004690:	deadbeef          	jal	t4,8ffdfc7a <offset+0x8ffdfc12>
90004694:	deadbeef          	jal	t4,8ffdfc7e <offset+0x8ffdfc16>
90004698:	deadbeef          	jal	t4,8ffdfc82 <offset+0x8ffdfc1a>
9000469c:	deadbeef          	jal	t4,8ffdfc86 <offset+0x8ffdfc1e>
900046a0:	deadbeef          	jal	t4,8ffdfc8a <offset+0x8ffdfc22>
900046a4:	deadbeef          	jal	t4,8ffdfc8e <offset+0x8ffdfc26>
900046a8:	deadbeef          	jal	t4,8ffdfc92 <offset+0x8ffdfc2a>
900046ac:	deadbeef          	jal	t4,8ffdfc96 <offset+0x8ffdfc2e>
900046b0:	deadbeef          	jal	t4,8ffdfc9a <offset+0x8ffdfc32>
900046b4:	deadbeef          	jal	t4,8ffdfc9e <offset+0x8ffdfc36>
900046b8:	deadbeef          	jal	t4,8ffdfca2 <offset+0x8ffdfc3a>
900046bc:	deadbeef          	jal	t4,8ffdfca6 <offset+0x8ffdfc3e>
900046c0:	deadbeef          	jal	t4,8ffdfcaa <offset+0x8ffdfc42>
900046c4:	deadbeef          	jal	t4,8ffdfcae <offset+0x8ffdfc46>
900046c8:	deadbeef          	jal	t4,8ffdfcb2 <offset+0x8ffdfc4a>
900046cc:	deadbeef          	jal	t4,8ffdfcb6 <offset+0x8ffdfc4e>
900046d0:	deadbeef          	jal	t4,8ffdfcba <offset+0x8ffdfc52>
900046d4:	deadbeef          	jal	t4,8ffdfcbe <offset+0x8ffdfc56>
900046d8:	deadbeef          	jal	t4,8ffdfcc2 <offset+0x8ffdfc5a>
900046dc:	deadbeef          	jal	t4,8ffdfcc6 <offset+0x8ffdfc5e>
900046e0:	deadbeef          	jal	t4,8ffdfcca <offset+0x8ffdfc62>
900046e4:	deadbeef          	jal	t4,8ffdfcce <offset+0x8ffdfc66>
900046e8:	deadbeef          	jal	t4,8ffdfcd2 <offset+0x8ffdfc6a>
900046ec:	deadbeef          	jal	t4,8ffdfcd6 <offset+0x8ffdfc6e>
900046f0:	deadbeef          	jal	t4,8ffdfcda <offset+0x8ffdfc72>
900046f4:	deadbeef          	jal	t4,8ffdfcde <offset+0x8ffdfc76>
900046f8:	deadbeef          	jal	t4,8ffdfce2 <offset+0x8ffdfc7a>
900046fc:	deadbeef          	jal	t4,8ffdfce6 <offset+0x8ffdfc7e>
90004700:	deadbeef          	jal	t4,8ffdfcea <offset+0x8ffdfc82>
90004704:	deadbeef          	jal	t4,8ffdfcee <offset+0x8ffdfc86>
90004708:	deadbeef          	jal	t4,8ffdfcf2 <offset+0x8ffdfc8a>
9000470c:	deadbeef          	jal	t4,8ffdfcf6 <offset+0x8ffdfc8e>
90004710:	deadbeef          	jal	t4,8ffdfcfa <offset+0x8ffdfc92>
90004714:	deadbeef          	jal	t4,8ffdfcfe <offset+0x8ffdfc96>
90004718:	deadbeef          	jal	t4,8ffdfd02 <offset+0x8ffdfc9a>
9000471c:	deadbeef          	jal	t4,8ffdfd06 <offset+0x8ffdfc9e>
90004720:	deadbeef          	jal	t4,8ffdfd0a <offset+0x8ffdfca2>
90004724:	deadbeef          	jal	t4,8ffdfd0e <offset+0x8ffdfca6>
90004728:	deadbeef          	jal	t4,8ffdfd12 <offset+0x8ffdfcaa>
9000472c:	deadbeef          	jal	t4,8ffdfd16 <offset+0x8ffdfcae>
90004730:	deadbeef          	jal	t4,8ffdfd1a <offset+0x8ffdfcb2>
90004734:	deadbeef          	jal	t4,8ffdfd1e <offset+0x8ffdfcb6>
90004738:	deadbeef          	jal	t4,8ffdfd22 <offset+0x8ffdfcba>
9000473c:	deadbeef          	jal	t4,8ffdfd26 <offset+0x8ffdfcbe>
90004740:	deadbeef          	jal	t4,8ffdfd2a <offset+0x8ffdfcc2>
90004744:	deadbeef          	jal	t4,8ffdfd2e <offset+0x8ffdfcc6>
90004748:	deadbeef          	jal	t4,8ffdfd32 <offset+0x8ffdfcca>
9000474c:	deadbeef          	jal	t4,8ffdfd36 <offset+0x8ffdfcce>
90004750:	deadbeef          	jal	t4,8ffdfd3a <offset+0x8ffdfcd2>
90004754:	deadbeef          	jal	t4,8ffdfd3e <offset+0x8ffdfcd6>
90004758:	deadbeef          	jal	t4,8ffdfd42 <offset+0x8ffdfcda>
9000475c:	deadbeef          	jal	t4,8ffdfd46 <offset+0x8ffdfcde>
90004760:	deadbeef          	jal	t4,8ffdfd4a <offset+0x8ffdfce2>
90004764:	deadbeef          	jal	t4,8ffdfd4e <offset+0x8ffdfce6>
90004768:	deadbeef          	jal	t4,8ffdfd52 <offset+0x8ffdfcea>
9000476c:	deadbeef          	jal	t4,8ffdfd56 <offset+0x8ffdfcee>
90004770:	deadbeef          	jal	t4,8ffdfd5a <offset+0x8ffdfcf2>
90004774:	deadbeef          	jal	t4,8ffdfd5e <offset+0x8ffdfcf6>
90004778:	deadbeef          	jal	t4,8ffdfd62 <offset+0x8ffdfcfa>
9000477c:	deadbeef          	jal	t4,8ffdfd66 <offset+0x8ffdfcfe>
90004780:	deadbeef          	jal	t4,8ffdfd6a <offset+0x8ffdfd02>
90004784:	deadbeef          	jal	t4,8ffdfd6e <offset+0x8ffdfd06>
90004788:	deadbeef          	jal	t4,8ffdfd72 <offset+0x8ffdfd0a>
9000478c:	deadbeef          	jal	t4,8ffdfd76 <offset+0x8ffdfd0e>
90004790:	deadbeef          	jal	t4,8ffdfd7a <offset+0x8ffdfd12>
90004794:	deadbeef          	jal	t4,8ffdfd7e <offset+0x8ffdfd16>
90004798:	deadbeef          	jal	t4,8ffdfd82 <offset+0x8ffdfd1a>
9000479c:	deadbeef          	jal	t4,8ffdfd86 <offset+0x8ffdfd1e>
900047a0:	deadbeef          	jal	t4,8ffdfd8a <offset+0x8ffdfd22>
900047a4:	deadbeef          	jal	t4,8ffdfd8e <offset+0x8ffdfd26>
900047a8:	deadbeef          	jal	t4,8ffdfd92 <offset+0x8ffdfd2a>
900047ac:	deadbeef          	jal	t4,8ffdfd96 <offset+0x8ffdfd2e>
900047b0:	deadbeef          	jal	t4,8ffdfd9a <offset+0x8ffdfd32>
900047b4:	deadbeef          	jal	t4,8ffdfd9e <offset+0x8ffdfd36>
900047b8:	deadbeef          	jal	t4,8ffdfda2 <offset+0x8ffdfd3a>
900047bc:	deadbeef          	jal	t4,8ffdfda6 <offset+0x8ffdfd3e>
900047c0:	deadbeef          	jal	t4,8ffdfdaa <offset+0x8ffdfd42>
900047c4:	deadbeef          	jal	t4,8ffdfdae <offset+0x8ffdfd46>
900047c8:	deadbeef          	jal	t4,8ffdfdb2 <offset+0x8ffdfd4a>
900047cc:	deadbeef          	jal	t4,8ffdfdb6 <offset+0x8ffdfd4e>
900047d0:	deadbeef          	jal	t4,8ffdfdba <offset+0x8ffdfd52>
900047d4:	deadbeef          	jal	t4,8ffdfdbe <offset+0x8ffdfd56>
900047d8:	deadbeef          	jal	t4,8ffdfdc2 <offset+0x8ffdfd5a>
900047dc:	deadbeef          	jal	t4,8ffdfdc6 <offset+0x8ffdfd5e>
900047e0:	deadbeef          	jal	t4,8ffdfdca <offset+0x8ffdfd62>
900047e4:	deadbeef          	jal	t4,8ffdfdce <offset+0x8ffdfd66>
900047e8:	deadbeef          	jal	t4,8ffdfdd2 <offset+0x8ffdfd6a>
900047ec:	deadbeef          	jal	t4,8ffdfdd6 <offset+0x8ffdfd6e>
900047f0:	deadbeef          	jal	t4,8ffdfdda <offset+0x8ffdfd72>
900047f4:	deadbeef          	jal	t4,8ffdfdde <offset+0x8ffdfd76>
900047f8:	deadbeef          	jal	t4,8ffdfde2 <offset+0x8ffdfd7a>
900047fc:	deadbeef          	jal	t4,8ffdfde6 <offset+0x8ffdfd7e>
90004800:	deadbeef          	jal	t4,8ffdfdea <offset+0x8ffdfd82>
90004804:	deadbeef          	jal	t4,8ffdfdee <offset+0x8ffdfd86>
90004808:	deadbeef          	jal	t4,8ffdfdf2 <offset+0x8ffdfd8a>
9000480c:	deadbeef          	jal	t4,8ffdfdf6 <offset+0x8ffdfd8e>
90004810:	deadbeef          	jal	t4,8ffdfdfa <offset+0x8ffdfd92>
90004814:	deadbeef          	jal	t4,8ffdfdfe <offset+0x8ffdfd96>
90004818:	deadbeef          	jal	t4,8ffdfe02 <offset+0x8ffdfd9a>
9000481c:	deadbeef          	jal	t4,8ffdfe06 <offset+0x8ffdfd9e>
90004820:	deadbeef          	jal	t4,8ffdfe0a <offset+0x8ffdfda2>
90004824:	deadbeef          	jal	t4,8ffdfe0e <offset+0x8ffdfda6>
90004828:	deadbeef          	jal	t4,8ffdfe12 <offset+0x8ffdfdaa>
9000482c:	deadbeef          	jal	t4,8ffdfe16 <offset+0x8ffdfdae>
90004830:	deadbeef          	jal	t4,8ffdfe1a <offset+0x8ffdfdb2>
90004834:	deadbeef          	jal	t4,8ffdfe1e <offset+0x8ffdfdb6>
90004838:	deadbeef          	jal	t4,8ffdfe22 <offset+0x8ffdfdba>
9000483c:	deadbeef          	jal	t4,8ffdfe26 <offset+0x8ffdfdbe>
90004840:	deadbeef          	jal	t4,8ffdfe2a <offset+0x8ffdfdc2>
90004844:	deadbeef          	jal	t4,8ffdfe2e <offset+0x8ffdfdc6>
90004848:	deadbeef          	jal	t4,8ffdfe32 <offset+0x8ffdfdca>
9000484c:	deadbeef          	jal	t4,8ffdfe36 <offset+0x8ffdfdce>
90004850:	deadbeef          	jal	t4,8ffdfe3a <offset+0x8ffdfdd2>
90004854:	deadbeef          	jal	t4,8ffdfe3e <offset+0x8ffdfdd6>
90004858:	deadbeef          	jal	t4,8ffdfe42 <offset+0x8ffdfdda>
9000485c:	deadbeef          	jal	t4,8ffdfe46 <offset+0x8ffdfdde>
90004860:	deadbeef          	jal	t4,8ffdfe4a <offset+0x8ffdfde2>
90004864:	deadbeef          	jal	t4,8ffdfe4e <offset+0x8ffdfde6>

90004868 <signature_x4_1>:
90004868:	deadbeef          	jal	t4,8ffdfe52 <offset+0x8ffdfdea>
9000486c:	deadbeef          	jal	t4,8ffdfe56 <offset+0x8ffdfdee>
90004870:	deadbeef          	jal	t4,8ffdfe5a <offset+0x8ffdfdf2>
90004874:	deadbeef          	jal	t4,8ffdfe5e <offset+0x8ffdfdf6>
90004878:	deadbeef          	jal	t4,8ffdfe62 <offset+0x8ffdfdfa>
9000487c:	deadbeef          	jal	t4,8ffdfe66 <offset+0x8ffdfdfe>
90004880:	deadbeef          	jal	t4,8ffdfe6a <offset+0x8ffdfe02>
90004884:	deadbeef          	jal	t4,8ffdfe6e <offset+0x8ffdfe06>
90004888:	deadbeef          	jal	t4,8ffdfe72 <offset+0x8ffdfe0a>
9000488c:	deadbeef          	jal	t4,8ffdfe76 <offset+0x8ffdfe0e>
90004890:	deadbeef          	jal	t4,8ffdfe7a <offset+0x8ffdfe12>
90004894:	deadbeef          	jal	t4,8ffdfe7e <offset+0x8ffdfe16>
90004898:	deadbeef          	jal	t4,8ffdfe82 <offset+0x8ffdfe1a>
9000489c:	deadbeef          	jal	t4,8ffdfe86 <offset+0x8ffdfe1e>
900048a0:	deadbeef          	jal	t4,8ffdfe8a <offset+0x8ffdfe22>
900048a4:	deadbeef          	jal	t4,8ffdfe8e <offset+0x8ffdfe26>
900048a8:	deadbeef          	jal	t4,8ffdfe92 <offset+0x8ffdfe2a>
900048ac:	deadbeef          	jal	t4,8ffdfe96 <offset+0x8ffdfe2e>
900048b0:	deadbeef          	jal	t4,8ffdfe9a <offset+0x8ffdfe32>
900048b4:	deadbeef          	jal	t4,8ffdfe9e <offset+0x8ffdfe36>
900048b8:	deadbeef          	jal	t4,8ffdfea2 <offset+0x8ffdfe3a>
900048bc:	deadbeef          	jal	t4,8ffdfea6 <offset+0x8ffdfe3e>
900048c0:	deadbeef          	jal	t4,8ffdfeaa <offset+0x8ffdfe42>
900048c4:	deadbeef          	jal	t4,8ffdfeae <offset+0x8ffdfe46>
900048c8:	deadbeef          	jal	t4,8ffdfeb2 <offset+0x8ffdfe4a>
900048cc:	deadbeef          	jal	t4,8ffdfeb6 <offset+0x8ffdfe4e>

900048d0 <end_signature>:
	...

90004900 <begin_regstate>:
90004900:	0080                	addi	s0,sp,64
	...

90004a00 <end_regstate>:
90004a00:	0004                	0x4
	...

Disassembly of section .riscv.attributes:

00000000 <.riscv.attributes>:
   0:	1941                	addi	s2,s2,-16
   2:	0000                	unimp
   4:	7200                	flw	fs0,32(a2)
   6:	7369                	lui	t1,0xffffa
   8:	01007663          	bgeu	zero,a6,14 <offset-0x54>
   c:	0000000f          	fence	unknown,unknown
  10:	7205                	lui	tp,0xfffe1
  12:	3376                	fld	ft6,376(sp)
  14:	6932                	flw	fs2,12(sp)
  16:	7032                	flw	ft0,44(sp)
  18:	0030                	addi	a2,sp,8

Disassembly of section .debug_line:

00000000 <.debug_line>:
   0:	0d71                	addi	s10,s10,28
   2:	0000                	unimp
   4:	00230003          	lb	zero,2(t1) # ffffa002 <_end+0x6fff55fe>
   8:	0000                	unimp
   a:	0101                	addi	sp,sp,0
   c:	000d0efb          	0xd0efb
  10:	0101                	addi	sp,sp,0
  12:	0101                	addi	sp,sp,0
  14:	0000                	unimp
  16:	0100                	addi	s0,sp,128
  18:	0000                	unimp
  1a:	7301                	lui	t1,0xfffe0
  1c:	6372                	flw	ft6,28(sp)
  1e:	0000                	unimp
  20:	2d69726f          	jal	tp,972f6 <offset+0x9728e>
  24:	3130                	fld	fa2,96(a0)
  26:	532e                	lw	t1,232(sp)
  28:	0100                	addi	s0,sp,128
  2a:	0000                	unimp
  2c:	0000                	unimp
  2e:	0205                	addi	tp,tp,1
  30:	0000                	unimp
  32:	9000                	0x9000
  34:	03011903          	lh	s2,48(sp)
  38:	0906                	slli	s2,s2,0x1
  3a:	00f8                	addi	a4,sp,76
  3c:	0301                	addi	t1,t1,0
  3e:	0905                	addi	s2,s2,1
  40:	0008                	0x8
  42:	0301                	addi	t1,t1,0
  44:	0905                	addi	s2,s2,1
  46:	000c                	0xc
  48:	0301                	addi	t1,t1,0
  4a:	0905                	addi	s2,s2,1
  4c:	000c                	0xc
  4e:	0301                	addi	t1,t1,0
  50:	0905                	addi	s2,s2,1
  52:	0010                	0x10
  54:	0301                	addi	t1,t1,0
  56:	0905                	addi	s2,s2,1
  58:	0010                	0x10
  5a:	0301                	addi	t1,t1,0
  5c:	0905                	addi	s2,s2,1
  5e:	000c                	0xc
  60:	0301                	addi	t1,t1,0
  62:	0905                	addi	s2,s2,1
  64:	0010                	0x10
  66:	0301                	addi	t1,t1,0
  68:	0905                	addi	s2,s2,1
  6a:	000c                	0xc
  6c:	0301                	addi	t1,t1,0
  6e:	0905                	addi	s2,s2,1
  70:	000c                	0xc
  72:	0301                	addi	t1,t1,0
  74:	0905                	addi	s2,s2,1
  76:	000c                	0xc
  78:	0301                	addi	t1,t1,0
  7a:	0905                	addi	s2,s2,1
  7c:	000c                	0xc
  7e:	0301                	addi	t1,t1,0
  80:	0905                	addi	s2,s2,1
  82:	000c                	0xc
  84:	0301                	addi	t1,t1,0
  86:	0905                	addi	s2,s2,1
  88:	000c                	0xc
  8a:	0301                	addi	t1,t1,0
  8c:	0905                	addi	s2,s2,1
  8e:	000c                	0xc
  90:	0301                	addi	t1,t1,0
  92:	0905                	addi	s2,s2,1
  94:	0010                	0x10
  96:	0301                	addi	t1,t1,0
  98:	0905                	addi	s2,s2,1
  9a:	0010                	0x10
  9c:	0301                	addi	t1,t1,0
  9e:	0905                	addi	s2,s2,1
  a0:	000c                	0xc
  a2:	0301                	addi	t1,t1,0
  a4:	0905                	addi	s2,s2,1
  a6:	0010                	0x10
  a8:	0301                	addi	t1,t1,0
  aa:	0905                	addi	s2,s2,1
  ac:	0010                	0x10
  ae:	0301                	addi	t1,t1,0
  b0:	0905                	addi	s2,s2,1
  b2:	000c                	0xc
  b4:	0301                	addi	t1,t1,0
  b6:	0905                	addi	s2,s2,1
  b8:	0010                	0x10
  ba:	0301                	addi	t1,t1,0
  bc:	0905                	addi	s2,s2,1
  be:	000c                	0xc
  c0:	0301                	addi	t1,t1,0
  c2:	0901                	addi	s2,s2,0
  c4:	0010                	0x10
  c6:	0301                	addi	t1,t1,0
  c8:	0905                	addi	s2,s2,1
  ca:	0008                	0x8
  cc:	0301                	addi	t1,t1,0
  ce:	0905                	addi	s2,s2,1
  d0:	000c                	0xc
  d2:	0301                	addi	t1,t1,0
  d4:	0905                	addi	s2,s2,1
  d6:	000c                	0xc
  d8:	0301                	addi	t1,t1,0
  da:	0905                	addi	s2,s2,1
  dc:	0010                	0x10
  de:	0301                	addi	t1,t1,0
  e0:	0905                	addi	s2,s2,1
  e2:	0010                	0x10
  e4:	0301                	addi	t1,t1,0
  e6:	0905                	addi	s2,s2,1
  e8:	0010                	0x10
  ea:	0301                	addi	t1,t1,0
  ec:	0905                	addi	s2,s2,1
  ee:	000c                	0xc
  f0:	0301                	addi	t1,t1,0
  f2:	0905                	addi	s2,s2,1
  f4:	000c                	0xc
  f6:	0301                	addi	t1,t1,0
  f8:	0905                	addi	s2,s2,1
  fa:	0010                	0x10
  fc:	0301                	addi	t1,t1,0
  fe:	0905                	addi	s2,s2,1
 100:	000c                	0xc
 102:	0301                	addi	t1,t1,0
 104:	0905                	addi	s2,s2,1
 106:	000c                	0xc
 108:	0301                	addi	t1,t1,0
 10a:	0905                	addi	s2,s2,1
 10c:	000c                	0xc
 10e:	0301                	addi	t1,t1,0
 110:	0905                	addi	s2,s2,1
 112:	000c                	0xc
 114:	0301                	addi	t1,t1,0
 116:	0905                	addi	s2,s2,1
 118:	000c                	0xc
 11a:	0301                	addi	t1,t1,0
 11c:	0905                	addi	s2,s2,1
 11e:	000c                	0xc
 120:	0301                	addi	t1,t1,0
 122:	0905                	addi	s2,s2,1
 124:	000c                	0xc
 126:	0301                	addi	t1,t1,0
 128:	0905                	addi	s2,s2,1
 12a:	000c                	0xc
 12c:	0301                	addi	t1,t1,0
 12e:	0905                	addi	s2,s2,1
 130:	000c                	0xc
 132:	0301                	addi	t1,t1,0
 134:	0905                	addi	s2,s2,1
 136:	000c                	0xc
 138:	0301                	addi	t1,t1,0
 13a:	0905                	addi	s2,s2,1
 13c:	000c                	0xc
 13e:	0301                	addi	t1,t1,0
 140:	0905                	addi	s2,s2,1
 142:	000c                	0xc
 144:	0301                	addi	t1,t1,0
 146:	0905                	addi	s2,s2,1
 148:	000c                	0xc
 14a:	0301                	addi	t1,t1,0
 14c:	0905                	addi	s2,s2,1
 14e:	000c                	0xc
 150:	0301                	addi	t1,t1,0
 152:	0905                	addi	s2,s2,1
 154:	000c                	0xc
 156:	0301                	addi	t1,t1,0
 158:	0905                	addi	s2,s2,1
 15a:	000c                	0xc
 15c:	0301                	addi	t1,t1,0
 15e:	0905                	addi	s2,s2,1
 160:	000c                	0xc
 162:	0301                	addi	t1,t1,0
 164:	0905                	addi	s2,s2,1
 166:	000c                	0xc
 168:	0301                	addi	t1,t1,0
 16a:	0905                	addi	s2,s2,1
 16c:	000c                	0xc
 16e:	0301                	addi	t1,t1,0
 170:	0905                	addi	s2,s2,1
 172:	000c                	0xc
 174:	0301                	addi	t1,t1,0
 176:	0905                	addi	s2,s2,1
 178:	000c                	0xc
 17a:	0301                	addi	t1,t1,0
 17c:	0905                	addi	s2,s2,1
 17e:	000c                	0xc
 180:	0301                	addi	t1,t1,0
 182:	0905                	addi	s2,s2,1
 184:	000c                	0xc
 186:	0301                	addi	t1,t1,0
 188:	0905                	addi	s2,s2,1
 18a:	000c                	0xc
 18c:	0301                	addi	t1,t1,0
 18e:	0905                	addi	s2,s2,1
 190:	000c                	0xc
 192:	0301                	addi	t1,t1,0
 194:	0905                	addi	s2,s2,1
 196:	000c                	0xc
 198:	0301                	addi	t1,t1,0
 19a:	0905                	addi	s2,s2,1
 19c:	000c                	0xc
 19e:	0301                	addi	t1,t1,0
 1a0:	0905                	addi	s2,s2,1
 1a2:	000c                	0xc
 1a4:	0301                	addi	t1,t1,0
 1a6:	0905                	addi	s2,s2,1
 1a8:	000c                	0xc
 1aa:	0301                	addi	t1,t1,0
 1ac:	0905                	addi	s2,s2,1
 1ae:	000c                	0xc
 1b0:	0301                	addi	t1,t1,0
 1b2:	0905                	addi	s2,s2,1
 1b4:	0010                	0x10
 1b6:	0301                	addi	t1,t1,0
 1b8:	0905                	addi	s2,s2,1
 1ba:	0010                	0x10
 1bc:	0301                	addi	t1,t1,0
 1be:	0905                	addi	s2,s2,1
 1c0:	0010                	0x10
 1c2:	0301                	addi	t1,t1,0
 1c4:	0905                	addi	s2,s2,1
 1c6:	0010                	0x10
 1c8:	0301                	addi	t1,t1,0
 1ca:	0905                	addi	s2,s2,1
 1cc:	0010                	0x10
 1ce:	0301                	addi	t1,t1,0
 1d0:	0905                	addi	s2,s2,1
 1d2:	0010                	0x10
 1d4:	0301                	addi	t1,t1,0
 1d6:	0905                	addi	s2,s2,1
 1d8:	0010                	0x10
 1da:	0301                	addi	t1,t1,0
 1dc:	0905                	addi	s2,s2,1
 1de:	0010                	0x10
 1e0:	0301                	addi	t1,t1,0
 1e2:	0905                	addi	s2,s2,1
 1e4:	0010                	0x10
 1e6:	0301                	addi	t1,t1,0
 1e8:	0905                	addi	s2,s2,1
 1ea:	0010                	0x10
 1ec:	0301                	addi	t1,t1,0
 1ee:	0905                	addi	s2,s2,1
 1f0:	0010                	0x10
 1f2:	0301                	addi	t1,t1,0
 1f4:	0905                	addi	s2,s2,1
 1f6:	0010                	0x10
 1f8:	0301                	addi	t1,t1,0
 1fa:	0905                	addi	s2,s2,1
 1fc:	0010                	0x10
 1fe:	0301                	addi	t1,t1,0
 200:	0905                	addi	s2,s2,1
 202:	0010                	0x10
 204:	0301                	addi	t1,t1,0
 206:	0905                	addi	s2,s2,1
 208:	0010                	0x10
 20a:	0301                	addi	t1,t1,0
 20c:	0905                	addi	s2,s2,1
 20e:	0010                	0x10
 210:	0301                	addi	t1,t1,0
 212:	0905                	addi	s2,s2,1
 214:	0010                	0x10
 216:	0301                	addi	t1,t1,0
 218:	0905                	addi	s2,s2,1
 21a:	000c                	0xc
 21c:	0301                	addi	t1,t1,0
 21e:	0905                	addi	s2,s2,1
 220:	000c                	0xc
 222:	0301                	addi	t1,t1,0
 224:	0905                	addi	s2,s2,1
 226:	000c                	0xc
 228:	0301                	addi	t1,t1,0
 22a:	0905                	addi	s2,s2,1
 22c:	000c                	0xc
 22e:	0301                	addi	t1,t1,0
 230:	0905                	addi	s2,s2,1
 232:	000c                	0xc
 234:	0301                	addi	t1,t1,0
 236:	0905                	addi	s2,s2,1
 238:	000c                	0xc
 23a:	0301                	addi	t1,t1,0
 23c:	0905                	addi	s2,s2,1
 23e:	000c                	0xc
 240:	0301                	addi	t1,t1,0
 242:	0905                	addi	s2,s2,1
 244:	000c                	0xc
 246:	0301                	addi	t1,t1,0
 248:	0905                	addi	s2,s2,1
 24a:	000c                	0xc
 24c:	0301                	addi	t1,t1,0
 24e:	0905                	addi	s2,s2,1
 250:	000c                	0xc
 252:	0301                	addi	t1,t1,0
 254:	0905                	addi	s2,s2,1
 256:	000c                	0xc
 258:	0301                	addi	t1,t1,0
 25a:	0905                	addi	s2,s2,1
 25c:	000c                	0xc
 25e:	0301                	addi	t1,t1,0
 260:	0905                	addi	s2,s2,1
 262:	000c                	0xc
 264:	0301                	addi	t1,t1,0
 266:	0905                	addi	s2,s2,1
 268:	000c                	0xc
 26a:	0301                	addi	t1,t1,0
 26c:	0905                	addi	s2,s2,1
 26e:	000c                	0xc
 270:	0301                	addi	t1,t1,0
 272:	0905                	addi	s2,s2,1
 274:	000c                	0xc
 276:	0301                	addi	t1,t1,0
 278:	0905                	addi	s2,s2,1
 27a:	000c                	0xc
 27c:	0301                	addi	t1,t1,0
 27e:	0905                	addi	s2,s2,1
 280:	000c                	0xc
 282:	0301                	addi	t1,t1,0
 284:	0905                	addi	s2,s2,1
 286:	000c                	0xc
 288:	0301                	addi	t1,t1,0
 28a:	0905                	addi	s2,s2,1
 28c:	000c                	0xc
 28e:	0301                	addi	t1,t1,0
 290:	0905                	addi	s2,s2,1
 292:	000c                	0xc
 294:	0301                	addi	t1,t1,0
 296:	0905                	addi	s2,s2,1
 298:	000c                	0xc
 29a:	0301                	addi	t1,t1,0
 29c:	0905                	addi	s2,s2,1
 29e:	0010                	0x10
 2a0:	0301                	addi	t1,t1,0
 2a2:	0905                	addi	s2,s2,1
 2a4:	0010                	0x10
 2a6:	0301                	addi	t1,t1,0
 2a8:	0905                	addi	s2,s2,1
 2aa:	0010                	0x10
 2ac:	0301                	addi	t1,t1,0
 2ae:	0905                	addi	s2,s2,1
 2b0:	0010                	0x10
 2b2:	0301                	addi	t1,t1,0
 2b4:	0905                	addi	s2,s2,1
 2b6:	0010                	0x10
 2b8:	0301                	addi	t1,t1,0
 2ba:	0905                	addi	s2,s2,1
 2bc:	0010                	0x10
 2be:	0301                	addi	t1,t1,0
 2c0:	0905                	addi	s2,s2,1
 2c2:	0010                	0x10
 2c4:	0301                	addi	t1,t1,0
 2c6:	0905                	addi	s2,s2,1
 2c8:	0010                	0x10
 2ca:	0301                	addi	t1,t1,0
 2cc:	0905                	addi	s2,s2,1
 2ce:	0010                	0x10
 2d0:	0301                	addi	t1,t1,0
 2d2:	0905                	addi	s2,s2,1
 2d4:	0010                	0x10
 2d6:	0301                	addi	t1,t1,0
 2d8:	0905                	addi	s2,s2,1
 2da:	0010                	0x10
 2dc:	0301                	addi	t1,t1,0
 2de:	0905                	addi	s2,s2,1
 2e0:	0010                	0x10
 2e2:	0301                	addi	t1,t1,0
 2e4:	0905                	addi	s2,s2,1
 2e6:	0010                	0x10
 2e8:	0301                	addi	t1,t1,0
 2ea:	0905                	addi	s2,s2,1
 2ec:	0010                	0x10
 2ee:	0301                	addi	t1,t1,0
 2f0:	0905                	addi	s2,s2,1
 2f2:	0010                	0x10
 2f4:	0301                	addi	t1,t1,0
 2f6:	0905                	addi	s2,s2,1
 2f8:	0010                	0x10
 2fa:	0301                	addi	t1,t1,0
 2fc:	0905                	addi	s2,s2,1
 2fe:	0010                	0x10
 300:	0301                	addi	t1,t1,0
 302:	0905                	addi	s2,s2,1
 304:	0010                	0x10
 306:	0301                	addi	t1,t1,0
 308:	0905                	addi	s2,s2,1
 30a:	0010                	0x10
 30c:	0301                	addi	t1,t1,0
 30e:	0905                	addi	s2,s2,1
 310:	0010                	0x10
 312:	0301                	addi	t1,t1,0
 314:	0905                	addi	s2,s2,1
 316:	0010                	0x10
 318:	0301                	addi	t1,t1,0
 31a:	0905                	addi	s2,s2,1
 31c:	0010                	0x10
 31e:	0301                	addi	t1,t1,0
 320:	0905                	addi	s2,s2,1
 322:	0010                	0x10
 324:	0301                	addi	t1,t1,0
 326:	0905                	addi	s2,s2,1
 328:	0010                	0x10
 32a:	0301                	addi	t1,t1,0
 32c:	0905                	addi	s2,s2,1
 32e:	0010                	0x10
 330:	0301                	addi	t1,t1,0
 332:	0905                	addi	s2,s2,1
 334:	0010                	0x10
 336:	0301                	addi	t1,t1,0
 338:	0905                	addi	s2,s2,1
 33a:	0010                	0x10
 33c:	0301                	addi	t1,t1,0
 33e:	0905                	addi	s2,s2,1
 340:	0010                	0x10
 342:	0301                	addi	t1,t1,0
 344:	0905                	addi	s2,s2,1
 346:	0010                	0x10
 348:	0301                	addi	t1,t1,0
 34a:	0905                	addi	s2,s2,1
 34c:	0010                	0x10
 34e:	0301                	addi	t1,t1,0
 350:	0905                	addi	s2,s2,1
 352:	0010                	0x10
 354:	0301                	addi	t1,t1,0
 356:	0905                	addi	s2,s2,1
 358:	0010                	0x10
 35a:	0301                	addi	t1,t1,0
 35c:	0905                	addi	s2,s2,1
 35e:	0010                	0x10
 360:	0301                	addi	t1,t1,0
 362:	0905                	addi	s2,s2,1
 364:	0010                	0x10
 366:	0301                	addi	t1,t1,0
 368:	0905                	addi	s2,s2,1
 36a:	0010                	0x10
 36c:	0301                	addi	t1,t1,0
 36e:	0905                	addi	s2,s2,1
 370:	0010                	0x10
 372:	0301                	addi	t1,t1,0
 374:	0905                	addi	s2,s2,1
 376:	0010                	0x10
 378:	0301                	addi	t1,t1,0
 37a:	0905                	addi	s2,s2,1
 37c:	0010                	0x10
 37e:	0301                	addi	t1,t1,0
 380:	0905                	addi	s2,s2,1
 382:	0010                	0x10
 384:	0301                	addi	t1,t1,0
 386:	0905                	addi	s2,s2,1
 388:	0010                	0x10
 38a:	0301                	addi	t1,t1,0
 38c:	0905                	addi	s2,s2,1
 38e:	0010                	0x10
 390:	0301                	addi	t1,t1,0
 392:	0905                	addi	s2,s2,1
 394:	0010                	0x10
 396:	0301                	addi	t1,t1,0
 398:	0905                	addi	s2,s2,1
 39a:	0010                	0x10
 39c:	0301                	addi	t1,t1,0
 39e:	0905                	addi	s2,s2,1
 3a0:	0010                	0x10
 3a2:	0301                	addi	t1,t1,0
 3a4:	0905                	addi	s2,s2,1
 3a6:	000c                	0xc
 3a8:	0301                	addi	t1,t1,0
 3aa:	0905                	addi	s2,s2,1
 3ac:	000c                	0xc
 3ae:	0301                	addi	t1,t1,0
 3b0:	0905                	addi	s2,s2,1
 3b2:	000c                	0xc
 3b4:	0301                	addi	t1,t1,0
 3b6:	0905                	addi	s2,s2,1
 3b8:	000c                	0xc
 3ba:	0301                	addi	t1,t1,0
 3bc:	0905                	addi	s2,s2,1
 3be:	000c                	0xc
 3c0:	0301                	addi	t1,t1,0
 3c2:	0905                	addi	s2,s2,1
 3c4:	000c                	0xc
 3c6:	0301                	addi	t1,t1,0
 3c8:	0905                	addi	s2,s2,1
 3ca:	000c                	0xc
 3cc:	0301                	addi	t1,t1,0
 3ce:	0905                	addi	s2,s2,1
 3d0:	000c                	0xc
 3d2:	0301                	addi	t1,t1,0
 3d4:	0905                	addi	s2,s2,1
 3d6:	000c                	0xc
 3d8:	0301                	addi	t1,t1,0
 3da:	0905                	addi	s2,s2,1
 3dc:	000c                	0xc
 3de:	0301                	addi	t1,t1,0
 3e0:	0905                	addi	s2,s2,1
 3e2:	000c                	0xc
 3e4:	0301                	addi	t1,t1,0
 3e6:	0905                	addi	s2,s2,1
 3e8:	000c                	0xc
 3ea:	0301                	addi	t1,t1,0
 3ec:	0905                	addi	s2,s2,1
 3ee:	000c                	0xc
 3f0:	0301                	addi	t1,t1,0
 3f2:	0905                	addi	s2,s2,1
 3f4:	000c                	0xc
 3f6:	0301                	addi	t1,t1,0
 3f8:	0905                	addi	s2,s2,1
 3fa:	000c                	0xc
 3fc:	0301                	addi	t1,t1,0
 3fe:	0905                	addi	s2,s2,1
 400:	000c                	0xc
 402:	0301                	addi	t1,t1,0
 404:	0905                	addi	s2,s2,1
 406:	000c                	0xc
 408:	0301                	addi	t1,t1,0
 40a:	0905                	addi	s2,s2,1
 40c:	000c                	0xc
 40e:	0301                	addi	t1,t1,0
 410:	0905                	addi	s2,s2,1
 412:	000c                	0xc
 414:	0301                	addi	t1,t1,0
 416:	0905                	addi	s2,s2,1
 418:	000c                	0xc
 41a:	0301                	addi	t1,t1,0
 41c:	0905                	addi	s2,s2,1
 41e:	000c                	0xc
 420:	0301                	addi	t1,t1,0
 422:	0905                	addi	s2,s2,1
 424:	000c                	0xc
 426:	0301                	addi	t1,t1,0
 428:	0905                	addi	s2,s2,1
 42a:	0010                	0x10
 42c:	0301                	addi	t1,t1,0
 42e:	0905                	addi	s2,s2,1
 430:	0010                	0x10
 432:	0301                	addi	t1,t1,0
 434:	0905                	addi	s2,s2,1
 436:	0010                	0x10
 438:	0301                	addi	t1,t1,0
 43a:	0905                	addi	s2,s2,1
 43c:	0010                	0x10
 43e:	0301                	addi	t1,t1,0
 440:	0905                	addi	s2,s2,1
 442:	0010                	0x10
 444:	0301                	addi	t1,t1,0
 446:	0905                	addi	s2,s2,1
 448:	0010                	0x10
 44a:	0301                	addi	t1,t1,0
 44c:	0905                	addi	s2,s2,1
 44e:	0010                	0x10
 450:	0301                	addi	t1,t1,0
 452:	0905                	addi	s2,s2,1
 454:	0010                	0x10
 456:	0301                	addi	t1,t1,0
 458:	0905                	addi	s2,s2,1
 45a:	0010                	0x10
 45c:	0301                	addi	t1,t1,0
 45e:	0905                	addi	s2,s2,1
 460:	0010                	0x10
 462:	0301                	addi	t1,t1,0
 464:	0905                	addi	s2,s2,1
 466:	0010                	0x10
 468:	0301                	addi	t1,t1,0
 46a:	0905                	addi	s2,s2,1
 46c:	0010                	0x10
 46e:	0301                	addi	t1,t1,0
 470:	0905                	addi	s2,s2,1
 472:	0010                	0x10
 474:	0301                	addi	t1,t1,0
 476:	0905                	addi	s2,s2,1
 478:	0010                	0x10
 47a:	0301                	addi	t1,t1,0
 47c:	0905                	addi	s2,s2,1
 47e:	0010                	0x10
 480:	0301                	addi	t1,t1,0
 482:	0905                	addi	s2,s2,1
 484:	0010                	0x10
 486:	0301                	addi	t1,t1,0
 488:	0905                	addi	s2,s2,1
 48a:	0010                	0x10
 48c:	0301                	addi	t1,t1,0
 48e:	0905                	addi	s2,s2,1
 490:	0010                	0x10
 492:	0301                	addi	t1,t1,0
 494:	0905                	addi	s2,s2,1
 496:	0010                	0x10
 498:	0301                	addi	t1,t1,0
 49a:	0905                	addi	s2,s2,1
 49c:	0010                	0x10
 49e:	0301                	addi	t1,t1,0
 4a0:	0905                	addi	s2,s2,1
 4a2:	0010                	0x10
 4a4:	0301                	addi	t1,t1,0
 4a6:	0905                	addi	s2,s2,1
 4a8:	0010                	0x10
 4aa:	0301                	addi	t1,t1,0
 4ac:	0905                	addi	s2,s2,1
 4ae:	0010                	0x10
 4b0:	0301                	addi	t1,t1,0
 4b2:	0905                	addi	s2,s2,1
 4b4:	0010                	0x10
 4b6:	0301                	addi	t1,t1,0
 4b8:	0905                	addi	s2,s2,1
 4ba:	0010                	0x10
 4bc:	0301                	addi	t1,t1,0
 4be:	0905                	addi	s2,s2,1
 4c0:	0010                	0x10
 4c2:	0301                	addi	t1,t1,0
 4c4:	0905                	addi	s2,s2,1
 4c6:	0010                	0x10
 4c8:	0301                	addi	t1,t1,0
 4ca:	0905                	addi	s2,s2,1
 4cc:	0010                	0x10
 4ce:	0301                	addi	t1,t1,0
 4d0:	0905                	addi	s2,s2,1
 4d2:	0010                	0x10
 4d4:	0301                	addi	t1,t1,0
 4d6:	0905                	addi	s2,s2,1
 4d8:	0010                	0x10
 4da:	0301                	addi	t1,t1,0
 4dc:	0905                	addi	s2,s2,1
 4de:	0010                	0x10
 4e0:	0301                	addi	t1,t1,0
 4e2:	0905                	addi	s2,s2,1
 4e4:	0010                	0x10
 4e6:	0301                	addi	t1,t1,0
 4e8:	0905                	addi	s2,s2,1
 4ea:	0010                	0x10
 4ec:	0301                	addi	t1,t1,0
 4ee:	0905                	addi	s2,s2,1
 4f0:	0010                	0x10
 4f2:	0301                	addi	t1,t1,0
 4f4:	0905                	addi	s2,s2,1
 4f6:	0010                	0x10
 4f8:	0301                	addi	t1,t1,0
 4fa:	0905                	addi	s2,s2,1
 4fc:	0010                	0x10
 4fe:	0301                	addi	t1,t1,0
 500:	0905                	addi	s2,s2,1
 502:	0010                	0x10
 504:	0301                	addi	t1,t1,0
 506:	0905                	addi	s2,s2,1
 508:	0010                	0x10
 50a:	0301                	addi	t1,t1,0
 50c:	0905                	addi	s2,s2,1
 50e:	0010                	0x10
 510:	0301                	addi	t1,t1,0
 512:	0905                	addi	s2,s2,1
 514:	0010                	0x10
 516:	0301                	addi	t1,t1,0
 518:	0905                	addi	s2,s2,1
 51a:	0010                	0x10
 51c:	0301                	addi	t1,t1,0
 51e:	0905                	addi	s2,s2,1
 520:	0010                	0x10
 522:	0301                	addi	t1,t1,0
 524:	0905                	addi	s2,s2,1
 526:	0010                	0x10
 528:	0301                	addi	t1,t1,0
 52a:	0905                	addi	s2,s2,1
 52c:	0010                	0x10
 52e:	0301                	addi	t1,t1,0
 530:	0905                	addi	s2,s2,1
 532:	0010                	0x10
 534:	0301                	addi	t1,t1,0
 536:	0905                	addi	s2,s2,1
 538:	0010                	0x10
 53a:	0301                	addi	t1,t1,0
 53c:	0905                	addi	s2,s2,1
 53e:	0010                	0x10
 540:	0301                	addi	t1,t1,0
 542:	0905                	addi	s2,s2,1
 544:	0010                	0x10
 546:	0301                	addi	t1,t1,0
 548:	0905                	addi	s2,s2,1
 54a:	0010                	0x10
 54c:	0301                	addi	t1,t1,0
 54e:	0905                	addi	s2,s2,1
 550:	0010                	0x10
 552:	0301                	addi	t1,t1,0
 554:	0905                	addi	s2,s2,1
 556:	0010                	0x10
 558:	0301                	addi	t1,t1,0
 55a:	0905                	addi	s2,s2,1
 55c:	0010                	0x10
 55e:	0301                	addi	t1,t1,0
 560:	0905                	addi	s2,s2,1
 562:	0010                	0x10
 564:	0301                	addi	t1,t1,0
 566:	0905                	addi	s2,s2,1
 568:	0010                	0x10
 56a:	0301                	addi	t1,t1,0
 56c:	0905                	addi	s2,s2,1
 56e:	0010                	0x10
 570:	0301                	addi	t1,t1,0
 572:	0905                	addi	s2,s2,1
 574:	0010                	0x10
 576:	0301                	addi	t1,t1,0
 578:	0905                	addi	s2,s2,1
 57a:	0010                	0x10
 57c:	0301                	addi	t1,t1,0
 57e:	0905                	addi	s2,s2,1
 580:	0010                	0x10
 582:	0301                	addi	t1,t1,0
 584:	0905                	addi	s2,s2,1
 586:	0010                	0x10
 588:	0301                	addi	t1,t1,0
 58a:	0905                	addi	s2,s2,1
 58c:	0010                	0x10
 58e:	0301                	addi	t1,t1,0
 590:	0905                	addi	s2,s2,1
 592:	0010                	0x10
 594:	0301                	addi	t1,t1,0
 596:	0905                	addi	s2,s2,1
 598:	0010                	0x10
 59a:	0301                	addi	t1,t1,0
 59c:	0905                	addi	s2,s2,1
 59e:	0010                	0x10
 5a0:	0301                	addi	t1,t1,0
 5a2:	0905                	addi	s2,s2,1
 5a4:	0010                	0x10
 5a6:	0301                	addi	t1,t1,0
 5a8:	0905                	addi	s2,s2,1
 5aa:	0010                	0x10
 5ac:	0301                	addi	t1,t1,0
 5ae:	0905                	addi	s2,s2,1
 5b0:	0010                	0x10
 5b2:	0301                	addi	t1,t1,0
 5b4:	0905                	addi	s2,s2,1
 5b6:	0010                	0x10
 5b8:	0301                	addi	t1,t1,0
 5ba:	0905                	addi	s2,s2,1
 5bc:	0010                	0x10
 5be:	0301                	addi	t1,t1,0
 5c0:	0905                	addi	s2,s2,1
 5c2:	0010                	0x10
 5c4:	0301                	addi	t1,t1,0
 5c6:	0905                	addi	s2,s2,1
 5c8:	0010                	0x10
 5ca:	0301                	addi	t1,t1,0
 5cc:	0905                	addi	s2,s2,1
 5ce:	0010                	0x10
 5d0:	0301                	addi	t1,t1,0
 5d2:	0905                	addi	s2,s2,1
 5d4:	0010                	0x10
 5d6:	0301                	addi	t1,t1,0
 5d8:	0905                	addi	s2,s2,1
 5da:	0010                	0x10
 5dc:	0301                	addi	t1,t1,0
 5de:	0905                	addi	s2,s2,1
 5e0:	0010                	0x10
 5e2:	0301                	addi	t1,t1,0
 5e4:	0905                	addi	s2,s2,1
 5e6:	0010                	0x10
 5e8:	0301                	addi	t1,t1,0
 5ea:	0905                	addi	s2,s2,1
 5ec:	0010                	0x10
 5ee:	0301                	addi	t1,t1,0
 5f0:	0905                	addi	s2,s2,1
 5f2:	0010                	0x10
 5f4:	0301                	addi	t1,t1,0
 5f6:	0905                	addi	s2,s2,1
 5f8:	0010                	0x10
 5fa:	0301                	addi	t1,t1,0
 5fc:	0905                	addi	s2,s2,1
 5fe:	0010                	0x10
 600:	0301                	addi	t1,t1,0
 602:	0905                	addi	s2,s2,1
 604:	0010                	0x10
 606:	0301                	addi	t1,t1,0
 608:	0905                	addi	s2,s2,1
 60a:	0010                	0x10
 60c:	0301                	addi	t1,t1,0
 60e:	0905                	addi	s2,s2,1
 610:	0010                	0x10
 612:	0301                	addi	t1,t1,0
 614:	0905                	addi	s2,s2,1
 616:	0010                	0x10
 618:	0301                	addi	t1,t1,0
 61a:	0905                	addi	s2,s2,1
 61c:	0010                	0x10
 61e:	0301                	addi	t1,t1,0
 620:	0905                	addi	s2,s2,1
 622:	0010                	0x10
 624:	0301                	addi	t1,t1,0
 626:	0905                	addi	s2,s2,1
 628:	0010                	0x10
 62a:	0301                	addi	t1,t1,0
 62c:	0905                	addi	s2,s2,1
 62e:	0010                	0x10
 630:	0301                	addi	t1,t1,0
 632:	0905                	addi	s2,s2,1
 634:	000c                	0xc
 636:	0301                	addi	t1,t1,0
 638:	0905                	addi	s2,s2,1
 63a:	000c                	0xc
 63c:	0301                	addi	t1,t1,0
 63e:	0905                	addi	s2,s2,1
 640:	000c                	0xc
 642:	0301                	addi	t1,t1,0
 644:	0905                	addi	s2,s2,1
 646:	000c                	0xc
 648:	0301                	addi	t1,t1,0
 64a:	0905                	addi	s2,s2,1
 64c:	000c                	0xc
 64e:	0301                	addi	t1,t1,0
 650:	0905                	addi	s2,s2,1
 652:	000c                	0xc
 654:	0301                	addi	t1,t1,0
 656:	0905                	addi	s2,s2,1
 658:	000c                	0xc
 65a:	0301                	addi	t1,t1,0
 65c:	0905                	addi	s2,s2,1
 65e:	000c                	0xc
 660:	0301                	addi	t1,t1,0
 662:	0905                	addi	s2,s2,1
 664:	000c                	0xc
 666:	0301                	addi	t1,t1,0
 668:	0905                	addi	s2,s2,1
 66a:	000c                	0xc
 66c:	0301                	addi	t1,t1,0
 66e:	0905                	addi	s2,s2,1
 670:	000c                	0xc
 672:	0301                	addi	t1,t1,0
 674:	0905                	addi	s2,s2,1
 676:	000c                	0xc
 678:	0301                	addi	t1,t1,0
 67a:	0905                	addi	s2,s2,1
 67c:	000c                	0xc
 67e:	0301                	addi	t1,t1,0
 680:	0905                	addi	s2,s2,1
 682:	000c                	0xc
 684:	0301                	addi	t1,t1,0
 686:	0905                	addi	s2,s2,1
 688:	000c                	0xc
 68a:	0301                	addi	t1,t1,0
 68c:	0905                	addi	s2,s2,1
 68e:	000c                	0xc
 690:	0301                	addi	t1,t1,0
 692:	0905                	addi	s2,s2,1
 694:	000c                	0xc
 696:	0301                	addi	t1,t1,0
 698:	0905                	addi	s2,s2,1
 69a:	000c                	0xc
 69c:	0301                	addi	t1,t1,0
 69e:	0905                	addi	s2,s2,1
 6a0:	000c                	0xc
 6a2:	0301                	addi	t1,t1,0
 6a4:	0905                	addi	s2,s2,1
 6a6:	000c                	0xc
 6a8:	0301                	addi	t1,t1,0
 6aa:	0905                	addi	s2,s2,1
 6ac:	000c                	0xc
 6ae:	0301                	addi	t1,t1,0
 6b0:	0905                	addi	s2,s2,1
 6b2:	000c                	0xc
 6b4:	0301                	addi	t1,t1,0
 6b6:	0905                	addi	s2,s2,1
 6b8:	0010                	0x10
 6ba:	0301                	addi	t1,t1,0
 6bc:	0905                	addi	s2,s2,1
 6be:	0010                	0x10
 6c0:	0301                	addi	t1,t1,0
 6c2:	0905                	addi	s2,s2,1
 6c4:	0010                	0x10
 6c6:	0301                	addi	t1,t1,0
 6c8:	0905                	addi	s2,s2,1
 6ca:	0010                	0x10
 6cc:	0301                	addi	t1,t1,0
 6ce:	0905                	addi	s2,s2,1
 6d0:	0010                	0x10
 6d2:	0301                	addi	t1,t1,0
 6d4:	0905                	addi	s2,s2,1
 6d6:	0010                	0x10
 6d8:	0301                	addi	t1,t1,0
 6da:	0905                	addi	s2,s2,1
 6dc:	0010                	0x10
 6de:	0301                	addi	t1,t1,0
 6e0:	0905                	addi	s2,s2,1
 6e2:	0010                	0x10
 6e4:	0301                	addi	t1,t1,0
 6e6:	0905                	addi	s2,s2,1
 6e8:	0010                	0x10
 6ea:	0301                	addi	t1,t1,0
 6ec:	0905                	addi	s2,s2,1
 6ee:	0010                	0x10
 6f0:	0301                	addi	t1,t1,0
 6f2:	0905                	addi	s2,s2,1
 6f4:	0010                	0x10
 6f6:	0301                	addi	t1,t1,0
 6f8:	0905                	addi	s2,s2,1
 6fa:	0010                	0x10
 6fc:	0301                	addi	t1,t1,0
 6fe:	0905                	addi	s2,s2,1
 700:	0010                	0x10
 702:	0301                	addi	t1,t1,0
 704:	0905                	addi	s2,s2,1
 706:	0010                	0x10
 708:	0301                	addi	t1,t1,0
 70a:	0905                	addi	s2,s2,1
 70c:	0010                	0x10
 70e:	0301                	addi	t1,t1,0
 710:	0905                	addi	s2,s2,1
 712:	0010                	0x10
 714:	0301                	addi	t1,t1,0
 716:	0905                	addi	s2,s2,1
 718:	0010                	0x10
 71a:	0301                	addi	t1,t1,0
 71c:	0905                	addi	s2,s2,1
 71e:	0010                	0x10
 720:	0301                	addi	t1,t1,0
 722:	0905                	addi	s2,s2,1
 724:	0010                	0x10
 726:	0301                	addi	t1,t1,0
 728:	0905                	addi	s2,s2,1
 72a:	0010                	0x10
 72c:	0301                	addi	t1,t1,0
 72e:	0905                	addi	s2,s2,1
 730:	0010                	0x10
 732:	0301                	addi	t1,t1,0
 734:	0905                	addi	s2,s2,1
 736:	0010                	0x10
 738:	0301                	addi	t1,t1,0
 73a:	0905                	addi	s2,s2,1
 73c:	000c                	0xc
 73e:	0301                	addi	t1,t1,0
 740:	0905                	addi	s2,s2,1
 742:	000c                	0xc
 744:	0301                	addi	t1,t1,0
 746:	0905                	addi	s2,s2,1
 748:	000c                	0xc
 74a:	0301                	addi	t1,t1,0
 74c:	0905                	addi	s2,s2,1
 74e:	000c                	0xc
 750:	0301                	addi	t1,t1,0
 752:	0905                	addi	s2,s2,1
 754:	000c                	0xc
 756:	0301                	addi	t1,t1,0
 758:	0905                	addi	s2,s2,1
 75a:	000c                	0xc
 75c:	0301                	addi	t1,t1,0
 75e:	0905                	addi	s2,s2,1
 760:	000c                	0xc
 762:	0301                	addi	t1,t1,0
 764:	0905                	addi	s2,s2,1
 766:	0010                	0x10
 768:	0301                	addi	t1,t1,0
 76a:	0905                	addi	s2,s2,1
 76c:	0010                	0x10
 76e:	0301                	addi	t1,t1,0
 770:	0905                	addi	s2,s2,1
 772:	0010                	0x10
 774:	0301                	addi	t1,t1,0
 776:	0905                	addi	s2,s2,1
 778:	0010                	0x10
 77a:	0301                	addi	t1,t1,0
 77c:	0905                	addi	s2,s2,1
 77e:	0010                	0x10
 780:	0301                	addi	t1,t1,0
 782:	0905                	addi	s2,s2,1
 784:	0010                	0x10
 786:	0301                	addi	t1,t1,0
 788:	0905                	addi	s2,s2,1
 78a:	0010                	0x10
 78c:	0301                	addi	t1,t1,0
 78e:	0905                	addi	s2,s2,1
 790:	0010                	0x10
 792:	0301                	addi	t1,t1,0
 794:	0905                	addi	s2,s2,1
 796:	0010                	0x10
 798:	0301                	addi	t1,t1,0
 79a:	0905                	addi	s2,s2,1
 79c:	0010                	0x10
 79e:	0301                	addi	t1,t1,0
 7a0:	0905                	addi	s2,s2,1
 7a2:	0010                	0x10
 7a4:	0301                	addi	t1,t1,0
 7a6:	0905                	addi	s2,s2,1
 7a8:	0010                	0x10
 7aa:	0301                	addi	t1,t1,0
 7ac:	0905                	addi	s2,s2,1
 7ae:	0010                	0x10
 7b0:	0301                	addi	t1,t1,0
 7b2:	0905                	addi	s2,s2,1
 7b4:	0010                	0x10
 7b6:	0301                	addi	t1,t1,0
 7b8:	0905                	addi	s2,s2,1
 7ba:	0010                	0x10
 7bc:	0301                	addi	t1,t1,0
 7be:	0905                	addi	s2,s2,1
 7c0:	0010                	0x10
 7c2:	0301                	addi	t1,t1,0
 7c4:	0905                	addi	s2,s2,1
 7c6:	0010                	0x10
 7c8:	0301                	addi	t1,t1,0
 7ca:	0905                	addi	s2,s2,1
 7cc:	0010                	0x10
 7ce:	0301                	addi	t1,t1,0
 7d0:	0905                	addi	s2,s2,1
 7d2:	0010                	0x10
 7d4:	0301                	addi	t1,t1,0
 7d6:	0905                	addi	s2,s2,1
 7d8:	0010                	0x10
 7da:	0301                	addi	t1,t1,0
 7dc:	0905                	addi	s2,s2,1
 7de:	0010                	0x10
 7e0:	0301                	addi	t1,t1,0
 7e2:	0905                	addi	s2,s2,1
 7e4:	0010                	0x10
 7e6:	0301                	addi	t1,t1,0
 7e8:	0905                	addi	s2,s2,1
 7ea:	0010                	0x10
 7ec:	0301                	addi	t1,t1,0
 7ee:	0905                	addi	s2,s2,1
 7f0:	0010                	0x10
 7f2:	0301                	addi	t1,t1,0
 7f4:	0905                	addi	s2,s2,1
 7f6:	0010                	0x10
 7f8:	0301                	addi	t1,t1,0
 7fa:	0905                	addi	s2,s2,1
 7fc:	0010                	0x10
 7fe:	0301                	addi	t1,t1,0
 800:	0905                	addi	s2,s2,1
 802:	0010                	0x10
 804:	0301                	addi	t1,t1,0
 806:	0905                	addi	s2,s2,1
 808:	0010                	0x10
 80a:	0301                	addi	t1,t1,0
 80c:	0905                	addi	s2,s2,1
 80e:	0010                	0x10
 810:	0301                	addi	t1,t1,0
 812:	0905                	addi	s2,s2,1
 814:	0010                	0x10
 816:	0301                	addi	t1,t1,0
 818:	0905                	addi	s2,s2,1
 81a:	0010                	0x10
 81c:	0301                	addi	t1,t1,0
 81e:	0905                	addi	s2,s2,1
 820:	0010                	0x10
 822:	0301                	addi	t1,t1,0
 824:	0905                	addi	s2,s2,1
 826:	0010                	0x10
 828:	0301                	addi	t1,t1,0
 82a:	0905                	addi	s2,s2,1
 82c:	0010                	0x10
 82e:	0301                	addi	t1,t1,0
 830:	0905                	addi	s2,s2,1
 832:	0010                	0x10
 834:	0301                	addi	t1,t1,0
 836:	0905                	addi	s2,s2,1
 838:	0010                	0x10
 83a:	0301                	addi	t1,t1,0
 83c:	0905                	addi	s2,s2,1
 83e:	0010                	0x10
 840:	0301                	addi	t1,t1,0
 842:	0905                	addi	s2,s2,1
 844:	0010                	0x10
 846:	0301                	addi	t1,t1,0
 848:	0905                	addi	s2,s2,1
 84a:	0010                	0x10
 84c:	0301                	addi	t1,t1,0
 84e:	0905                	addi	s2,s2,1
 850:	0010                	0x10
 852:	0301                	addi	t1,t1,0
 854:	0905                	addi	s2,s2,1
 856:	0010                	0x10
 858:	0301                	addi	t1,t1,0
 85a:	0905                	addi	s2,s2,1
 85c:	0010                	0x10
 85e:	0301                	addi	t1,t1,0
 860:	0905                	addi	s2,s2,1
 862:	0010                	0x10
 864:	0301                	addi	t1,t1,0
 866:	0905                	addi	s2,s2,1
 868:	0010                	0x10
 86a:	0301                	addi	t1,t1,0
 86c:	0905                	addi	s2,s2,1
 86e:	0010                	0x10
 870:	0301                	addi	t1,t1,0
 872:	0905                	addi	s2,s2,1
 874:	0010                	0x10
 876:	0301                	addi	t1,t1,0
 878:	0905                	addi	s2,s2,1
 87a:	0010                	0x10
 87c:	0301                	addi	t1,t1,0
 87e:	0905                	addi	s2,s2,1
 880:	0010                	0x10
 882:	0301                	addi	t1,t1,0
 884:	0905                	addi	s2,s2,1
 886:	0010                	0x10
 888:	0301                	addi	t1,t1,0
 88a:	0905                	addi	s2,s2,1
 88c:	0010                	0x10
 88e:	0301                	addi	t1,t1,0
 890:	0905                	addi	s2,s2,1
 892:	0010                	0x10
 894:	0301                	addi	t1,t1,0
 896:	0905                	addi	s2,s2,1
 898:	0010                	0x10
 89a:	0301                	addi	t1,t1,0
 89c:	0905                	addi	s2,s2,1
 89e:	0010                	0x10
 8a0:	0301                	addi	t1,t1,0
 8a2:	0905                	addi	s2,s2,1
 8a4:	0010                	0x10
 8a6:	0301                	addi	t1,t1,0
 8a8:	0905                	addi	s2,s2,1
 8aa:	0010                	0x10
 8ac:	0301                	addi	t1,t1,0
 8ae:	0905                	addi	s2,s2,1
 8b0:	0010                	0x10
 8b2:	0301                	addi	t1,t1,0
 8b4:	0905                	addi	s2,s2,1
 8b6:	0010                	0x10
 8b8:	0301                	addi	t1,t1,0
 8ba:	0905                	addi	s2,s2,1
 8bc:	0010                	0x10
 8be:	0301                	addi	t1,t1,0
 8c0:	0905                	addi	s2,s2,1
 8c2:	0010                	0x10
 8c4:	0301                	addi	t1,t1,0
 8c6:	0905                	addi	s2,s2,1
 8c8:	0010                	0x10
 8ca:	0301                	addi	t1,t1,0
 8cc:	0905                	addi	s2,s2,1
 8ce:	0010                	0x10
 8d0:	0301                	addi	t1,t1,0
 8d2:	0905                	addi	s2,s2,1
 8d4:	0010                	0x10
 8d6:	0301                	addi	t1,t1,0
 8d8:	0905                	addi	s2,s2,1
 8da:	0010                	0x10
 8dc:	0301                	addi	t1,t1,0
 8de:	0905                	addi	s2,s2,1
 8e0:	0010                	0x10
 8e2:	0301                	addi	t1,t1,0
 8e4:	0905                	addi	s2,s2,1
 8e6:	0010                	0x10
 8e8:	0301                	addi	t1,t1,0
 8ea:	0905                	addi	s2,s2,1
 8ec:	0010                	0x10
 8ee:	0301                	addi	t1,t1,0
 8f0:	0905                	addi	s2,s2,1
 8f2:	0010                	0x10
 8f4:	0301                	addi	t1,t1,0
 8f6:	0905                	addi	s2,s2,1
 8f8:	0010                	0x10
 8fa:	0301                	addi	t1,t1,0
 8fc:	0905                	addi	s2,s2,1
 8fe:	0010                	0x10
 900:	0301                	addi	t1,t1,0
 902:	0905                	addi	s2,s2,1
 904:	0010                	0x10
 906:	0301                	addi	t1,t1,0
 908:	0905                	addi	s2,s2,1
 90a:	0010                	0x10
 90c:	0301                	addi	t1,t1,0
 90e:	0905                	addi	s2,s2,1
 910:	0010                	0x10
 912:	0301                	addi	t1,t1,0
 914:	0905                	addi	s2,s2,1
 916:	0010                	0x10
 918:	0301                	addi	t1,t1,0
 91a:	0905                	addi	s2,s2,1
 91c:	0010                	0x10
 91e:	0301                	addi	t1,t1,0
 920:	0905                	addi	s2,s2,1
 922:	0010                	0x10
 924:	0301                	addi	t1,t1,0
 926:	0905                	addi	s2,s2,1
 928:	0010                	0x10
 92a:	0301                	addi	t1,t1,0
 92c:	0905                	addi	s2,s2,1
 92e:	000c                	0xc
 930:	0301                	addi	t1,t1,0
 932:	0905                	addi	s2,s2,1
 934:	000c                	0xc
 936:	0301                	addi	t1,t1,0
 938:	0905                	addi	s2,s2,1
 93a:	000c                	0xc
 93c:	0301                	addi	t1,t1,0
 93e:	0905                	addi	s2,s2,1
 940:	000c                	0xc
 942:	0301                	addi	t1,t1,0
 944:	0905                	addi	s2,s2,1
 946:	000c                	0xc
 948:	0301                	addi	t1,t1,0
 94a:	0905                	addi	s2,s2,1
 94c:	000c                	0xc
 94e:	0301                	addi	t1,t1,0
 950:	0905                	addi	s2,s2,1
 952:	000c                	0xc
 954:	0301                	addi	t1,t1,0
 956:	0905                	addi	s2,s2,1
 958:	000c                	0xc
 95a:	0301                	addi	t1,t1,0
 95c:	0905                	addi	s2,s2,1
 95e:	000c                	0xc
 960:	0301                	addi	t1,t1,0
 962:	0905                	addi	s2,s2,1
 964:	000c                	0xc
 966:	0301                	addi	t1,t1,0
 968:	0905                	addi	s2,s2,1
 96a:	000c                	0xc
 96c:	0301                	addi	t1,t1,0
 96e:	0905                	addi	s2,s2,1
 970:	000c                	0xc
 972:	0301                	addi	t1,t1,0
 974:	0905                	addi	s2,s2,1
 976:	000c                	0xc
 978:	0301                	addi	t1,t1,0
 97a:	0905                	addi	s2,s2,1
 97c:	000c                	0xc
 97e:	0301                	addi	t1,t1,0
 980:	0905                	addi	s2,s2,1
 982:	000c                	0xc
 984:	0301                	addi	t1,t1,0
 986:	0905                	addi	s2,s2,1
 988:	000c                	0xc
 98a:	0301                	addi	t1,t1,0
 98c:	0905                	addi	s2,s2,1
 98e:	000c                	0xc
 990:	0301                	addi	t1,t1,0
 992:	0905                	addi	s2,s2,1
 994:	000c                	0xc
 996:	0301                	addi	t1,t1,0
 998:	0905                	addi	s2,s2,1
 99a:	000c                	0xc
 99c:	0301                	addi	t1,t1,0
 99e:	0905                	addi	s2,s2,1
 9a0:	000c                	0xc
 9a2:	0301                	addi	t1,t1,0
 9a4:	0905                	addi	s2,s2,1
 9a6:	000c                	0xc
 9a8:	0301                	addi	t1,t1,0
 9aa:	0905                	addi	s2,s2,1
 9ac:	000c                	0xc
 9ae:	0301                	addi	t1,t1,0
 9b0:	0905                	addi	s2,s2,1
 9b2:	000c                	0xc
 9b4:	0301                	addi	t1,t1,0
 9b6:	0905                	addi	s2,s2,1
 9b8:	000c                	0xc
 9ba:	0301                	addi	t1,t1,0
 9bc:	0905                	addi	s2,s2,1
 9be:	000c                	0xc
 9c0:	0301                	addi	t1,t1,0
 9c2:	0905                	addi	s2,s2,1
 9c4:	000c                	0xc
 9c6:	0301                	addi	t1,t1,0
 9c8:	0905                	addi	s2,s2,1
 9ca:	000c                	0xc
 9cc:	0301                	addi	t1,t1,0
 9ce:	0905                	addi	s2,s2,1
 9d0:	000c                	0xc
 9d2:	0301                	addi	t1,t1,0
 9d4:	0905                	addi	s2,s2,1
 9d6:	000c                	0xc
 9d8:	0301                	addi	t1,t1,0
 9da:	0905                	addi	s2,s2,1
 9dc:	000c                	0xc
 9de:	0301                	addi	t1,t1,0
 9e0:	0905                	addi	s2,s2,1
 9e2:	000c                	0xc
 9e4:	0301                	addi	t1,t1,0
 9e6:	0905                	addi	s2,s2,1
 9e8:	000c                	0xc
 9ea:	0301                	addi	t1,t1,0
 9ec:	0905                	addi	s2,s2,1
 9ee:	000c                	0xc
 9f0:	0301                	addi	t1,t1,0
 9f2:	0905                	addi	s2,s2,1
 9f4:	000c                	0xc
 9f6:	0301                	addi	t1,t1,0
 9f8:	0905                	addi	s2,s2,1
 9fa:	000c                	0xc
 9fc:	0301                	addi	t1,t1,0
 9fe:	0905                	addi	s2,s2,1
 a00:	0010                	0x10
 a02:	0301                	addi	t1,t1,0
 a04:	0905                	addi	s2,s2,1
 a06:	0010                	0x10
 a08:	0301                	addi	t1,t1,0
 a0a:	0905                	addi	s2,s2,1
 a0c:	0010                	0x10
 a0e:	0301                	addi	t1,t1,0
 a10:	0905                	addi	s2,s2,1
 a12:	0010                	0x10
 a14:	0301                	addi	t1,t1,0
 a16:	0905                	addi	s2,s2,1
 a18:	0010                	0x10
 a1a:	0301                	addi	t1,t1,0
 a1c:	0905                	addi	s2,s2,1
 a1e:	0010                	0x10
 a20:	0301                	addi	t1,t1,0
 a22:	0905                	addi	s2,s2,1
 a24:	0010                	0x10
 a26:	0301                	addi	t1,t1,0
 a28:	0905                	addi	s2,s2,1
 a2a:	0010                	0x10
 a2c:	0301                	addi	t1,t1,0
 a2e:	0905                	addi	s2,s2,1
 a30:	0010                	0x10
 a32:	0301                	addi	t1,t1,0
 a34:	0905                	addi	s2,s2,1
 a36:	0010                	0x10
 a38:	0301                	addi	t1,t1,0
 a3a:	0905                	addi	s2,s2,1
 a3c:	0010                	0x10
 a3e:	0301                	addi	t1,t1,0
 a40:	0905                	addi	s2,s2,1
 a42:	0010                	0x10
 a44:	0301                	addi	t1,t1,0
 a46:	0905                	addi	s2,s2,1
 a48:	0010                	0x10
 a4a:	0301                	addi	t1,t1,0
 a4c:	0905                	addi	s2,s2,1
 a4e:	0010                	0x10
 a50:	0301                	addi	t1,t1,0
 a52:	0905                	addi	s2,s2,1
 a54:	0010                	0x10
 a56:	0301                	addi	t1,t1,0
 a58:	0905                	addi	s2,s2,1
 a5a:	0010                	0x10
 a5c:	0301                	addi	t1,t1,0
 a5e:	0905                	addi	s2,s2,1
 a60:	0010                	0x10
 a62:	0301                	addi	t1,t1,0
 a64:	0905                	addi	s2,s2,1
 a66:	0010                	0x10
 a68:	0301                	addi	t1,t1,0
 a6a:	0905                	addi	s2,s2,1
 a6c:	0010                	0x10
 a6e:	0301                	addi	t1,t1,0
 a70:	0905                	addi	s2,s2,1
 a72:	0010                	0x10
 a74:	0301                	addi	t1,t1,0
 a76:	0905                	addi	s2,s2,1
 a78:	0010                	0x10
 a7a:	0301                	addi	t1,t1,0
 a7c:	0905                	addi	s2,s2,1
 a7e:	0010                	0x10
 a80:	0301                	addi	t1,t1,0
 a82:	0905                	addi	s2,s2,1
 a84:	0010                	0x10
 a86:	0301                	addi	t1,t1,0
 a88:	0905                	addi	s2,s2,1
 a8a:	0010                	0x10
 a8c:	0301                	addi	t1,t1,0
 a8e:	0905                	addi	s2,s2,1
 a90:	0010                	0x10
 a92:	0301                	addi	t1,t1,0
 a94:	0905                	addi	s2,s2,1
 a96:	0010                	0x10
 a98:	0301                	addi	t1,t1,0
 a9a:	0905                	addi	s2,s2,1
 a9c:	0010                	0x10
 a9e:	0301                	addi	t1,t1,0
 aa0:	0905                	addi	s2,s2,1
 aa2:	0010                	0x10
 aa4:	0301                	addi	t1,t1,0
 aa6:	0905                	addi	s2,s2,1
 aa8:	0010                	0x10
 aaa:	0301                	addi	t1,t1,0
 aac:	0905                	addi	s2,s2,1
 aae:	0010                	0x10
 ab0:	0301                	addi	t1,t1,0
 ab2:	0905                	addi	s2,s2,1
 ab4:	0010                	0x10
 ab6:	0301                	addi	t1,t1,0
 ab8:	0905                	addi	s2,s2,1
 aba:	0010                	0x10
 abc:	0301                	addi	t1,t1,0
 abe:	0905                	addi	s2,s2,1
 ac0:	0010                	0x10
 ac2:	0301                	addi	t1,t1,0
 ac4:	0905                	addi	s2,s2,1
 ac6:	0010                	0x10
 ac8:	0301                	addi	t1,t1,0
 aca:	0905                	addi	s2,s2,1
 acc:	0010                	0x10
 ace:	0301                	addi	t1,t1,0
 ad0:	0905                	addi	s2,s2,1
 ad2:	0010                	0x10
 ad4:	0301                	addi	t1,t1,0
 ad6:	0905                	addi	s2,s2,1
 ad8:	0010                	0x10
 ada:	0301                	addi	t1,t1,0
 adc:	0905                	addi	s2,s2,1
 ade:	0010                	0x10
 ae0:	0301                	addi	t1,t1,0
 ae2:	0905                	addi	s2,s2,1
 ae4:	0010                	0x10
 ae6:	0301                	addi	t1,t1,0
 ae8:	0905                	addi	s2,s2,1
 aea:	0010                	0x10
 aec:	0301                	addi	t1,t1,0
 aee:	0905                	addi	s2,s2,1
 af0:	0010                	0x10
 af2:	0301                	addi	t1,t1,0
 af4:	0905                	addi	s2,s2,1
 af6:	0010                	0x10
 af8:	0301                	addi	t1,t1,0
 afa:	0905                	addi	s2,s2,1
 afc:	0010                	0x10
 afe:	0301                	addi	t1,t1,0
 b00:	0905                	addi	s2,s2,1
 b02:	0010                	0x10
 b04:	0301                	addi	t1,t1,0
 b06:	0905                	addi	s2,s2,1
 b08:	0010                	0x10
 b0a:	0301                	addi	t1,t1,0
 b0c:	0905                	addi	s2,s2,1
 b0e:	0010                	0x10
 b10:	0301                	addi	t1,t1,0
 b12:	0905                	addi	s2,s2,1
 b14:	0010                	0x10
 b16:	0301                	addi	t1,t1,0
 b18:	0905                	addi	s2,s2,1
 b1a:	0010                	0x10
 b1c:	0301                	addi	t1,t1,0
 b1e:	0905                	addi	s2,s2,1
 b20:	0010                	0x10
 b22:	0301                	addi	t1,t1,0
 b24:	0905                	addi	s2,s2,1
 b26:	0010                	0x10
 b28:	0301                	addi	t1,t1,0
 b2a:	0905                	addi	s2,s2,1
 b2c:	0010                	0x10
 b2e:	0301                	addi	t1,t1,0
 b30:	0905                	addi	s2,s2,1
 b32:	0010                	0x10
 b34:	0301                	addi	t1,t1,0
 b36:	0905                	addi	s2,s2,1
 b38:	0010                	0x10
 b3a:	0301                	addi	t1,t1,0
 b3c:	0905                	addi	s2,s2,1
 b3e:	0010                	0x10
 b40:	0301                	addi	t1,t1,0
 b42:	0905                	addi	s2,s2,1
 b44:	0010                	0x10
 b46:	0301                	addi	t1,t1,0
 b48:	0905                	addi	s2,s2,1
 b4a:	0010                	0x10
 b4c:	0301                	addi	t1,t1,0
 b4e:	0905                	addi	s2,s2,1
 b50:	0010                	0x10
 b52:	0301                	addi	t1,t1,0
 b54:	0905                	addi	s2,s2,1
 b56:	0010                	0x10
 b58:	0301                	addi	t1,t1,0
 b5a:	0905                	addi	s2,s2,1
 b5c:	0010                	0x10
 b5e:	0301                	addi	t1,t1,0
 b60:	0905                	addi	s2,s2,1
 b62:	0010                	0x10
 b64:	0301                	addi	t1,t1,0
 b66:	0905                	addi	s2,s2,1
 b68:	0010                	0x10
 b6a:	0301                	addi	t1,t1,0
 b6c:	0905                	addi	s2,s2,1
 b6e:	0010                	0x10
 b70:	0301                	addi	t1,t1,0
 b72:	0905                	addi	s2,s2,1
 b74:	0010                	0x10
 b76:	0301                	addi	t1,t1,0
 b78:	0905                	addi	s2,s2,1
 b7a:	0010                	0x10
 b7c:	0301                	addi	t1,t1,0
 b7e:	0905                	addi	s2,s2,1
 b80:	0010                	0x10
 b82:	0301                	addi	t1,t1,0
 b84:	0905                	addi	s2,s2,1
 b86:	0010                	0x10
 b88:	0301                	addi	t1,t1,0
 b8a:	0905                	addi	s2,s2,1
 b8c:	0010                	0x10
 b8e:	0301                	addi	t1,t1,0
 b90:	0905                	addi	s2,s2,1
 b92:	0010                	0x10
 b94:	0301                	addi	t1,t1,0
 b96:	0905                	addi	s2,s2,1
 b98:	0010                	0x10
 b9a:	0301                	addi	t1,t1,0
 b9c:	0905                	addi	s2,s2,1
 b9e:	0010                	0x10
 ba0:	0301                	addi	t1,t1,0
 ba2:	0905                	addi	s2,s2,1
 ba4:	0010                	0x10
 ba6:	0301                	addi	t1,t1,0
 ba8:	0905                	addi	s2,s2,1
 baa:	0010                	0x10
 bac:	0301                	addi	t1,t1,0
 bae:	0905                	addi	s2,s2,1
 bb0:	0010                	0x10
 bb2:	0301                	addi	t1,t1,0
 bb4:	0905                	addi	s2,s2,1
 bb6:	0010                	0x10
 bb8:	0301                	addi	t1,t1,0
 bba:	0905                	addi	s2,s2,1
 bbc:	0010                	0x10
 bbe:	0301                	addi	t1,t1,0
 bc0:	0905                	addi	s2,s2,1
 bc2:	0010                	0x10
 bc4:	0301                	addi	t1,t1,0
 bc6:	0905                	addi	s2,s2,1
 bc8:	0010                	0x10
 bca:	0301                	addi	t1,t1,0
 bcc:	0905                	addi	s2,s2,1
 bce:	0010                	0x10
 bd0:	0301                	addi	t1,t1,0
 bd2:	0905                	addi	s2,s2,1
 bd4:	0010                	0x10
 bd6:	0301                	addi	t1,t1,0
 bd8:	0905                	addi	s2,s2,1
 bda:	0010                	0x10
 bdc:	0301                	addi	t1,t1,0
 bde:	0905                	addi	s2,s2,1
 be0:	0010                	0x10
 be2:	0301                	addi	t1,t1,0
 be4:	0905                	addi	s2,s2,1
 be6:	0010                	0x10
 be8:	0301                	addi	t1,t1,0
 bea:	0905                	addi	s2,s2,1
 bec:	0010                	0x10
 bee:	0301                	addi	t1,t1,0
 bf0:	0905                	addi	s2,s2,1
 bf2:	0010                	0x10
 bf4:	0301                	addi	t1,t1,0
 bf6:	0905                	addi	s2,s2,1
 bf8:	0010                	0x10
 bfa:	0301                	addi	t1,t1,0
 bfc:	0905                	addi	s2,s2,1
 bfe:	0010                	0x10
 c00:	0301                	addi	t1,t1,0
 c02:	0905                	addi	s2,s2,1
 c04:	0010                	0x10
 c06:	0301                	addi	t1,t1,0
 c08:	0905                	addi	s2,s2,1
 c0a:	0010                	0x10
 c0c:	0301                	addi	t1,t1,0
 c0e:	0905                	addi	s2,s2,1
 c10:	0010                	0x10
 c12:	0301                	addi	t1,t1,0
 c14:	0905                	addi	s2,s2,1
 c16:	0010                	0x10
 c18:	0301                	addi	t1,t1,0
 c1a:	0905                	addi	s2,s2,1
 c1c:	0010                	0x10
 c1e:	0301                	addi	t1,t1,0
 c20:	0905                	addi	s2,s2,1
 c22:	0010                	0x10
 c24:	0301                	addi	t1,t1,0
 c26:	0905                	addi	s2,s2,1
 c28:	0010                	0x10
 c2a:	0301                	addi	t1,t1,0
 c2c:	0905                	addi	s2,s2,1
 c2e:	0010                	0x10
 c30:	0301                	addi	t1,t1,0
 c32:	0905                	addi	s2,s2,1
 c34:	0010                	0x10
 c36:	0301                	addi	t1,t1,0
 c38:	0905                	addi	s2,s2,1
 c3a:	0010                	0x10
 c3c:	0301                	addi	t1,t1,0
 c3e:	0905                	addi	s2,s2,1
 c40:	0010                	0x10
 c42:	0301                	addi	t1,t1,0
 c44:	0905                	addi	s2,s2,1
 c46:	0010                	0x10
 c48:	0301                	addi	t1,t1,0
 c4a:	0905                	addi	s2,s2,1
 c4c:	0010                	0x10
 c4e:	0301                	addi	t1,t1,0
 c50:	0905                	addi	s2,s2,1
 c52:	0010                	0x10
 c54:	0301                	addi	t1,t1,0
 c56:	0905                	addi	s2,s2,1
 c58:	0010                	0x10
 c5a:	0301                	addi	t1,t1,0
 c5c:	0905                	addi	s2,s2,1
 c5e:	0010                	0x10
 c60:	0301                	addi	t1,t1,0
 c62:	0905                	addi	s2,s2,1
 c64:	0010                	0x10
 c66:	0301                	addi	t1,t1,0
 c68:	0905                	addi	s2,s2,1
 c6a:	0010                	0x10
 c6c:	0301                	addi	t1,t1,0
 c6e:	0905                	addi	s2,s2,1
 c70:	0010                	0x10
 c72:	0301                	addi	t1,t1,0
 c74:	0905                	addi	s2,s2,1
 c76:	0010                	0x10
 c78:	0301                	addi	t1,t1,0
 c7a:	0905                	addi	s2,s2,1
 c7c:	0010                	0x10
 c7e:	0301                	addi	t1,t1,0
 c80:	0905                	addi	s2,s2,1
 c82:	0010                	0x10
 c84:	0301                	addi	t1,t1,0
 c86:	0905                	addi	s2,s2,1
 c88:	0010                	0x10
 c8a:	0301                	addi	t1,t1,0
 c8c:	0905                	addi	s2,s2,1
 c8e:	0010                	0x10
 c90:	0301                	addi	t1,t1,0
 c92:	0905                	addi	s2,s2,1
 c94:	000c                	0xc
 c96:	0301                	addi	t1,t1,0
 c98:	0905                	addi	s2,s2,1
 c9a:	000c                	0xc
 c9c:	0301                	addi	t1,t1,0
 c9e:	0905                	addi	s2,s2,1
 ca0:	000c                	0xc
 ca2:	0301                	addi	t1,t1,0
 ca4:	0905                	addi	s2,s2,1
 ca6:	000c                	0xc
 ca8:	0301                	addi	t1,t1,0
 caa:	0905                	addi	s2,s2,1
 cac:	000c                	0xc
 cae:	0301                	addi	t1,t1,0
 cb0:	0905                	addi	s2,s2,1
 cb2:	000c                	0xc
 cb4:	0301                	addi	t1,t1,0
 cb6:	0905                	addi	s2,s2,1
 cb8:	000c                	0xc
 cba:	0301                	addi	t1,t1,0
 cbc:	0905                	addi	s2,s2,1
 cbe:	000c                	0xc
 cc0:	0301                	addi	t1,t1,0
 cc2:	0905                	addi	s2,s2,1
 cc4:	000c                	0xc
 cc6:	0301                	addi	t1,t1,0
 cc8:	0901                	addi	s2,s2,0
 cca:	000c                	0xc
 ccc:	0301                	addi	t1,t1,0
 cce:	0905                	addi	s2,s2,1
 cd0:	0008                	0x8
 cd2:	0301                	addi	t1,t1,0
 cd4:	0905                	addi	s2,s2,1
 cd6:	000c                	0xc
 cd8:	0301                	addi	t1,t1,0
 cda:	0905                	addi	s2,s2,1
 cdc:	000c                	0xc
 cde:	0301                	addi	t1,t1,0
 ce0:	0905                	addi	s2,s2,1
 ce2:	000c                	0xc
 ce4:	0301                	addi	t1,t1,0
 ce6:	0905                	addi	s2,s2,1
 ce8:	000c                	0xc
 cea:	0301                	addi	t1,t1,0
 cec:	0905                	addi	s2,s2,1
 cee:	000c                	0xc
 cf0:	0301                	addi	t1,t1,0
 cf2:	0905                	addi	s2,s2,1
 cf4:	000c                	0xc
 cf6:	0301                	addi	t1,t1,0
 cf8:	0905                	addi	s2,s2,1
 cfa:	000c                	0xc
 cfc:	0301                	addi	t1,t1,0
 cfe:	0905                	addi	s2,s2,1
 d00:	000c                	0xc
 d02:	0301                	addi	t1,t1,0
 d04:	0905                	addi	s2,s2,1
 d06:	000c                	0xc
 d08:	0301                	addi	t1,t1,0
 d0a:	0905                	addi	s2,s2,1
 d0c:	000c                	0xc
 d0e:	0301                	addi	t1,t1,0
 d10:	0905                	addi	s2,s2,1
 d12:	000c                	0xc
 d14:	0301                	addi	t1,t1,0
 d16:	0905                	addi	s2,s2,1
 d18:	000c                	0xc
 d1a:	0301                	addi	t1,t1,0
 d1c:	0905                	addi	s2,s2,1
 d1e:	0010                	0x10
 d20:	0301                	addi	t1,t1,0
 d22:	0905                	addi	s2,s2,1
 d24:	0010                	0x10
 d26:	0301                	addi	t1,t1,0
 d28:	0905                	addi	s2,s2,1
 d2a:	0010                	0x10
 d2c:	0301                	addi	t1,t1,0
 d2e:	0905                	addi	s2,s2,1
 d30:	0010                	0x10
 d32:	0301                	addi	t1,t1,0
 d34:	0905                	addi	s2,s2,1
 d36:	0010                	0x10
 d38:	0301                	addi	t1,t1,0
 d3a:	0905                	addi	s2,s2,1
 d3c:	0010                	0x10
 d3e:	0301                	addi	t1,t1,0
 d40:	0905                	addi	s2,s2,1
 d42:	0010                	0x10
 d44:	0301                	addi	t1,t1,0
 d46:	0905                	addi	s2,s2,1
 d48:	0010                	0x10
 d4a:	0301                	addi	t1,t1,0
 d4c:	0905                	addi	s2,s2,1
 d4e:	0010                	0x10
 d50:	0301                	addi	t1,t1,0
 d52:	0905                	addi	s2,s2,1
 d54:	0010                	0x10
 d56:	0301                	addi	t1,t1,0
 d58:	0905                	addi	s2,s2,1
 d5a:	0010                	0x10
 d5c:	0301                	addi	t1,t1,0
 d5e:	0905                	addi	s2,s2,1
 d60:	0010                	0x10
 d62:	0301                	addi	t1,t1,0
 d64:	0905                	addi	s2,s2,1
 d66:	0010                	0x10
 d68:	0301                	addi	t1,t1,0
 d6a:	0905                	addi	s2,s2,1
 d6c:	0014                	0x14
 d6e:	0901                	addi	s2,s2,0
 d70:	0014                	0x14
 d72:	0100                	addi	s0,sp,128
 d74:	01              	Address 0x0000000000000d74 is out of bounds.


Disassembly of section .debug_info:

00000000 <.debug_info>:
   0:	0022                	c.slli	zero,0x8
   2:	0000                	unimp
   4:	0002                	c.slli64	zero
   6:	0000                	unimp
   8:	0000                	unimp
   a:	0104                	addi	s1,sp,128
   c:	0000                	unimp
   e:	0000                	unimp
  10:	0000                	unimp
  12:	9000                	0x9000
  14:	2164                	fld	fs1,192(a0)
  16:	9000                	0x9000
  18:	0000                	unimp
  1a:	0000                	unimp
  1c:	000d                	c.nop	3
  1e:	0000                	unimp
  20:	0074                	addi	a3,sp,12
  22:	0000                	unimp
  24:	8001                	c.srli64	s0

Disassembly of section .debug_abbrev:

00000000 <.debug_abbrev>:
   0:	1101                	addi	sp,sp,-32
   2:	1000                	addi	s0,sp,32
   4:	1106                	slli	sp,sp,0x21
   6:	1201                	addi	tp,tp,-32
   8:	0301                	addi	t1,t1,0
   a:	1b0e                	slli	s6,s6,0x23
   c:	250e                	fld	fa0,192(sp)
   e:	130e                	slli	t1,t1,0x23
  10:	0005                	c.nop	1
	...

Disassembly of section .debug_aranges:

00000000 <.debug_aranges>:
   0:	001c                	0x1c
   2:	0000                	unimp
   4:	0002                	c.slli64	zero
   6:	0000                	unimp
   8:	0000                	unimp
   a:	0004                	0x4
   c:	0000                	unimp
   e:	0000                	unimp
  10:	0000                	unimp
  12:	9000                	0x9000
  14:	2164                	fld	fs1,192(a0)
	...

Disassembly of section .debug_str:

00000000 <.debug_str>:
   0:	2f637273          	csrrci	tp,0x2f6,6
   4:	2d69726f          	jal	tp,972da <offset+0x97272>
   8:	3130                	fld	fa2,96(a0)
   a:	532e                	lw	t1,232(sp)
   c:	2f00                	fld	fs0,24(a4)
   e:	6f68                	flw	fa0,92(a4)
  10:	656d                	lui	a0,0x1b
  12:	6b61742f          	0x6b61742f
  16:	2f61                	jal	7ae <offset+0x746>
  18:	4952                	lw	s2,20(sp)
  1a:	2f564353          	0x2f564353
  1e:	6d6d                	lui	s10,0x1b
  20:	4952                	lw	s2,20(sp)
  22:	732f4353          	0x732f4353
  26:	6d69                	lui	s10,0x1a
  28:	6c75                	lui	s8,0x1d
  2a:	7461                	lui	s0,0xffff8
  2c:	6f69                	lui	t5,0x1a
  2e:	2f6e                	fld	ft10,216(sp)
  30:	6f6d                	lui	t5,0x1b
  32:	6564                	flw	fs1,76(a0)
  34:	736c                	flw	fa1,100(a4)
  36:	6d69                	lui	s10,0x1a
  38:	7369722f          	0x7369722f
  3c:	612d7663          	bgeu	s10,s2,648 <offset+0x5e0>
  40:	6372                	flw	ft6,28(sp)
  42:	2d68                	fld	fa0,216(a0)
  44:	6574                	flw	fa3,76(a0)
  46:	722f7473          	csrrci	s0,0x722,30
  4a:	7369                	lui	t1,0xffffa
  4c:	612d7663          	bgeu	s10,s2,658 <offset+0x5f0>
  50:	6372                	flw	ft6,28(sp)
  52:	2d68                	fld	fa0,216(a0)
  54:	6574                	flw	fa3,76(a0)
  56:	722f7473          	csrrci	s0,0x722,30
  5a:	7369                	lui	t1,0xffffa
  5c:	742d7663          	bgeu	s10,sp,7a8 <offset+0x740>
  60:	7365                	lui	t1,0xffff9
  62:	2d74                	fld	fa3,216(a0)
  64:	74697573          	csrrci	a0,0x746,18
  68:	2f65                	jal	820 <offset+0x7b8>
  6a:	7672                	flw	fa2,60(sp)
  6c:	5f693233          	0x5f693233
  70:	2f6d                	jal	82a <offset+0x7c2>
  72:	0049                	c.nop	18
  74:	20554e47          	fmsub.s	ft8,fa0,ft5,ft4,rmm
  78:	5341                	li	t1,-16
  7a:	3220                	fld	fs0,96(a2)
  7c:	332e                	fld	ft6,232(sp)
  7e:	0035                	c.nop	13
