
/home/taka/RISCV/mmRISC/simulation/modelsim/riscv-arch-test/riscv-arch-test/work/rv32i_m/I/sltiu-01.elf:     file format elf32-littleriscv


Disassembly of section .text.init:

90000000 <rvtest_entry_point>:
90000000:	feedc0b7          	lui	ra,0xfeedc
90000004:	ead08093          	addi	ra,ra,-339 # feedbead <_end+0x6eed72a9>
90000008:	ff76e137          	lui	sp,0xff76e
9000000c:	f5610113          	addi	sp,sp,-170 # ff76df56 <_end+0x6f769352>
90000010:	7fbb71b7          	lui	gp,0x7fbb7
90000014:	fab18193          	addi	gp,gp,-85 # 7fbb6fab <offset+0x7fbb6d07>
90000018:	bfddb237          	lui	tp,0xbfddb
9000001c:	7d520213          	addi	tp,tp,2005 # bfddb7d5 <_end+0x2fdd6bd1>
90000020:	00000297          	auipc	t0,0x0
90000024:	0d828293          	addi	t0,t0,216 # 900000f8 <rvtest_code_begin>
90000028:	00004317          	auipc	t1,0x4
9000002c:	fd830313          	addi	t1,t1,-40 # 90004000 <rvtest_data_begin>
90000030:	b7fbb3b7          	lui	t2,0xb7fbb
90000034:	6fa38393          	addi	t2,t2,1786 # b7fbb6fa <_end+0x27fb6af6>
90000038:	5bfde437          	lui	s0,0x5bfde
9000003c:	b7d40413          	addi	s0,s0,-1155 # 5bfddb7d <offset+0x5bfdd8d9>
90000040:	adfef4b7          	lui	s1,0xadfef
90000044:	dbe48493          	addi	s1,s1,-578 # adfeedbe <_end+0x1dfea1ba>
90000048:	56ff7537          	lui	a0,0x56ff7
9000004c:	6df50513          	addi	a0,a0,1759 # 56ff76df <offset+0x56ff743b>
90000050:	ab7fc5b7          	lui	a1,0xab7fc
90000054:	b6f58593          	addi	a1,a1,-1169 # ab7fbb6f <_end+0x1b7f6f6b>
90000058:	d5bfe637          	lui	a2,0xd5bfe
9000005c:	db760613          	addi	a2,a2,-585 # d5bfddb7 <_end+0x45bf91b3>
90000060:	eadff6b7          	lui	a3,0xeadff
90000064:	edb68693          	addi	a3,a3,-293 # eadfeedb <_end+0x5adfa2d7>
90000068:	f56ff737          	lui	a4,0xf56ff
9000006c:	76d70713          	addi	a4,a4,1901 # f56ff76d <_end+0x656fab69>
90000070:	fab807b7          	lui	a5,0xfab80
90000074:	bb678793          	addi	a5,a5,-1098 # fab7fbb6 <_end+0x6ab7afb2>
90000078:	7d5c0837          	lui	a6,0x7d5c0
9000007c:	ddb80813          	addi	a6,a6,-549 # 7d5bfddb <offset+0x7d5bfb37>
90000080:	beae08b7          	lui	a7,0xbeae0
90000084:	eed88893          	addi	a7,a7,-275 # beadfeed <_end+0x2eadb2e9>
90000088:	df570937          	lui	s2,0xdf570
9000008c:	f7690913          	addi	s2,s2,-138 # df56ff76 <_end+0x4f56b372>
90000090:	6fab89b7          	lui	s3,0x6fab8
90000094:	fbb98993          	addi	s3,s3,-69 # 6fab7fbb <offset+0x6fab7d17>
90000098:	b7d5ca37          	lui	s4,0xb7d5c
9000009c:	fdda0a13          	addi	s4,s4,-35 # b7d5bfdd <_end+0x27d573d9>
900000a0:	dbeaeab7          	lui	s5,0xdbeae
900000a4:	feea8a93          	addi	s5,s5,-18 # dbeadfee <_end+0x4bea93ea>
900000a8:	6df57b37          	lui	s6,0x6df57
900000ac:	ff7b0b13          	addi	s6,s6,-9 # 6df56ff7 <offset+0x6df56d53>
900000b0:	b6fabbb7          	lui	s7,0xb6fab
900000b4:	7fbb8b93          	addi	s7,s7,2043 # b6fab7fb <_end+0x26fa6bf7>
900000b8:	db7d6c37          	lui	s8,0xdb7d6
900000bc:	bfdc0c13          	addi	s8,s8,-1027 # db7d5bfd <_end+0x4b7d0ff9>
900000c0:	edbebcb7          	lui	s9,0xedbeb
900000c4:	dfec8c93          	addi	s9,s9,-514 # edbeadfe <_end+0x5dbe61fa>
900000c8:	76df5d37          	lui	s10,0x76df5
900000cc:	6ffd0d13          	addi	s10,s10,1791 # 76df56ff <offset+0x76df545b>
900000d0:	bb6fbdb7          	lui	s11,0xbb6fb
900000d4:	b7fd8d93          	addi	s11,s11,-1153 # bb6fab7f <_end+0x2b6f5f7b>
900000d8:	ddb7de37          	lui	t3,0xddb7d
900000dc:	5bfe0e13          	addi	t3,t3,1471 # ddb7d5bf <_end+0x4db789bb>
900000e0:	eedbfeb7          	lui	t4,0xeedbf
900000e4:	adfe8e93          	addi	t4,t4,-1313 # eedbeadf <_end+0x5edb9edb>
900000e8:	f76dff37          	lui	t5,0xf76df
900000ec:	56ff0f13          	addi	t5,t5,1391 # f76df56f <_end+0x676da96b>
900000f0:	fbb70fb7          	lui	t6,0xfbb70
900000f4:	ab7f8f93          	addi	t6,t6,-1353 # fbb6fab7 <_end+0x6bb6aeb3>

900000f8 <rvtest_code_begin>:
900000f8:	00004397          	auipc	t2,0x4
900000fc:	f1838393          	addi	t2,t2,-232 # 90004010 <begin_signature>

90000100 <inst_0>:
90000100:	40000b93          	li	s7,1024
90000104:	000bbe13          	sltiu	t3,s7,0
90000108:	01c3a023          	sw	t3,0(t2)

9000010c <inst_1>:
9000010c:	00001137          	lui	sp,0x1
90000110:	80010113          	addi	sp,sp,-2048 # 800 <offset+0x55c>
90000114:	fff13113          	sltiu	sp,sp,-1
90000118:	0023a223          	sw	sp,4(t2)

9000011c <inst_2>:
9000011c:	00400193          	li	gp,4
90000120:	0011bc93          	seqz	s9,gp
90000124:	0193a423          	sw	s9,8(t2)

90000128 <inst_3>:
90000128:	00000993          	li	s3,0
9000012c:	0069b593          	sltiu	a1,s3,6
90000130:	00b3a623          	sw	a1,12(t2)

90000134 <inst_4>:
90000134:	fff00713          	li	a4,-1
90000138:	02c73793          	sltiu	a5,a4,44
9000013c:	00f3a823          	sw	a5,16(t2)

90000140 <inst_5>:
90000140:	00100693          	li	a3,1
90000144:	0006b213          	sltiu	tp,a3,0
90000148:	0043aa23          	sw	tp,20(t2)

9000014c <inst_6>:
9000014c:	00d00d13          	li	s10,13
90000150:	00dd3193          	sltiu	gp,s10,13
90000154:	0033ac23          	sw	gp,24(t2)

90000158 <inst_7>:
90000158:	aaaaba37          	lui	s4,0xaaaab
9000015c:	aaaa0a13          	addi	s4,s4,-1366 # aaaaaaaa <_end+0x1aaa5ea6>
90000160:	002a3e93          	sltiu	t4,s4,2
90000164:	01d3ae23          	sw	t4,28(t2)

90000168 <inst_8>:
90000168:	80000db7          	lui	s11,0x80000
9000016c:	fffd8d93          	addi	s11,s11,-1 # 7fffffff <_end+0xefffb3fb>
90000170:	004db813          	sltiu	a6,s11,4
90000174:	0303a023          	sw	a6,32(t2)

90000178 <inst_9>:
90000178:	ff0008b7          	lui	a7,0xff000
9000017c:	fff88893          	addi	a7,a7,-1 # feffffff <_end+0x6effb3fb>
90000180:	0088ba13          	sltiu	s4,a7,8
90000184:	0343a223          	sw	s4,36(t2)

90000188 <inst_10>:
90000188:	00001fb7          	lui	t6,0x1
9000018c:	800f8f93          	addi	t6,t6,-2048 # 800 <offset+0x55c>
90000190:	010fb413          	sltiu	s0,t6,16
90000194:	0283a423          	sw	s0,40(t2)

90000198 <inst_11>:
90000198:	00c00c13          	li	s8,12
9000019c:	020c3b93          	sltiu	s7,s8,32
900001a0:	0373a623          	sw	s7,44(t2)

900001a4 <inst_12>:
900001a4:	55555cb7          	lui	s9,0x55555
900001a8:	555c8c93          	addi	s9,s9,1365 # 55555555 <offset+0x555552b1>
900001ac:	040cbd13          	sltiu	s10,s9,64
900001b0:	03a3a823          	sw	s10,48(t2)

900001b4 <inst_13>:
900001b4:	00080b37          	lui	s6,0x80
900001b8:	080b3313          	sltiu	t1,s6,128
900001bc:	0263aa23          	sw	t1,52(t2)

900001c0 <inst_14>:
900001c0:	ff700613          	li	a2,-9
900001c4:	10063293          	sltiu	t0,a2,256
900001c8:	0253ac23          	sw	t0,56(t2)

900001cc <inst_15>:
900001cc:	800004b7          	lui	s1,0x80000
900001d0:	2004b093          	sltiu	ra,s1,512
900001d4:	0213ae23          	sw	ra,60(t2)

900001d8 <inst_16>:
900001d8:	fffc0e37          	lui	t3,0xfffc0
900001dc:	fffe0e13          	addi	t3,t3,-1 # fffbffff <_end+0x6ffbb3fb>
900001e0:	400e3513          	sltiu	a0,t3,1024
900001e4:	04a3a023          	sw	a0,64(t2)

900001e8 <inst_17>:
900001e8:	00000a93          	li	s5,0
900001ec:	800abf93          	sltiu	t6,s5,-2048
900001f0:	05f3a223          	sw	t6,68(t2)
900001f4:	00004117          	auipc	sp,0x4
900001f8:	e6410113          	addi	sp,sp,-412 # 90004058 <signature_x2_0>

900001fc <inst_18>:
900001fc:	00000013          	nop
90000200:	ffe03a93          	sltiu	s5,zero,-2
90000204:	01512023          	sw	s5,0(sp)

90000208 <inst_19>:
90000208:	01200593          	li	a1,18
9000020c:	ffd5b713          	sltiu	a4,a1,-3
90000210:	00e12223          	sw	a4,4(sp)

90000214 <inst_20>:
90000214:	00600f13          	li	t5,6
90000218:	ffbf3693          	sltiu	a3,t5,-5
9000021c:	00d12423          	sw	a3,8(sp)

90000220 <inst_21>:
90000220:	40000eb7          	lui	t4,0x40000
90000224:	ff7eb893          	sltiu	a7,t4,-9
90000228:	01112623          	sw	a7,12(sp)

9000022c <inst_22>:
9000022c:	fbf00413          	li	s0,-65
90000230:	fef43c13          	sltiu	s8,s0,-17
90000234:	01812823          	sw	s8,16(sp)

90000238 <inst_23>:
90000238:	00500093          	li	ra,5
9000023c:	fdf0bd93          	sltiu	s11,ra,-33
90000240:	01b12a23          	sw	s11,20(sp)

90000244 <inst_24>:
90000244:	00300393          	li	t2,3
90000248:	fbf3bf13          	sltiu	t5,t2,-65
9000024c:	01e12c23          	sw	t5,24(sp)

90000250 <inst_25>:
90000250:	000402b7          	lui	t0,0x40
90000254:	f7f2bb13          	sltiu	s6,t0,-129
90000258:	01612e23          	sw	s6,28(sp)

9000025c <inst_26>:
9000025c:	00e00793          	li	a5,14
90000260:	eff7b013          	sltiu	zero,a5,-257
90000264:	02012023          	sw	zero,32(sp)

90000268 <inst_27>:
90000268:	00300313          	li	t1,3
9000026c:	dff33393          	sltiu	t2,t1,-513
90000270:	02712223          	sw	t2,36(sp)

90000274 <inst_28>:
90000274:	80000937          	lui	s2,0x80000
90000278:	fff90913          	addi	s2,s2,-1 # 7fffffff <_end+0xefffb3fb>
9000027c:	bff93613          	sltiu	a2,s2,-1025
90000280:	02c12423          	sw	a2,40(sp)

90000284 <inst_29>:
90000284:	01000837          	lui	a6,0x1000
90000288:	7ff83913          	sltiu	s2,a6,2047
9000028c:	03212623          	sw	s2,44(sp)

90000290 <inst_30>:
90000290:	fc000237          	lui	tp,0xfc000
90000294:	fff20213          	addi	tp,tp,-1 # fbffffff <_end+0x6bffb3fb>
90000298:	55523493          	sltiu	s1,tp,1365
9000029c:	02912823          	sw	s1,48(sp)

900002a0 <inst_31>:
900002a0:	fffff537          	lui	a0,0xfffff
900002a4:	7ff50513          	addi	a0,a0,2047 # fffff7ff <_end+0x6fffabfb>
900002a8:	aaa53993          	sltiu	s3,a0,-1366
900002ac:	03312a23          	sw	s3,52(sp)

900002b0 <inst_32>:
900002b0:	00200513          	li	a0,2
900002b4:	02053593          	sltiu	a1,a0,32
900002b8:	02b12c23          	sw	a1,56(sp)

900002bc <inst_33>:
900002bc:	00800513          	li	a0,8
900002c0:	08053593          	sltiu	a1,a0,128
900002c4:	02b12e23          	sw	a1,60(sp)

900002c8 <inst_34>:
900002c8:	02000513          	li	a0,32
900002cc:	80053593          	sltiu	a1,a0,-2048
900002d0:	04b12023          	sw	a1,64(sp)

900002d4 <inst_35>:
900002d4:	04000513          	li	a0,64
900002d8:	00253593          	sltiu	a1,a0,2
900002dc:	04b12223          	sw	a1,68(sp)

900002e0 <inst_36>:
900002e0:	08000513          	li	a0,128
900002e4:	ff753593          	sltiu	a1,a0,-9
900002e8:	04b12423          	sw	a1,72(sp)

900002ec <inst_37>:
900002ec:	10000513          	li	a0,256
900002f0:	fdf53593          	sltiu	a1,a0,-33
900002f4:	04b12623          	sw	a1,76(sp)

900002f8 <inst_38>:
900002f8:	20000513          	li	a0,512
900002fc:	ff753593          	sltiu	a1,a0,-9
90000300:	04b12823          	sw	a1,80(sp)

90000304 <inst_39>:
90000304:	00001537          	lui	a0,0x1
90000308:	02e53593          	sltiu	a1,a0,46
9000030c:	04b12a23          	sw	a1,84(sp)

90000310 <inst_40>:
90000310:	00002537          	lui	a0,0x2
90000314:	02e53593          	sltiu	a1,a0,46
90000318:	04b12c23          	sw	a1,88(sp)

9000031c <inst_41>:
9000031c:	00004537          	lui	a0,0x4
90000320:	00753593          	sltiu	a1,a0,7
90000324:	04b12e23          	sw	a1,92(sp)

90000328 <inst_42>:
90000328:	00008537          	lui	a0,0x8
9000032c:	00253593          	sltiu	a1,a0,2
90000330:	06b12023          	sw	a1,96(sp)

90000334 <inst_43>:
90000334:	00010537          	lui	a0,0x10
90000338:	00553593          	sltiu	a1,a0,5
9000033c:	06b12223          	sw	a1,100(sp)

90000340 <inst_44>:
90000340:	00020537          	lui	a0,0x20
90000344:	02e53593          	sltiu	a1,a0,46
90000348:	06b12423          	sw	a1,104(sp)

9000034c <inst_45>:
9000034c:	00100537          	lui	a0,0x100
90000350:	01053593          	sltiu	a1,a0,16
90000354:	06b12623          	sw	a1,108(sp)

90000358 <inst_46>:
90000358:	00200537          	lui	a0,0x200
9000035c:	00553593          	sltiu	a1,a0,5
90000360:	06b12823          	sw	a1,112(sp)

90000364 <inst_47>:
90000364:	00400537          	lui	a0,0x400
90000368:	fdf53593          	sltiu	a1,a0,-33
9000036c:	06b12a23          	sw	a1,116(sp)

90000370 <inst_48>:
90000370:	00800537          	lui	a0,0x800
90000374:	80053593          	sltiu	a1,a0,-2048
90000378:	06b12c23          	sw	a1,120(sp)

9000037c <inst_49>:
9000037c:	02000537          	lui	a0,0x2000
90000380:	00853593          	sltiu	a1,a0,8
90000384:	06b12e23          	sw	a1,124(sp)

90000388 <inst_50>:
90000388:	04000537          	lui	a0,0x4000
9000038c:	80053593          	sltiu	a1,a0,-2048
90000390:	08b12023          	sw	a1,128(sp)

90000394 <inst_51>:
90000394:	08000537          	lui	a0,0x8000
90000398:	00c53593          	sltiu	a1,a0,12
9000039c:	08b12223          	sw	a1,132(sp)

900003a0 <inst_52>:
900003a0:	10000537          	lui	a0,0x10000
900003a4:	fbf53593          	sltiu	a1,a0,-65
900003a8:	08b12423          	sw	a1,136(sp)

900003ac <inst_53>:
900003ac:	20000537          	lui	a0,0x20000
900003b0:	01053593          	sltiu	a1,a0,16
900003b4:	08b12623          	sw	a1,140(sp)

900003b8 <inst_54>:
900003b8:	ffe00513          	li	a0,-2
900003bc:	fef53593          	sltiu	a1,a0,-17
900003c0:	08b12823          	sw	a1,144(sp)

900003c4 <inst_55>:
900003c4:	ffd00513          	li	a0,-3
900003c8:	fff53593          	sltiu	a1,a0,-1
900003cc:	08b12a23          	sw	a1,148(sp)

900003d0 <inst_56>:
900003d0:	ffb00513          	li	a0,-5
900003d4:	02053593          	sltiu	a1,a0,32
900003d8:	08b12c23          	sw	a1,152(sp)

900003dc <inst_57>:
900003dc:	fef00513          	li	a0,-17
900003e0:	fff53593          	sltiu	a1,a0,-1
900003e4:	08b12e23          	sw	a1,156(sp)

900003e8 <inst_58>:
900003e8:	fdf00513          	li	a0,-33
900003ec:	eff53593          	sltiu	a1,a0,-257
900003f0:	0ab12023          	sw	a1,160(sp)

900003f4 <inst_59>:
900003f4:	f7f00513          	li	a0,-129
900003f8:	01053593          	sltiu	a1,a0,16
900003fc:	0ab12223          	sw	a1,164(sp)

90000400 <inst_60>:
90000400:	eff00513          	li	a0,-257
90000404:	00453593          	sltiu	a1,a0,4
90000408:	0ab12423          	sw	a1,168(sp)

9000040c <inst_61>:
9000040c:	dff00513          	li	a0,-513
90000410:	02d53593          	sltiu	a1,a0,45
90000414:	0ab12623          	sw	a1,172(sp)

90000418 <inst_62>:
90000418:	bff00513          	li	a0,-1025
9000041c:	00f53593          	sltiu	a1,a0,15
90000420:	0ab12823          	sw	a1,176(sp)

90000424 <inst_63>:
90000424:	fffff537          	lui	a0,0xfffff
90000428:	fff50513          	addi	a0,a0,-1 # ffffefff <_end+0x6fffa3fb>
9000042c:	02e53593          	sltiu	a1,a0,46
90000430:	0ab12a23          	sw	a1,180(sp)

90000434 <inst_64>:
90000434:	ffffe537          	lui	a0,0xffffe
90000438:	fff50513          	addi	a0,a0,-1 # ffffdfff <_end+0x6fff93fb>
9000043c:	00d53593          	sltiu	a1,a0,13
90000440:	0ab12c23          	sw	a1,184(sp)

90000444 <inst_65>:
90000444:	ffffc537          	lui	a0,0xffffc
90000448:	fff50513          	addi	a0,a0,-1 # ffffbfff <_end+0x6fff73fb>
9000044c:	33353593          	sltiu	a1,a0,819
90000450:	0ab12e23          	sw	a1,188(sp)

90000454 <inst_66>:
90000454:	ffff8537          	lui	a0,0xffff8
90000458:	fff50513          	addi	a0,a0,-1 # ffff7fff <_end+0x6fff33fb>
9000045c:	00153593          	seqz	a1,a0
90000460:	0cb12023          	sw	a1,192(sp)

90000464 <inst_67>:
90000464:	ffff0537          	lui	a0,0xffff0
90000468:	fff50513          	addi	a0,a0,-1 # fffeffff <_end+0x6ffeb3fb>
9000046c:	04053593          	sltiu	a1,a0,64
90000470:	0cb12223          	sw	a1,196(sp)

90000474 <inst_68>:
90000474:	fffe0537          	lui	a0,0xfffe0
90000478:	fff50513          	addi	a0,a0,-1 # fffdffff <_end+0x6ffdb3fb>
9000047c:	00553593          	sltiu	a1,a0,5
90000480:	0cb12423          	sw	a1,200(sp)

90000484 <inst_69>:
90000484:	fff80537          	lui	a0,0xfff80
90000488:	fff50513          	addi	a0,a0,-1 # fff7ffff <_end+0x6ff7b3fb>
9000048c:	00453593          	sltiu	a1,a0,4
90000490:	0cb12623          	sw	a1,204(sp)

90000494 <inst_70>:
90000494:	fff00537          	lui	a0,0xfff00
90000498:	fff50513          	addi	a0,a0,-1 # ffefffff <_end+0x6fefb3fb>
9000049c:	55553593          	sltiu	a1,a0,1365
900004a0:	0cb12823          	sw	a1,208(sp)

900004a4 <inst_71>:
900004a4:	ffe00537          	lui	a0,0xffe00
900004a8:	fff50513          	addi	a0,a0,-1 # ffdfffff <_end+0x6fdfb3fb>
900004ac:	00253593          	sltiu	a1,a0,2
900004b0:	0cb12a23          	sw	a1,212(sp)

900004b4 <inst_72>:
900004b4:	ffc00537          	lui	a0,0xffc00
900004b8:	fff50513          	addi	a0,a0,-1 # ffbfffff <_end+0x6fbfb3fb>
900004bc:	55653593          	sltiu	a1,a0,1366
900004c0:	0cb12c23          	sw	a1,216(sp)

900004c4 <inst_73>:
900004c4:	ff800537          	lui	a0,0xff800
900004c8:	fff50513          	addi	a0,a0,-1 # ff7fffff <_end+0x6f7fb3fb>
900004cc:	ffe53593          	sltiu	a1,a0,-2
900004d0:	0cb12e23          	sw	a1,220(sp)

900004d4 <inst_74>:
900004d4:	fe000537          	lui	a0,0xfe000
900004d8:	fff50513          	addi	a0,a0,-1 # fdffffff <_end+0x6dffb3fb>
900004dc:	00d53593          	sltiu	a1,a0,13
900004e0:	0eb12023          	sw	a1,224(sp)

900004e4 <inst_75>:
900004e4:	f8000537          	lui	a0,0xf8000
900004e8:	fff50513          	addi	a0,a0,-1 # f7ffffff <_end+0x67ffb3fb>
900004ec:	80053593          	sltiu	a1,a0,-2048
900004f0:	0eb12223          	sw	a1,228(sp)

900004f4 <inst_76>:
900004f4:	f0000537          	lui	a0,0xf0000
900004f8:	fff50513          	addi	a0,a0,-1 # efffffff <_end+0x5fffb3fb>
900004fc:	00653593          	sltiu	a1,a0,6
90000500:	0eb12423          	sw	a1,232(sp)

90000504 <inst_77>:
90000504:	e0000537          	lui	a0,0xe0000
90000508:	fff50513          	addi	a0,a0,-1 # dfffffff <_end+0x4fffb3fb>
9000050c:	04053593          	sltiu	a1,a0,64
90000510:	0eb12623          	sw	a1,236(sp)

90000514 <inst_78>:
90000514:	c0000537          	lui	a0,0xc0000
90000518:	fff50513          	addi	a0,a0,-1 # bfffffff <_end+0x2fffb3fb>
9000051c:	00653593          	sltiu	a1,a0,6
90000520:	0eb12823          	sw	a1,240(sp)

90000524 <inst_79>:
90000524:	00300513          	li	a0,3
90000528:	00353593          	sltiu	a1,a0,3
9000052c:	0eb12a23          	sw	a1,244(sp)

90000530 <inst_80>:
90000530:	00300513          	li	a0,3
90000534:	55553593          	sltiu	a1,a0,1365
90000538:	0eb12c23          	sw	a1,248(sp)

9000053c <inst_81>:
9000053c:	00300513          	li	a0,3
90000540:	aaa53593          	sltiu	a1,a0,-1366
90000544:	0eb12e23          	sw	a1,252(sp)

90000548 <inst_82>:
90000548:	00300513          	li	a0,3
9000054c:	00553593          	sltiu	a1,a0,5
90000550:	10b12023          	sw	a1,256(sp)

90000554 <inst_83>:
90000554:	00300513          	li	a0,3
90000558:	33353593          	sltiu	a1,a0,819
9000055c:	10b12223          	sw	a1,260(sp)

90000560 <inst_84>:
90000560:	00300513          	li	a0,3
90000564:	66653593          	sltiu	a1,a0,1638
90000568:	10b12423          	sw	a1,264(sp)

9000056c <inst_85>:
9000056c:	00300513          	li	a0,3
90000570:	02d53593          	sltiu	a1,a0,45
90000574:	10b12623          	sw	a1,268(sp)

90000578 <inst_86>:
90000578:	00300513          	li	a0,3
9000057c:	00053593          	sltiu	a1,a0,0
90000580:	10b12823          	sw	a1,272(sp)

90000584 <inst_87>:
90000584:	00300513          	li	a0,3
90000588:	03f53593          	sltiu	a1,a0,63
9000058c:	10b12a23          	sw	a1,276(sp)

90000590 <inst_88>:
90000590:	00300513          	li	a0,3
90000594:	00253593          	sltiu	a1,a0,2
90000598:	10b12c23          	sw	a1,280(sp)

9000059c <inst_89>:
9000059c:	00300513          	li	a0,3
900005a0:	55453593          	sltiu	a1,a0,1364
900005a4:	10b12e23          	sw	a1,284(sp)

900005a8 <inst_90>:
900005a8:	00300513          	li	a0,3
900005ac:	aa953593          	sltiu	a1,a0,-1367
900005b0:	12b12023          	sw	a1,288(sp)

900005b4 <inst_91>:
900005b4:	00300513          	li	a0,3
900005b8:	00453593          	sltiu	a1,a0,4
900005bc:	12b12223          	sw	a1,292(sp)

900005c0 <inst_92>:
900005c0:	00300513          	li	a0,3
900005c4:	33253593          	sltiu	a1,a0,818
900005c8:	12b12423          	sw	a1,296(sp)

900005cc <inst_93>:
900005cc:	00300513          	li	a0,3
900005d0:	66553593          	sltiu	a1,a0,1637
900005d4:	12b12623          	sw	a1,300(sp)

900005d8 <inst_94>:
900005d8:	00300513          	li	a0,3
900005dc:	02c53593          	sltiu	a1,a0,44
900005e0:	12b12823          	sw	a1,304(sp)

900005e4 <inst_95>:
900005e4:	00300513          	li	a0,3
900005e8:	03e53593          	sltiu	a1,a0,62
900005ec:	12b12a23          	sw	a1,308(sp)

900005f0 <inst_96>:
900005f0:	00300513          	li	a0,3
900005f4:	55653593          	sltiu	a1,a0,1366
900005f8:	12b12c23          	sw	a1,312(sp)

900005fc <inst_97>:
900005fc:	00300513          	li	a0,3
90000600:	aab53593          	sltiu	a1,a0,-1365
90000604:	12b12e23          	sw	a1,316(sp)

90000608 <inst_98>:
90000608:	00300513          	li	a0,3
9000060c:	00653593          	sltiu	a1,a0,6
90000610:	14b12023          	sw	a1,320(sp)

90000614 <inst_99>:
90000614:	00300513          	li	a0,3
90000618:	33453593          	sltiu	a1,a0,820
9000061c:	14b12223          	sw	a1,324(sp)

90000620 <inst_100>:
90000620:	00300513          	li	a0,3
90000624:	66753593          	sltiu	a1,a0,1639
90000628:	14b12423          	sw	a1,328(sp)

9000062c <inst_101>:
9000062c:	00300513          	li	a0,3
90000630:	02e53593          	sltiu	a1,a0,46
90000634:	14b12623          	sw	a1,332(sp)

90000638 <inst_102>:
90000638:	00300513          	li	a0,3
9000063c:	00153593          	seqz	a1,a0
90000640:	14b12823          	sw	a1,336(sp)

90000644 <inst_103>:
90000644:	00300513          	li	a0,3
90000648:	04053593          	sltiu	a1,a0,64
9000064c:	14b12a23          	sw	a1,340(sp)

90000650 <inst_104>:
90000650:	55555537          	lui	a0,0x55555
90000654:	55550513          	addi	a0,a0,1365 # 55555555 <offset+0x555552b1>
90000658:	00353593          	sltiu	a1,a0,3
9000065c:	14b12c23          	sw	a1,344(sp)

90000660 <inst_105>:
90000660:	55555537          	lui	a0,0x55555
90000664:	55550513          	addi	a0,a0,1365 # 55555555 <offset+0x555552b1>
90000668:	55553593          	sltiu	a1,a0,1365
9000066c:	14b12e23          	sw	a1,348(sp)

90000670 <inst_106>:
90000670:	55555537          	lui	a0,0x55555
90000674:	55550513          	addi	a0,a0,1365 # 55555555 <offset+0x555552b1>
90000678:	aaa53593          	sltiu	a1,a0,-1366
9000067c:	16b12023          	sw	a1,352(sp)

90000680 <inst_107>:
90000680:	55555537          	lui	a0,0x55555
90000684:	55550513          	addi	a0,a0,1365 # 55555555 <offset+0x555552b1>
90000688:	00553593          	sltiu	a1,a0,5
9000068c:	16b12223          	sw	a1,356(sp)

90000690 <inst_108>:
90000690:	55555537          	lui	a0,0x55555
90000694:	55550513          	addi	a0,a0,1365 # 55555555 <offset+0x555552b1>
90000698:	33353593          	sltiu	a1,a0,819
9000069c:	16b12423          	sw	a1,360(sp)

900006a0 <inst_109>:
900006a0:	55555537          	lui	a0,0x55555
900006a4:	55550513          	addi	a0,a0,1365 # 55555555 <offset+0x555552b1>
900006a8:	66653593          	sltiu	a1,a0,1638
900006ac:	16b12623          	sw	a1,364(sp)

900006b0 <inst_110>:
900006b0:	55555537          	lui	a0,0x55555
900006b4:	55550513          	addi	a0,a0,1365 # 55555555 <offset+0x555552b1>
900006b8:	02d53593          	sltiu	a1,a0,45
900006bc:	16b12823          	sw	a1,368(sp)

900006c0 <inst_111>:
900006c0:	55555537          	lui	a0,0x55555
900006c4:	55550513          	addi	a0,a0,1365 # 55555555 <offset+0x555552b1>
900006c8:	00053593          	sltiu	a1,a0,0
900006cc:	16b12a23          	sw	a1,372(sp)

900006d0 <inst_112>:
900006d0:	55555537          	lui	a0,0x55555
900006d4:	55550513          	addi	a0,a0,1365 # 55555555 <offset+0x555552b1>
900006d8:	03f53593          	sltiu	a1,a0,63
900006dc:	16b12c23          	sw	a1,376(sp)

900006e0 <inst_113>:
900006e0:	55555537          	lui	a0,0x55555
900006e4:	55550513          	addi	a0,a0,1365 # 55555555 <offset+0x555552b1>
900006e8:	00253593          	sltiu	a1,a0,2
900006ec:	16b12e23          	sw	a1,380(sp)

900006f0 <inst_114>:
900006f0:	55555537          	lui	a0,0x55555
900006f4:	55550513          	addi	a0,a0,1365 # 55555555 <offset+0x555552b1>
900006f8:	55453593          	sltiu	a1,a0,1364
900006fc:	18b12023          	sw	a1,384(sp)

90000700 <inst_115>:
90000700:	55555537          	lui	a0,0x55555
90000704:	55550513          	addi	a0,a0,1365 # 55555555 <offset+0x555552b1>
90000708:	aa953593          	sltiu	a1,a0,-1367
9000070c:	18b12223          	sw	a1,388(sp)

90000710 <inst_116>:
90000710:	55555537          	lui	a0,0x55555
90000714:	55550513          	addi	a0,a0,1365 # 55555555 <offset+0x555552b1>
90000718:	00453593          	sltiu	a1,a0,4
9000071c:	18b12423          	sw	a1,392(sp)

90000720 <inst_117>:
90000720:	55555537          	lui	a0,0x55555
90000724:	55550513          	addi	a0,a0,1365 # 55555555 <offset+0x555552b1>
90000728:	33253593          	sltiu	a1,a0,818
9000072c:	18b12623          	sw	a1,396(sp)

90000730 <inst_118>:
90000730:	55555537          	lui	a0,0x55555
90000734:	55550513          	addi	a0,a0,1365 # 55555555 <offset+0x555552b1>
90000738:	66553593          	sltiu	a1,a0,1637
9000073c:	18b12823          	sw	a1,400(sp)

90000740 <inst_119>:
90000740:	55555537          	lui	a0,0x55555
90000744:	55550513          	addi	a0,a0,1365 # 55555555 <offset+0x555552b1>
90000748:	02c53593          	sltiu	a1,a0,44
9000074c:	18b12a23          	sw	a1,404(sp)

90000750 <inst_120>:
90000750:	55555537          	lui	a0,0x55555
90000754:	55550513          	addi	a0,a0,1365 # 55555555 <offset+0x555552b1>
90000758:	03e53593          	sltiu	a1,a0,62
9000075c:	18b12c23          	sw	a1,408(sp)

90000760 <inst_121>:
90000760:	55555537          	lui	a0,0x55555
90000764:	55550513          	addi	a0,a0,1365 # 55555555 <offset+0x555552b1>
90000768:	55653593          	sltiu	a1,a0,1366
9000076c:	18b12e23          	sw	a1,412(sp)

90000770 <inst_122>:
90000770:	55555537          	lui	a0,0x55555
90000774:	55550513          	addi	a0,a0,1365 # 55555555 <offset+0x555552b1>
90000778:	aab53593          	sltiu	a1,a0,-1365
9000077c:	1ab12023          	sw	a1,416(sp)

90000780 <inst_123>:
90000780:	55555537          	lui	a0,0x55555
90000784:	55550513          	addi	a0,a0,1365 # 55555555 <offset+0x555552b1>
90000788:	00653593          	sltiu	a1,a0,6
9000078c:	1ab12223          	sw	a1,420(sp)

90000790 <inst_124>:
90000790:	55555537          	lui	a0,0x55555
90000794:	55550513          	addi	a0,a0,1365 # 55555555 <offset+0x555552b1>
90000798:	33453593          	sltiu	a1,a0,820
9000079c:	1ab12423          	sw	a1,424(sp)

900007a0 <inst_125>:
900007a0:	55555537          	lui	a0,0x55555
900007a4:	55550513          	addi	a0,a0,1365 # 55555555 <offset+0x555552b1>
900007a8:	66753593          	sltiu	a1,a0,1639
900007ac:	1ab12623          	sw	a1,428(sp)

900007b0 <inst_126>:
900007b0:	55555537          	lui	a0,0x55555
900007b4:	55550513          	addi	a0,a0,1365 # 55555555 <offset+0x555552b1>
900007b8:	02e53593          	sltiu	a1,a0,46
900007bc:	1ab12823          	sw	a1,432(sp)

900007c0 <inst_127>:
900007c0:	55555537          	lui	a0,0x55555
900007c4:	55550513          	addi	a0,a0,1365 # 55555555 <offset+0x555552b1>
900007c8:	00153593          	seqz	a1,a0
900007cc:	1ab12a23          	sw	a1,436(sp)

900007d0 <inst_128>:
900007d0:	aaaab537          	lui	a0,0xaaaab
900007d4:	aaa50513          	addi	a0,a0,-1366 # aaaaaaaa <_end+0x1aaa5ea6>
900007d8:	00353593          	sltiu	a1,a0,3
900007dc:	1ab12c23          	sw	a1,440(sp)

900007e0 <inst_129>:
900007e0:	aaaab537          	lui	a0,0xaaaab
900007e4:	aaa50513          	addi	a0,a0,-1366 # aaaaaaaa <_end+0x1aaa5ea6>
900007e8:	55553593          	sltiu	a1,a0,1365
900007ec:	1ab12e23          	sw	a1,444(sp)

900007f0 <inst_130>:
900007f0:	aaaab537          	lui	a0,0xaaaab
900007f4:	aaa50513          	addi	a0,a0,-1366 # aaaaaaaa <_end+0x1aaa5ea6>
900007f8:	aaa53593          	sltiu	a1,a0,-1366
900007fc:	1cb12023          	sw	a1,448(sp)

90000800 <inst_131>:
90000800:	aaaab537          	lui	a0,0xaaaab
90000804:	aaa50513          	addi	a0,a0,-1366 # aaaaaaaa <_end+0x1aaa5ea6>
90000808:	00553593          	sltiu	a1,a0,5
9000080c:	1cb12223          	sw	a1,452(sp)

90000810 <inst_132>:
90000810:	aaaab537          	lui	a0,0xaaaab
90000814:	aaa50513          	addi	a0,a0,-1366 # aaaaaaaa <_end+0x1aaa5ea6>
90000818:	33353593          	sltiu	a1,a0,819
9000081c:	1cb12423          	sw	a1,456(sp)

90000820 <inst_133>:
90000820:	aaaab537          	lui	a0,0xaaaab
90000824:	aaa50513          	addi	a0,a0,-1366 # aaaaaaaa <_end+0x1aaa5ea6>
90000828:	66653593          	sltiu	a1,a0,1638
9000082c:	1cb12623          	sw	a1,460(sp)

90000830 <inst_134>:
90000830:	aaaab537          	lui	a0,0xaaaab
90000834:	aaa50513          	addi	a0,a0,-1366 # aaaaaaaa <_end+0x1aaa5ea6>
90000838:	02d53593          	sltiu	a1,a0,45
9000083c:	1cb12823          	sw	a1,464(sp)

90000840 <inst_135>:
90000840:	aaaab537          	lui	a0,0xaaaab
90000844:	aaa50513          	addi	a0,a0,-1366 # aaaaaaaa <_end+0x1aaa5ea6>
90000848:	00053593          	sltiu	a1,a0,0
9000084c:	1cb12a23          	sw	a1,468(sp)

90000850 <inst_136>:
90000850:	aaaab537          	lui	a0,0xaaaab
90000854:	aaa50513          	addi	a0,a0,-1366 # aaaaaaaa <_end+0x1aaa5ea6>
90000858:	03f53593          	sltiu	a1,a0,63
9000085c:	1cb12c23          	sw	a1,472(sp)

90000860 <inst_137>:
90000860:	aaaab537          	lui	a0,0xaaaab
90000864:	aaa50513          	addi	a0,a0,-1366 # aaaaaaaa <_end+0x1aaa5ea6>
90000868:	55453593          	sltiu	a1,a0,1364
9000086c:	1cb12e23          	sw	a1,476(sp)

90000870 <inst_138>:
90000870:	aaaab537          	lui	a0,0xaaaab
90000874:	aaa50513          	addi	a0,a0,-1366 # aaaaaaaa <_end+0x1aaa5ea6>
90000878:	aa953593          	sltiu	a1,a0,-1367
9000087c:	1eb12023          	sw	a1,480(sp)

90000880 <inst_139>:
90000880:	aaaab537          	lui	a0,0xaaaab
90000884:	aaa50513          	addi	a0,a0,-1366 # aaaaaaaa <_end+0x1aaa5ea6>
90000888:	00453593          	sltiu	a1,a0,4
9000088c:	1eb12223          	sw	a1,484(sp)

90000890 <inst_140>:
90000890:	aaaab537          	lui	a0,0xaaaab
90000894:	aaa50513          	addi	a0,a0,-1366 # aaaaaaaa <_end+0x1aaa5ea6>
90000898:	33253593          	sltiu	a1,a0,818
9000089c:	1eb12423          	sw	a1,488(sp)

900008a0 <inst_141>:
900008a0:	aaaab537          	lui	a0,0xaaaab
900008a4:	aaa50513          	addi	a0,a0,-1366 # aaaaaaaa <_end+0x1aaa5ea6>
900008a8:	66553593          	sltiu	a1,a0,1637
900008ac:	1eb12623          	sw	a1,492(sp)

900008b0 <inst_142>:
900008b0:	aaaab537          	lui	a0,0xaaaab
900008b4:	aaa50513          	addi	a0,a0,-1366 # aaaaaaaa <_end+0x1aaa5ea6>
900008b8:	02c53593          	sltiu	a1,a0,44
900008bc:	1eb12823          	sw	a1,496(sp)

900008c0 <inst_143>:
900008c0:	aaaab537          	lui	a0,0xaaaab
900008c4:	aaa50513          	addi	a0,a0,-1366 # aaaaaaaa <_end+0x1aaa5ea6>
900008c8:	03e53593          	sltiu	a1,a0,62
900008cc:	1eb12a23          	sw	a1,500(sp)

900008d0 <inst_144>:
900008d0:	aaaab537          	lui	a0,0xaaaab
900008d4:	aaa50513          	addi	a0,a0,-1366 # aaaaaaaa <_end+0x1aaa5ea6>
900008d8:	55653593          	sltiu	a1,a0,1366
900008dc:	1eb12c23          	sw	a1,504(sp)

900008e0 <inst_145>:
900008e0:	aaaab537          	lui	a0,0xaaaab
900008e4:	aaa50513          	addi	a0,a0,-1366 # aaaaaaaa <_end+0x1aaa5ea6>
900008e8:	aab53593          	sltiu	a1,a0,-1365
900008ec:	1eb12e23          	sw	a1,508(sp)

900008f0 <inst_146>:
900008f0:	aaaab537          	lui	a0,0xaaaab
900008f4:	aaa50513          	addi	a0,a0,-1366 # aaaaaaaa <_end+0x1aaa5ea6>
900008f8:	00653593          	sltiu	a1,a0,6
900008fc:	20b12023          	sw	a1,512(sp)

90000900 <inst_147>:
90000900:	aaaab537          	lui	a0,0xaaaab
90000904:	aaa50513          	addi	a0,a0,-1366 # aaaaaaaa <_end+0x1aaa5ea6>
90000908:	33453593          	sltiu	a1,a0,820
9000090c:	20b12223          	sw	a1,516(sp)

90000910 <inst_148>:
90000910:	aaaab537          	lui	a0,0xaaaab
90000914:	aaa50513          	addi	a0,a0,-1366 # aaaaaaaa <_end+0x1aaa5ea6>
90000918:	66753593          	sltiu	a1,a0,1639
9000091c:	20b12423          	sw	a1,520(sp)

90000920 <inst_149>:
90000920:	aaaab537          	lui	a0,0xaaaab
90000924:	aaa50513          	addi	a0,a0,-1366 # aaaaaaaa <_end+0x1aaa5ea6>
90000928:	02e53593          	sltiu	a1,a0,46
9000092c:	20b12623          	sw	a1,524(sp)

90000930 <inst_150>:
90000930:	aaaab537          	lui	a0,0xaaaab
90000934:	aaa50513          	addi	a0,a0,-1366 # aaaaaaaa <_end+0x1aaa5ea6>
90000938:	00153593          	seqz	a1,a0
9000093c:	20b12823          	sw	a1,528(sp)

90000940 <inst_151>:
90000940:	aaaab537          	lui	a0,0xaaaab
90000944:	aaa50513          	addi	a0,a0,-1366 # aaaaaaaa <_end+0x1aaa5ea6>
90000948:	04053593          	sltiu	a1,a0,64
9000094c:	20b12a23          	sw	a1,532(sp)

90000950 <inst_152>:
90000950:	00500513          	li	a0,5
90000954:	00353593          	sltiu	a1,a0,3
90000958:	20b12c23          	sw	a1,536(sp)

9000095c <inst_153>:
9000095c:	00500513          	li	a0,5
90000960:	55553593          	sltiu	a1,a0,1365
90000964:	20b12e23          	sw	a1,540(sp)

90000968 <inst_154>:
90000968:	00500513          	li	a0,5
9000096c:	aaa53593          	sltiu	a1,a0,-1366
90000970:	22b12023          	sw	a1,544(sp)

90000974 <inst_155>:
90000974:	00500513          	li	a0,5
90000978:	00553593          	sltiu	a1,a0,5
9000097c:	22b12223          	sw	a1,548(sp)

90000980 <inst_156>:
90000980:	00500513          	li	a0,5
90000984:	33353593          	sltiu	a1,a0,819
90000988:	22b12423          	sw	a1,552(sp)

9000098c <inst_157>:
9000098c:	00500513          	li	a0,5
90000990:	66653593          	sltiu	a1,a0,1638
90000994:	22b12623          	sw	a1,556(sp)

90000998 <inst_158>:
90000998:	00500513          	li	a0,5
9000099c:	02d53593          	sltiu	a1,a0,45
900009a0:	22b12823          	sw	a1,560(sp)

900009a4 <inst_159>:
900009a4:	00500513          	li	a0,5
900009a8:	00053593          	sltiu	a1,a0,0
900009ac:	22b12a23          	sw	a1,564(sp)

900009b0 <inst_160>:
900009b0:	00500513          	li	a0,5
900009b4:	03f53593          	sltiu	a1,a0,63
900009b8:	22b12c23          	sw	a1,568(sp)

900009bc <inst_161>:
900009bc:	00500513          	li	a0,5
900009c0:	00253593          	sltiu	a1,a0,2
900009c4:	22b12e23          	sw	a1,572(sp)

900009c8 <inst_162>:
900009c8:	00500513          	li	a0,5
900009cc:	55453593          	sltiu	a1,a0,1364
900009d0:	24b12023          	sw	a1,576(sp)

900009d4 <inst_163>:
900009d4:	00500513          	li	a0,5
900009d8:	aa953593          	sltiu	a1,a0,-1367
900009dc:	24b12223          	sw	a1,580(sp)

900009e0 <inst_164>:
900009e0:	00500513          	li	a0,5
900009e4:	00453593          	sltiu	a1,a0,4
900009e8:	24b12423          	sw	a1,584(sp)

900009ec <inst_165>:
900009ec:	00500513          	li	a0,5
900009f0:	33253593          	sltiu	a1,a0,818
900009f4:	24b12623          	sw	a1,588(sp)

900009f8 <inst_166>:
900009f8:	00500513          	li	a0,5
900009fc:	66553593          	sltiu	a1,a0,1637
90000a00:	24b12823          	sw	a1,592(sp)

90000a04 <inst_167>:
90000a04:	00500513          	li	a0,5
90000a08:	02c53593          	sltiu	a1,a0,44
90000a0c:	24b12a23          	sw	a1,596(sp)

90000a10 <inst_168>:
90000a10:	00500513          	li	a0,5
90000a14:	03e53593          	sltiu	a1,a0,62
90000a18:	24b12c23          	sw	a1,600(sp)

90000a1c <inst_169>:
90000a1c:	00500513          	li	a0,5
90000a20:	55653593          	sltiu	a1,a0,1366
90000a24:	24b12e23          	sw	a1,604(sp)

90000a28 <inst_170>:
90000a28:	00500513          	li	a0,5
90000a2c:	aab53593          	sltiu	a1,a0,-1365
90000a30:	26b12023          	sw	a1,608(sp)

90000a34 <inst_171>:
90000a34:	00500513          	li	a0,5
90000a38:	00653593          	sltiu	a1,a0,6
90000a3c:	26b12223          	sw	a1,612(sp)

90000a40 <inst_172>:
90000a40:	00500513          	li	a0,5
90000a44:	33453593          	sltiu	a1,a0,820
90000a48:	26b12423          	sw	a1,616(sp)

90000a4c <inst_173>:
90000a4c:	00500513          	li	a0,5
90000a50:	66753593          	sltiu	a1,a0,1639
90000a54:	26b12623          	sw	a1,620(sp)

90000a58 <inst_174>:
90000a58:	00500513          	li	a0,5
90000a5c:	02e53593          	sltiu	a1,a0,46
90000a60:	26b12823          	sw	a1,624(sp)

90000a64 <inst_175>:
90000a64:	00500513          	li	a0,5
90000a68:	00153593          	seqz	a1,a0
90000a6c:	26b12a23          	sw	a1,628(sp)

90000a70 <inst_176>:
90000a70:	00500513          	li	a0,5
90000a74:	04053593          	sltiu	a1,a0,64
90000a78:	26b12c23          	sw	a1,632(sp)

90000a7c <inst_177>:
90000a7c:	33333537          	lui	a0,0x33333
90000a80:	33350513          	addi	a0,a0,819 # 33333333 <offset+0x3333308f>
90000a84:	00353593          	sltiu	a1,a0,3
90000a88:	26b12e23          	sw	a1,636(sp)

90000a8c <inst_178>:
90000a8c:	33333537          	lui	a0,0x33333
90000a90:	33350513          	addi	a0,a0,819 # 33333333 <offset+0x3333308f>
90000a94:	55553593          	sltiu	a1,a0,1365
90000a98:	28b12023          	sw	a1,640(sp)

90000a9c <inst_179>:
90000a9c:	33333537          	lui	a0,0x33333
90000aa0:	33350513          	addi	a0,a0,819 # 33333333 <offset+0x3333308f>
90000aa4:	aaa53593          	sltiu	a1,a0,-1366
90000aa8:	28b12223          	sw	a1,644(sp)

90000aac <inst_180>:
90000aac:	33333537          	lui	a0,0x33333
90000ab0:	33350513          	addi	a0,a0,819 # 33333333 <offset+0x3333308f>
90000ab4:	00553593          	sltiu	a1,a0,5
90000ab8:	28b12423          	sw	a1,648(sp)

90000abc <inst_181>:
90000abc:	33333537          	lui	a0,0x33333
90000ac0:	33350513          	addi	a0,a0,819 # 33333333 <offset+0x3333308f>
90000ac4:	33353593          	sltiu	a1,a0,819
90000ac8:	28b12623          	sw	a1,652(sp)

90000acc <inst_182>:
90000acc:	33333537          	lui	a0,0x33333
90000ad0:	33350513          	addi	a0,a0,819 # 33333333 <offset+0x3333308f>
90000ad4:	66653593          	sltiu	a1,a0,1638
90000ad8:	28b12823          	sw	a1,656(sp)

90000adc <inst_183>:
90000adc:	33333537          	lui	a0,0x33333
90000ae0:	33350513          	addi	a0,a0,819 # 33333333 <offset+0x3333308f>
90000ae4:	02d53593          	sltiu	a1,a0,45
90000ae8:	28b12a23          	sw	a1,660(sp)

90000aec <inst_184>:
90000aec:	33333537          	lui	a0,0x33333
90000af0:	33350513          	addi	a0,a0,819 # 33333333 <offset+0x3333308f>
90000af4:	00053593          	sltiu	a1,a0,0
90000af8:	28b12c23          	sw	a1,664(sp)

90000afc <inst_185>:
90000afc:	33333537          	lui	a0,0x33333
90000b00:	33350513          	addi	a0,a0,819 # 33333333 <offset+0x3333308f>
90000b04:	03f53593          	sltiu	a1,a0,63
90000b08:	28b12e23          	sw	a1,668(sp)

90000b0c <inst_186>:
90000b0c:	33333537          	lui	a0,0x33333
90000b10:	33350513          	addi	a0,a0,819 # 33333333 <offset+0x3333308f>
90000b14:	00253593          	sltiu	a1,a0,2
90000b18:	2ab12023          	sw	a1,672(sp)

90000b1c <inst_187>:
90000b1c:	33333537          	lui	a0,0x33333
90000b20:	33350513          	addi	a0,a0,819 # 33333333 <offset+0x3333308f>
90000b24:	55453593          	sltiu	a1,a0,1364
90000b28:	2ab12223          	sw	a1,676(sp)

90000b2c <inst_188>:
90000b2c:	33333537          	lui	a0,0x33333
90000b30:	33350513          	addi	a0,a0,819 # 33333333 <offset+0x3333308f>
90000b34:	aa953593          	sltiu	a1,a0,-1367
90000b38:	2ab12423          	sw	a1,680(sp)

90000b3c <inst_189>:
90000b3c:	33333537          	lui	a0,0x33333
90000b40:	33350513          	addi	a0,a0,819 # 33333333 <offset+0x3333308f>
90000b44:	00453593          	sltiu	a1,a0,4
90000b48:	2ab12623          	sw	a1,684(sp)

90000b4c <inst_190>:
90000b4c:	33333537          	lui	a0,0x33333
90000b50:	33350513          	addi	a0,a0,819 # 33333333 <offset+0x3333308f>
90000b54:	33253593          	sltiu	a1,a0,818
90000b58:	2ab12823          	sw	a1,688(sp)

90000b5c <inst_191>:
90000b5c:	33333537          	lui	a0,0x33333
90000b60:	33350513          	addi	a0,a0,819 # 33333333 <offset+0x3333308f>
90000b64:	66553593          	sltiu	a1,a0,1637
90000b68:	2ab12a23          	sw	a1,692(sp)

90000b6c <inst_192>:
90000b6c:	33333537          	lui	a0,0x33333
90000b70:	33350513          	addi	a0,a0,819 # 33333333 <offset+0x3333308f>
90000b74:	02c53593          	sltiu	a1,a0,44
90000b78:	2ab12c23          	sw	a1,696(sp)

90000b7c <inst_193>:
90000b7c:	33333537          	lui	a0,0x33333
90000b80:	33350513          	addi	a0,a0,819 # 33333333 <offset+0x3333308f>
90000b84:	03e53593          	sltiu	a1,a0,62
90000b88:	2ab12e23          	sw	a1,700(sp)

90000b8c <inst_194>:
90000b8c:	33333537          	lui	a0,0x33333
90000b90:	33350513          	addi	a0,a0,819 # 33333333 <offset+0x3333308f>
90000b94:	55653593          	sltiu	a1,a0,1366
90000b98:	2cb12023          	sw	a1,704(sp)

90000b9c <inst_195>:
90000b9c:	33333537          	lui	a0,0x33333
90000ba0:	33350513          	addi	a0,a0,819 # 33333333 <offset+0x3333308f>
90000ba4:	aab53593          	sltiu	a1,a0,-1365
90000ba8:	2cb12223          	sw	a1,708(sp)

90000bac <inst_196>:
90000bac:	33333537          	lui	a0,0x33333
90000bb0:	33350513          	addi	a0,a0,819 # 33333333 <offset+0x3333308f>
90000bb4:	00653593          	sltiu	a1,a0,6
90000bb8:	2cb12423          	sw	a1,712(sp)

90000bbc <inst_197>:
90000bbc:	33333537          	lui	a0,0x33333
90000bc0:	33350513          	addi	a0,a0,819 # 33333333 <offset+0x3333308f>
90000bc4:	33453593          	sltiu	a1,a0,820
90000bc8:	2cb12623          	sw	a1,716(sp)

90000bcc <inst_198>:
90000bcc:	33333537          	lui	a0,0x33333
90000bd0:	33350513          	addi	a0,a0,819 # 33333333 <offset+0x3333308f>
90000bd4:	66753593          	sltiu	a1,a0,1639
90000bd8:	2cb12823          	sw	a1,720(sp)

90000bdc <inst_199>:
90000bdc:	33333537          	lui	a0,0x33333
90000be0:	33350513          	addi	a0,a0,819 # 33333333 <offset+0x3333308f>
90000be4:	02e53593          	sltiu	a1,a0,46
90000be8:	2cb12a23          	sw	a1,724(sp)

90000bec <inst_200>:
90000bec:	33333537          	lui	a0,0x33333
90000bf0:	33350513          	addi	a0,a0,819 # 33333333 <offset+0x3333308f>
90000bf4:	00153593          	seqz	a1,a0
90000bf8:	2cb12c23          	sw	a1,728(sp)

90000bfc <inst_201>:
90000bfc:	33333537          	lui	a0,0x33333
90000c00:	33350513          	addi	a0,a0,819 # 33333333 <offset+0x3333308f>
90000c04:	04053593          	sltiu	a1,a0,64
90000c08:	2cb12e23          	sw	a1,732(sp)

90000c0c <inst_202>:
90000c0c:	66666537          	lui	a0,0x66666
90000c10:	66650513          	addi	a0,a0,1638 # 66666666 <offset+0x666663c2>
90000c14:	00353593          	sltiu	a1,a0,3
90000c18:	2eb12023          	sw	a1,736(sp)

90000c1c <inst_203>:
90000c1c:	66666537          	lui	a0,0x66666
90000c20:	66650513          	addi	a0,a0,1638 # 66666666 <offset+0x666663c2>
90000c24:	55553593          	sltiu	a1,a0,1365
90000c28:	2eb12223          	sw	a1,740(sp)

90000c2c <inst_204>:
90000c2c:	66666537          	lui	a0,0x66666
90000c30:	66650513          	addi	a0,a0,1638 # 66666666 <offset+0x666663c2>
90000c34:	aaa53593          	sltiu	a1,a0,-1366
90000c38:	2eb12423          	sw	a1,744(sp)

90000c3c <inst_205>:
90000c3c:	66666537          	lui	a0,0x66666
90000c40:	66650513          	addi	a0,a0,1638 # 66666666 <offset+0x666663c2>
90000c44:	00553593          	sltiu	a1,a0,5
90000c48:	2eb12623          	sw	a1,748(sp)

90000c4c <inst_206>:
90000c4c:	66666537          	lui	a0,0x66666
90000c50:	66650513          	addi	a0,a0,1638 # 66666666 <offset+0x666663c2>
90000c54:	33353593          	sltiu	a1,a0,819
90000c58:	2eb12823          	sw	a1,752(sp)

90000c5c <inst_207>:
90000c5c:	66666537          	lui	a0,0x66666
90000c60:	66650513          	addi	a0,a0,1638 # 66666666 <offset+0x666663c2>
90000c64:	66653593          	sltiu	a1,a0,1638
90000c68:	2eb12a23          	sw	a1,756(sp)

90000c6c <inst_208>:
90000c6c:	66666537          	lui	a0,0x66666
90000c70:	66650513          	addi	a0,a0,1638 # 66666666 <offset+0x666663c2>
90000c74:	02d53593          	sltiu	a1,a0,45
90000c78:	2eb12c23          	sw	a1,760(sp)

90000c7c <inst_209>:
90000c7c:	66666537          	lui	a0,0x66666
90000c80:	66650513          	addi	a0,a0,1638 # 66666666 <offset+0x666663c2>
90000c84:	00053593          	sltiu	a1,a0,0
90000c88:	2eb12e23          	sw	a1,764(sp)

90000c8c <inst_210>:
90000c8c:	66666537          	lui	a0,0x66666
90000c90:	66650513          	addi	a0,a0,1638 # 66666666 <offset+0x666663c2>
90000c94:	03f53593          	sltiu	a1,a0,63
90000c98:	30b12023          	sw	a1,768(sp)

90000c9c <inst_211>:
90000c9c:	66666537          	lui	a0,0x66666
90000ca0:	66650513          	addi	a0,a0,1638 # 66666666 <offset+0x666663c2>
90000ca4:	00253593          	sltiu	a1,a0,2
90000ca8:	30b12223          	sw	a1,772(sp)

90000cac <inst_212>:
90000cac:	66666537          	lui	a0,0x66666
90000cb0:	66650513          	addi	a0,a0,1638 # 66666666 <offset+0x666663c2>
90000cb4:	55453593          	sltiu	a1,a0,1364
90000cb8:	30b12423          	sw	a1,776(sp)

90000cbc <inst_213>:
90000cbc:	66666537          	lui	a0,0x66666
90000cc0:	66650513          	addi	a0,a0,1638 # 66666666 <offset+0x666663c2>
90000cc4:	aa953593          	sltiu	a1,a0,-1367
90000cc8:	30b12623          	sw	a1,780(sp)

90000ccc <inst_214>:
90000ccc:	66666537          	lui	a0,0x66666
90000cd0:	66650513          	addi	a0,a0,1638 # 66666666 <offset+0x666663c2>
90000cd4:	00453593          	sltiu	a1,a0,4
90000cd8:	30b12823          	sw	a1,784(sp)

90000cdc <inst_215>:
90000cdc:	66666537          	lui	a0,0x66666
90000ce0:	66650513          	addi	a0,a0,1638 # 66666666 <offset+0x666663c2>
90000ce4:	33253593          	sltiu	a1,a0,818
90000ce8:	30b12a23          	sw	a1,788(sp)

90000cec <inst_216>:
90000cec:	66666537          	lui	a0,0x66666
90000cf0:	66650513          	addi	a0,a0,1638 # 66666666 <offset+0x666663c2>
90000cf4:	66553593          	sltiu	a1,a0,1637
90000cf8:	30b12c23          	sw	a1,792(sp)

90000cfc <inst_217>:
90000cfc:	66666537          	lui	a0,0x66666
90000d00:	66650513          	addi	a0,a0,1638 # 66666666 <offset+0x666663c2>
90000d04:	02c53593          	sltiu	a1,a0,44
90000d08:	30b12e23          	sw	a1,796(sp)

90000d0c <inst_218>:
90000d0c:	66666537          	lui	a0,0x66666
90000d10:	66650513          	addi	a0,a0,1638 # 66666666 <offset+0x666663c2>
90000d14:	03e53593          	sltiu	a1,a0,62
90000d18:	32b12023          	sw	a1,800(sp)

90000d1c <inst_219>:
90000d1c:	66666537          	lui	a0,0x66666
90000d20:	66650513          	addi	a0,a0,1638 # 66666666 <offset+0x666663c2>
90000d24:	55653593          	sltiu	a1,a0,1366
90000d28:	32b12223          	sw	a1,804(sp)

90000d2c <inst_220>:
90000d2c:	66666537          	lui	a0,0x66666
90000d30:	66650513          	addi	a0,a0,1638 # 66666666 <offset+0x666663c2>
90000d34:	aab53593          	sltiu	a1,a0,-1365
90000d38:	32b12423          	sw	a1,808(sp)

90000d3c <inst_221>:
90000d3c:	66666537          	lui	a0,0x66666
90000d40:	66650513          	addi	a0,a0,1638 # 66666666 <offset+0x666663c2>
90000d44:	00653593          	sltiu	a1,a0,6
90000d48:	32b12623          	sw	a1,812(sp)

90000d4c <inst_222>:
90000d4c:	66666537          	lui	a0,0x66666
90000d50:	66650513          	addi	a0,a0,1638 # 66666666 <offset+0x666663c2>
90000d54:	33453593          	sltiu	a1,a0,820
90000d58:	32b12823          	sw	a1,816(sp)

90000d5c <inst_223>:
90000d5c:	66666537          	lui	a0,0x66666
90000d60:	66650513          	addi	a0,a0,1638 # 66666666 <offset+0x666663c2>
90000d64:	66753593          	sltiu	a1,a0,1639
90000d68:	32b12a23          	sw	a1,820(sp)

90000d6c <inst_224>:
90000d6c:	66666537          	lui	a0,0x66666
90000d70:	66650513          	addi	a0,a0,1638 # 66666666 <offset+0x666663c2>
90000d74:	02e53593          	sltiu	a1,a0,46
90000d78:	32b12c23          	sw	a1,824(sp)

90000d7c <inst_225>:
90000d7c:	66666537          	lui	a0,0x66666
90000d80:	66650513          	addi	a0,a0,1638 # 66666666 <offset+0x666663c2>
90000d84:	00153593          	seqz	a1,a0
90000d88:	32b12e23          	sw	a1,828(sp)

90000d8c <inst_226>:
90000d8c:	66666537          	lui	a0,0x66666
90000d90:	66650513          	addi	a0,a0,1638 # 66666666 <offset+0x666663c2>
90000d94:	04053593          	sltiu	a1,a0,64
90000d98:	34b12023          	sw	a1,832(sp)

90000d9c <inst_227>:
90000d9c:	0000b537          	lui	a0,0xb
90000da0:	50450513          	addi	a0,a0,1284 # b504 <offset+0xb260>
90000da4:	00353593          	sltiu	a1,a0,3
90000da8:	34b12223          	sw	a1,836(sp)

90000dac <inst_228>:
90000dac:	0000b537          	lui	a0,0xb
90000db0:	50450513          	addi	a0,a0,1284 # b504 <offset+0xb260>
90000db4:	55553593          	sltiu	a1,a0,1365
90000db8:	34b12423          	sw	a1,840(sp)

90000dbc <inst_229>:
90000dbc:	0000b537          	lui	a0,0xb
90000dc0:	50450513          	addi	a0,a0,1284 # b504 <offset+0xb260>
90000dc4:	aaa53593          	sltiu	a1,a0,-1366
90000dc8:	34b12623          	sw	a1,844(sp)

90000dcc <inst_230>:
90000dcc:	0000b537          	lui	a0,0xb
90000dd0:	50450513          	addi	a0,a0,1284 # b504 <offset+0xb260>
90000dd4:	00553593          	sltiu	a1,a0,5
90000dd8:	34b12823          	sw	a1,848(sp)

90000ddc <inst_231>:
90000ddc:	0000b537          	lui	a0,0xb
90000de0:	50450513          	addi	a0,a0,1284 # b504 <offset+0xb260>
90000de4:	33353593          	sltiu	a1,a0,819
90000de8:	34b12a23          	sw	a1,852(sp)

90000dec <inst_232>:
90000dec:	0000b537          	lui	a0,0xb
90000df0:	50450513          	addi	a0,a0,1284 # b504 <offset+0xb260>
90000df4:	66653593          	sltiu	a1,a0,1638
90000df8:	34b12c23          	sw	a1,856(sp)

90000dfc <inst_233>:
90000dfc:	0000b537          	lui	a0,0xb
90000e00:	50450513          	addi	a0,a0,1284 # b504 <offset+0xb260>
90000e04:	02d53593          	sltiu	a1,a0,45
90000e08:	34b12e23          	sw	a1,860(sp)

90000e0c <inst_234>:
90000e0c:	0000b537          	lui	a0,0xb
90000e10:	50450513          	addi	a0,a0,1284 # b504 <offset+0xb260>
90000e14:	00053593          	sltiu	a1,a0,0
90000e18:	36b12023          	sw	a1,864(sp)

90000e1c <inst_235>:
90000e1c:	0000b537          	lui	a0,0xb
90000e20:	50450513          	addi	a0,a0,1284 # b504 <offset+0xb260>
90000e24:	03f53593          	sltiu	a1,a0,63
90000e28:	36b12223          	sw	a1,868(sp)

90000e2c <inst_236>:
90000e2c:	0000b537          	lui	a0,0xb
90000e30:	50450513          	addi	a0,a0,1284 # b504 <offset+0xb260>
90000e34:	00253593          	sltiu	a1,a0,2
90000e38:	36b12423          	sw	a1,872(sp)

90000e3c <inst_237>:
90000e3c:	0000b537          	lui	a0,0xb
90000e40:	50450513          	addi	a0,a0,1284 # b504 <offset+0xb260>
90000e44:	55453593          	sltiu	a1,a0,1364
90000e48:	36b12623          	sw	a1,876(sp)

90000e4c <inst_238>:
90000e4c:	0000b537          	lui	a0,0xb
90000e50:	50450513          	addi	a0,a0,1284 # b504 <offset+0xb260>
90000e54:	aa953593          	sltiu	a1,a0,-1367
90000e58:	36b12823          	sw	a1,880(sp)

90000e5c <inst_239>:
90000e5c:	0000b537          	lui	a0,0xb
90000e60:	50450513          	addi	a0,a0,1284 # b504 <offset+0xb260>
90000e64:	00453593          	sltiu	a1,a0,4
90000e68:	36b12a23          	sw	a1,884(sp)

90000e6c <inst_240>:
90000e6c:	0000b537          	lui	a0,0xb
90000e70:	50450513          	addi	a0,a0,1284 # b504 <offset+0xb260>
90000e74:	33253593          	sltiu	a1,a0,818
90000e78:	36b12c23          	sw	a1,888(sp)

90000e7c <inst_241>:
90000e7c:	0000b537          	lui	a0,0xb
90000e80:	50450513          	addi	a0,a0,1284 # b504 <offset+0xb260>
90000e84:	66553593          	sltiu	a1,a0,1637
90000e88:	36b12e23          	sw	a1,892(sp)

90000e8c <inst_242>:
90000e8c:	0000b537          	lui	a0,0xb
90000e90:	50450513          	addi	a0,a0,1284 # b504 <offset+0xb260>
90000e94:	02c53593          	sltiu	a1,a0,44
90000e98:	38b12023          	sw	a1,896(sp)

90000e9c <inst_243>:
90000e9c:	0000b537          	lui	a0,0xb
90000ea0:	50450513          	addi	a0,a0,1284 # b504 <offset+0xb260>
90000ea4:	03e53593          	sltiu	a1,a0,62
90000ea8:	38b12223          	sw	a1,900(sp)

90000eac <inst_244>:
90000eac:	0000b537          	lui	a0,0xb
90000eb0:	50450513          	addi	a0,a0,1284 # b504 <offset+0xb260>
90000eb4:	55653593          	sltiu	a1,a0,1366
90000eb8:	38b12423          	sw	a1,904(sp)

90000ebc <inst_245>:
90000ebc:	0000b537          	lui	a0,0xb
90000ec0:	50450513          	addi	a0,a0,1284 # b504 <offset+0xb260>
90000ec4:	aab53593          	sltiu	a1,a0,-1365
90000ec8:	38b12623          	sw	a1,908(sp)

90000ecc <inst_246>:
90000ecc:	0000b537          	lui	a0,0xb
90000ed0:	50450513          	addi	a0,a0,1284 # b504 <offset+0xb260>
90000ed4:	00653593          	sltiu	a1,a0,6
90000ed8:	38b12823          	sw	a1,912(sp)

90000edc <inst_247>:
90000edc:	0000b537          	lui	a0,0xb
90000ee0:	50450513          	addi	a0,a0,1284 # b504 <offset+0xb260>
90000ee4:	33453593          	sltiu	a1,a0,820
90000ee8:	38b12a23          	sw	a1,916(sp)

90000eec <inst_248>:
90000eec:	0000b537          	lui	a0,0xb
90000ef0:	50450513          	addi	a0,a0,1284 # b504 <offset+0xb260>
90000ef4:	66753593          	sltiu	a1,a0,1639
90000ef8:	38b12c23          	sw	a1,920(sp)

90000efc <inst_249>:
90000efc:	0000b537          	lui	a0,0xb
90000f00:	50450513          	addi	a0,a0,1284 # b504 <offset+0xb260>
90000f04:	02e53593          	sltiu	a1,a0,46
90000f08:	38b12e23          	sw	a1,924(sp)

90000f0c <inst_250>:
90000f0c:	0000b537          	lui	a0,0xb
90000f10:	50450513          	addi	a0,a0,1284 # b504 <offset+0xb260>
90000f14:	00153593          	seqz	a1,a0
90000f18:	3ab12023          	sw	a1,928(sp)

90000f1c <inst_251>:
90000f1c:	0000b537          	lui	a0,0xb
90000f20:	50450513          	addi	a0,a0,1284 # b504 <offset+0xb260>
90000f24:	04053593          	sltiu	a1,a0,64
90000f28:	3ab12223          	sw	a1,932(sp)

90000f2c <inst_252>:
90000f2c:	00000513          	li	a0,0
90000f30:	00353593          	sltiu	a1,a0,3
90000f34:	3ab12423          	sw	a1,936(sp)

90000f38 <inst_253>:
90000f38:	00000513          	li	a0,0
90000f3c:	55553593          	sltiu	a1,a0,1365
90000f40:	3ab12623          	sw	a1,940(sp)

90000f44 <inst_254>:
90000f44:	00000513          	li	a0,0
90000f48:	aaa53593          	sltiu	a1,a0,-1366
90000f4c:	3ab12823          	sw	a1,944(sp)

90000f50 <inst_255>:
90000f50:	00000513          	li	a0,0
90000f54:	00553593          	sltiu	a1,a0,5
90000f58:	3ab12a23          	sw	a1,948(sp)

90000f5c <inst_256>:
90000f5c:	00000513          	li	a0,0
90000f60:	33353593          	sltiu	a1,a0,819
90000f64:	3ab12c23          	sw	a1,952(sp)

90000f68 <inst_257>:
90000f68:	00000513          	li	a0,0
90000f6c:	66653593          	sltiu	a1,a0,1638
90000f70:	3ab12e23          	sw	a1,956(sp)

90000f74 <inst_258>:
90000f74:	00000513          	li	a0,0
90000f78:	02d53593          	sltiu	a1,a0,45
90000f7c:	3cb12023          	sw	a1,960(sp)

90000f80 <inst_259>:
90000f80:	00000513          	li	a0,0
90000f84:	00053593          	sltiu	a1,a0,0
90000f88:	3cb12223          	sw	a1,964(sp)

90000f8c <inst_260>:
90000f8c:	00000513          	li	a0,0
90000f90:	03f53593          	sltiu	a1,a0,63
90000f94:	3cb12423          	sw	a1,968(sp)

90000f98 <inst_261>:
90000f98:	00000513          	li	a0,0
90000f9c:	00253593          	sltiu	a1,a0,2
90000fa0:	3cb12623          	sw	a1,972(sp)

90000fa4 <inst_262>:
90000fa4:	00000513          	li	a0,0
90000fa8:	55453593          	sltiu	a1,a0,1364
90000fac:	3cb12823          	sw	a1,976(sp)

90000fb0 <inst_263>:
90000fb0:	00000513          	li	a0,0
90000fb4:	aa953593          	sltiu	a1,a0,-1367
90000fb8:	3cb12a23          	sw	a1,980(sp)

90000fbc <inst_264>:
90000fbc:	00000513          	li	a0,0
90000fc0:	00453593          	sltiu	a1,a0,4
90000fc4:	3cb12c23          	sw	a1,984(sp)

90000fc8 <inst_265>:
90000fc8:	00000513          	li	a0,0
90000fcc:	33253593          	sltiu	a1,a0,818
90000fd0:	3cb12e23          	sw	a1,988(sp)

90000fd4 <inst_266>:
90000fd4:	00000513          	li	a0,0
90000fd8:	66553593          	sltiu	a1,a0,1637
90000fdc:	3eb12023          	sw	a1,992(sp)

90000fe0 <inst_267>:
90000fe0:	00000513          	li	a0,0
90000fe4:	02c53593          	sltiu	a1,a0,44
90000fe8:	3eb12223          	sw	a1,996(sp)

90000fec <inst_268>:
90000fec:	00000513          	li	a0,0
90000ff0:	03e53593          	sltiu	a1,a0,62
90000ff4:	3eb12423          	sw	a1,1000(sp)

90000ff8 <inst_269>:
90000ff8:	00000513          	li	a0,0
90000ffc:	55653593          	sltiu	a1,a0,1366
90001000:	3eb12623          	sw	a1,1004(sp)

90001004 <inst_270>:
90001004:	00000513          	li	a0,0
90001008:	aab53593          	sltiu	a1,a0,-1365
9000100c:	3eb12823          	sw	a1,1008(sp)

90001010 <inst_271>:
90001010:	00000513          	li	a0,0
90001014:	33453593          	sltiu	a1,a0,820
90001018:	3eb12a23          	sw	a1,1012(sp)

9000101c <inst_272>:
9000101c:	00000513          	li	a0,0
90001020:	66753593          	sltiu	a1,a0,1639
90001024:	3eb12c23          	sw	a1,1016(sp)

90001028 <inst_273>:
90001028:	00000513          	li	a0,0
9000102c:	02e53593          	sltiu	a1,a0,46
90001030:	3eb12e23          	sw	a1,1020(sp)

90001034 <inst_274>:
90001034:	00000513          	li	a0,0
90001038:	00153593          	seqz	a1,a0
9000103c:	40b12023          	sw	a1,1024(sp)

90001040 <inst_275>:
90001040:	00000513          	li	a0,0
90001044:	04053593          	sltiu	a1,a0,64
90001048:	40b12223          	sw	a1,1028(sp)

9000104c <inst_276>:
9000104c:	00010537          	lui	a0,0x10
90001050:	fff50513          	addi	a0,a0,-1 # ffff <offset+0xfd5b>
90001054:	00353593          	sltiu	a1,a0,3
90001058:	40b12423          	sw	a1,1032(sp)

9000105c <inst_277>:
9000105c:	00010537          	lui	a0,0x10
90001060:	fff50513          	addi	a0,a0,-1 # ffff <offset+0xfd5b>
90001064:	55553593          	sltiu	a1,a0,1365
90001068:	40b12623          	sw	a1,1036(sp)

9000106c <inst_278>:
9000106c:	00010537          	lui	a0,0x10
90001070:	fff50513          	addi	a0,a0,-1 # ffff <offset+0xfd5b>
90001074:	aaa53593          	sltiu	a1,a0,-1366
90001078:	40b12823          	sw	a1,1040(sp)

9000107c <inst_279>:
9000107c:	00010537          	lui	a0,0x10
90001080:	fff50513          	addi	a0,a0,-1 # ffff <offset+0xfd5b>
90001084:	00553593          	sltiu	a1,a0,5
90001088:	40b12a23          	sw	a1,1044(sp)

9000108c <inst_280>:
9000108c:	00010537          	lui	a0,0x10
90001090:	fff50513          	addi	a0,a0,-1 # ffff <offset+0xfd5b>
90001094:	33353593          	sltiu	a1,a0,819
90001098:	40b12c23          	sw	a1,1048(sp)

9000109c <inst_281>:
9000109c:	00010537          	lui	a0,0x10
900010a0:	fff50513          	addi	a0,a0,-1 # ffff <offset+0xfd5b>
900010a4:	66653593          	sltiu	a1,a0,1638
900010a8:	40b12e23          	sw	a1,1052(sp)

900010ac <inst_282>:
900010ac:	00010537          	lui	a0,0x10
900010b0:	fff50513          	addi	a0,a0,-1 # ffff <offset+0xfd5b>
900010b4:	02d53593          	sltiu	a1,a0,45
900010b8:	42b12023          	sw	a1,1056(sp)

900010bc <inst_283>:
900010bc:	00010537          	lui	a0,0x10
900010c0:	fff50513          	addi	a0,a0,-1 # ffff <offset+0xfd5b>
900010c4:	00053593          	sltiu	a1,a0,0
900010c8:	42b12223          	sw	a1,1060(sp)

900010cc <inst_284>:
900010cc:	00010537          	lui	a0,0x10
900010d0:	fff50513          	addi	a0,a0,-1 # ffff <offset+0xfd5b>
900010d4:	03f53593          	sltiu	a1,a0,63
900010d8:	42b12423          	sw	a1,1064(sp)

900010dc <inst_285>:
900010dc:	00010537          	lui	a0,0x10
900010e0:	fff50513          	addi	a0,a0,-1 # ffff <offset+0xfd5b>
900010e4:	00253593          	sltiu	a1,a0,2
900010e8:	42b12623          	sw	a1,1068(sp)

900010ec <inst_286>:
900010ec:	00010537          	lui	a0,0x10
900010f0:	fff50513          	addi	a0,a0,-1 # ffff <offset+0xfd5b>
900010f4:	55453593          	sltiu	a1,a0,1364
900010f8:	42b12823          	sw	a1,1072(sp)

900010fc <inst_287>:
900010fc:	00010537          	lui	a0,0x10
90001100:	fff50513          	addi	a0,a0,-1 # ffff <offset+0xfd5b>
90001104:	aa953593          	sltiu	a1,a0,-1367
90001108:	42b12a23          	sw	a1,1076(sp)

9000110c <inst_288>:
9000110c:	00010537          	lui	a0,0x10
90001110:	fff50513          	addi	a0,a0,-1 # ffff <offset+0xfd5b>
90001114:	00453593          	sltiu	a1,a0,4
90001118:	42b12c23          	sw	a1,1080(sp)

9000111c <inst_289>:
9000111c:	00010537          	lui	a0,0x10
90001120:	fff50513          	addi	a0,a0,-1 # ffff <offset+0xfd5b>
90001124:	33253593          	sltiu	a1,a0,818
90001128:	42b12e23          	sw	a1,1084(sp)

9000112c <inst_290>:
9000112c:	00010537          	lui	a0,0x10
90001130:	fff50513          	addi	a0,a0,-1 # ffff <offset+0xfd5b>
90001134:	66553593          	sltiu	a1,a0,1637
90001138:	44b12023          	sw	a1,1088(sp)

9000113c <inst_291>:
9000113c:	00010537          	lui	a0,0x10
90001140:	fff50513          	addi	a0,a0,-1 # ffff <offset+0xfd5b>
90001144:	02c53593          	sltiu	a1,a0,44
90001148:	44b12223          	sw	a1,1092(sp)

9000114c <inst_292>:
9000114c:	00010537          	lui	a0,0x10
90001150:	fff50513          	addi	a0,a0,-1 # ffff <offset+0xfd5b>
90001154:	03e53593          	sltiu	a1,a0,62
90001158:	44b12423          	sw	a1,1096(sp)

9000115c <inst_293>:
9000115c:	00010537          	lui	a0,0x10
90001160:	fff50513          	addi	a0,a0,-1 # ffff <offset+0xfd5b>
90001164:	55653593          	sltiu	a1,a0,1366
90001168:	44b12623          	sw	a1,1100(sp)

9000116c <inst_294>:
9000116c:	00010537          	lui	a0,0x10
90001170:	fff50513          	addi	a0,a0,-1 # ffff <offset+0xfd5b>
90001174:	aab53593          	sltiu	a1,a0,-1365
90001178:	44b12823          	sw	a1,1104(sp)

9000117c <inst_295>:
9000117c:	00010537          	lui	a0,0x10
90001180:	fff50513          	addi	a0,a0,-1 # ffff <offset+0xfd5b>
90001184:	00653593          	sltiu	a1,a0,6
90001188:	44b12a23          	sw	a1,1108(sp)

9000118c <inst_296>:
9000118c:	00010537          	lui	a0,0x10
90001190:	fff50513          	addi	a0,a0,-1 # ffff <offset+0xfd5b>
90001194:	33453593          	sltiu	a1,a0,820
90001198:	44b12c23          	sw	a1,1112(sp)

9000119c <inst_297>:
9000119c:	00010537          	lui	a0,0x10
900011a0:	fff50513          	addi	a0,a0,-1 # ffff <offset+0xfd5b>
900011a4:	66753593          	sltiu	a1,a0,1639
900011a8:	44b12e23          	sw	a1,1116(sp)

900011ac <inst_298>:
900011ac:	00010537          	lui	a0,0x10
900011b0:	fff50513          	addi	a0,a0,-1 # ffff <offset+0xfd5b>
900011b4:	02e53593          	sltiu	a1,a0,46
900011b8:	46b12023          	sw	a1,1120(sp)

900011bc <inst_299>:
900011bc:	00010537          	lui	a0,0x10
900011c0:	fff50513          	addi	a0,a0,-1 # ffff <offset+0xfd5b>
900011c4:	00153593          	seqz	a1,a0
900011c8:	46b12223          	sw	a1,1124(sp)

900011cc <inst_300>:
900011cc:	00010537          	lui	a0,0x10
900011d0:	fff50513          	addi	a0,a0,-1 # ffff <offset+0xfd5b>
900011d4:	04053593          	sltiu	a1,a0,64
900011d8:	46b12423          	sw	a1,1128(sp)

900011dc <inst_301>:
900011dc:	00200513          	li	a0,2
900011e0:	00353593          	sltiu	a1,a0,3
900011e4:	46b12623          	sw	a1,1132(sp)

900011e8 <inst_302>:
900011e8:	00200513          	li	a0,2
900011ec:	55553593          	sltiu	a1,a0,1365
900011f0:	46b12823          	sw	a1,1136(sp)

900011f4 <inst_303>:
900011f4:	00200513          	li	a0,2
900011f8:	aaa53593          	sltiu	a1,a0,-1366
900011fc:	46b12a23          	sw	a1,1140(sp)

90001200 <inst_304>:
90001200:	00200513          	li	a0,2
90001204:	00553593          	sltiu	a1,a0,5
90001208:	46b12c23          	sw	a1,1144(sp)

9000120c <inst_305>:
9000120c:	00200513          	li	a0,2
90001210:	33353593          	sltiu	a1,a0,819
90001214:	46b12e23          	sw	a1,1148(sp)

90001218 <inst_306>:
90001218:	00200513          	li	a0,2
9000121c:	66653593          	sltiu	a1,a0,1638
90001220:	48b12023          	sw	a1,1152(sp)

90001224 <inst_307>:
90001224:	00200513          	li	a0,2
90001228:	02d53593          	sltiu	a1,a0,45
9000122c:	48b12223          	sw	a1,1156(sp)

90001230 <inst_308>:
90001230:	00200513          	li	a0,2
90001234:	00053593          	sltiu	a1,a0,0
90001238:	48b12423          	sw	a1,1160(sp)

9000123c <inst_309>:
9000123c:	00200513          	li	a0,2
90001240:	03f53593          	sltiu	a1,a0,63
90001244:	48b12623          	sw	a1,1164(sp)

90001248 <inst_310>:
90001248:	00200513          	li	a0,2
9000124c:	00253593          	sltiu	a1,a0,2
90001250:	48b12823          	sw	a1,1168(sp)

90001254 <inst_311>:
90001254:	00200513          	li	a0,2
90001258:	55453593          	sltiu	a1,a0,1364
9000125c:	48b12a23          	sw	a1,1172(sp)

90001260 <inst_312>:
90001260:	00200513          	li	a0,2
90001264:	aa953593          	sltiu	a1,a0,-1367
90001268:	48b12c23          	sw	a1,1176(sp)

9000126c <inst_313>:
9000126c:	00200513          	li	a0,2
90001270:	00453593          	sltiu	a1,a0,4
90001274:	48b12e23          	sw	a1,1180(sp)

90001278 <inst_314>:
90001278:	00200513          	li	a0,2
9000127c:	33253593          	sltiu	a1,a0,818
90001280:	4ab12023          	sw	a1,1184(sp)

90001284 <inst_315>:
90001284:	00200513          	li	a0,2
90001288:	66553593          	sltiu	a1,a0,1637
9000128c:	4ab12223          	sw	a1,1188(sp)

90001290 <inst_316>:
90001290:	00200513          	li	a0,2
90001294:	02c53593          	sltiu	a1,a0,44
90001298:	4ab12423          	sw	a1,1192(sp)

9000129c <inst_317>:
9000129c:	00200513          	li	a0,2
900012a0:	03e53593          	sltiu	a1,a0,62
900012a4:	4ab12623          	sw	a1,1196(sp)

900012a8 <inst_318>:
900012a8:	00200513          	li	a0,2
900012ac:	55653593          	sltiu	a1,a0,1366
900012b0:	4ab12823          	sw	a1,1200(sp)

900012b4 <inst_319>:
900012b4:	00200513          	li	a0,2
900012b8:	aab53593          	sltiu	a1,a0,-1365
900012bc:	4ab12a23          	sw	a1,1204(sp)

900012c0 <inst_320>:
900012c0:	00200513          	li	a0,2
900012c4:	00653593          	sltiu	a1,a0,6
900012c8:	4ab12c23          	sw	a1,1208(sp)

900012cc <inst_321>:
900012cc:	00200513          	li	a0,2
900012d0:	33453593          	sltiu	a1,a0,820
900012d4:	4ab12e23          	sw	a1,1212(sp)

900012d8 <inst_322>:
900012d8:	00200513          	li	a0,2
900012dc:	66753593          	sltiu	a1,a0,1639
900012e0:	4cb12023          	sw	a1,1216(sp)

900012e4 <inst_323>:
900012e4:	00200513          	li	a0,2
900012e8:	02e53593          	sltiu	a1,a0,46
900012ec:	4cb12223          	sw	a1,1220(sp)

900012f0 <inst_324>:
900012f0:	00200513          	li	a0,2
900012f4:	00153593          	seqz	a1,a0
900012f8:	4cb12423          	sw	a1,1224(sp)

900012fc <inst_325>:
900012fc:	00200513          	li	a0,2
90001300:	04053593          	sltiu	a1,a0,64
90001304:	4cb12623          	sw	a1,1228(sp)

90001308 <inst_326>:
90001308:	55555537          	lui	a0,0x55555
9000130c:	55450513          	addi	a0,a0,1364 # 55555554 <offset+0x555552b0>
90001310:	00353593          	sltiu	a1,a0,3
90001314:	4cb12823          	sw	a1,1232(sp)

90001318 <inst_327>:
90001318:	55555537          	lui	a0,0x55555
9000131c:	55450513          	addi	a0,a0,1364 # 55555554 <offset+0x555552b0>
90001320:	55553593          	sltiu	a1,a0,1365
90001324:	4cb12a23          	sw	a1,1236(sp)

90001328 <inst_328>:
90001328:	55555537          	lui	a0,0x55555
9000132c:	55450513          	addi	a0,a0,1364 # 55555554 <offset+0x555552b0>
90001330:	aaa53593          	sltiu	a1,a0,-1366
90001334:	4cb12c23          	sw	a1,1240(sp)

90001338 <inst_329>:
90001338:	55555537          	lui	a0,0x55555
9000133c:	55450513          	addi	a0,a0,1364 # 55555554 <offset+0x555552b0>
90001340:	00553593          	sltiu	a1,a0,5
90001344:	4cb12e23          	sw	a1,1244(sp)

90001348 <inst_330>:
90001348:	55555537          	lui	a0,0x55555
9000134c:	55450513          	addi	a0,a0,1364 # 55555554 <offset+0x555552b0>
90001350:	33353593          	sltiu	a1,a0,819
90001354:	4eb12023          	sw	a1,1248(sp)

90001358 <inst_331>:
90001358:	55555537          	lui	a0,0x55555
9000135c:	55450513          	addi	a0,a0,1364 # 55555554 <offset+0x555552b0>
90001360:	66653593          	sltiu	a1,a0,1638
90001364:	4eb12223          	sw	a1,1252(sp)

90001368 <inst_332>:
90001368:	55555537          	lui	a0,0x55555
9000136c:	55450513          	addi	a0,a0,1364 # 55555554 <offset+0x555552b0>
90001370:	02d53593          	sltiu	a1,a0,45
90001374:	4eb12423          	sw	a1,1256(sp)

90001378 <inst_333>:
90001378:	55555537          	lui	a0,0x55555
9000137c:	55450513          	addi	a0,a0,1364 # 55555554 <offset+0x555552b0>
90001380:	00053593          	sltiu	a1,a0,0
90001384:	4eb12623          	sw	a1,1260(sp)

90001388 <inst_334>:
90001388:	55555537          	lui	a0,0x55555
9000138c:	55450513          	addi	a0,a0,1364 # 55555554 <offset+0x555552b0>
90001390:	03f53593          	sltiu	a1,a0,63
90001394:	4eb12823          	sw	a1,1264(sp)

90001398 <inst_335>:
90001398:	55555537          	lui	a0,0x55555
9000139c:	55450513          	addi	a0,a0,1364 # 55555554 <offset+0x555552b0>
900013a0:	00253593          	sltiu	a1,a0,2
900013a4:	4eb12a23          	sw	a1,1268(sp)

900013a8 <inst_336>:
900013a8:	55555537          	lui	a0,0x55555
900013ac:	55450513          	addi	a0,a0,1364 # 55555554 <offset+0x555552b0>
900013b0:	55453593          	sltiu	a1,a0,1364
900013b4:	4eb12c23          	sw	a1,1272(sp)

900013b8 <inst_337>:
900013b8:	55555537          	lui	a0,0x55555
900013bc:	55450513          	addi	a0,a0,1364 # 55555554 <offset+0x555552b0>
900013c0:	aa953593          	sltiu	a1,a0,-1367
900013c4:	4eb12e23          	sw	a1,1276(sp)

900013c8 <inst_338>:
900013c8:	55555537          	lui	a0,0x55555
900013cc:	55450513          	addi	a0,a0,1364 # 55555554 <offset+0x555552b0>
900013d0:	00453593          	sltiu	a1,a0,4
900013d4:	50b12023          	sw	a1,1280(sp)

900013d8 <inst_339>:
900013d8:	55555537          	lui	a0,0x55555
900013dc:	55450513          	addi	a0,a0,1364 # 55555554 <offset+0x555552b0>
900013e0:	33253593          	sltiu	a1,a0,818
900013e4:	50b12223          	sw	a1,1284(sp)

900013e8 <inst_340>:
900013e8:	55555537          	lui	a0,0x55555
900013ec:	55450513          	addi	a0,a0,1364 # 55555554 <offset+0x555552b0>
900013f0:	66553593          	sltiu	a1,a0,1637
900013f4:	50b12423          	sw	a1,1288(sp)

900013f8 <inst_341>:
900013f8:	55555537          	lui	a0,0x55555
900013fc:	55450513          	addi	a0,a0,1364 # 55555554 <offset+0x555552b0>
90001400:	02c53593          	sltiu	a1,a0,44
90001404:	50b12623          	sw	a1,1292(sp)

90001408 <inst_342>:
90001408:	55555537          	lui	a0,0x55555
9000140c:	55450513          	addi	a0,a0,1364 # 55555554 <offset+0x555552b0>
90001410:	03e53593          	sltiu	a1,a0,62
90001414:	50b12823          	sw	a1,1296(sp)

90001418 <inst_343>:
90001418:	55555537          	lui	a0,0x55555
9000141c:	55450513          	addi	a0,a0,1364 # 55555554 <offset+0x555552b0>
90001420:	55653593          	sltiu	a1,a0,1366
90001424:	50b12a23          	sw	a1,1300(sp)

90001428 <inst_344>:
90001428:	55555537          	lui	a0,0x55555
9000142c:	55450513          	addi	a0,a0,1364 # 55555554 <offset+0x555552b0>
90001430:	aab53593          	sltiu	a1,a0,-1365
90001434:	50b12c23          	sw	a1,1304(sp)

90001438 <inst_345>:
90001438:	55555537          	lui	a0,0x55555
9000143c:	55450513          	addi	a0,a0,1364 # 55555554 <offset+0x555552b0>
90001440:	00653593          	sltiu	a1,a0,6
90001444:	50b12e23          	sw	a1,1308(sp)

90001448 <inst_346>:
90001448:	55555537          	lui	a0,0x55555
9000144c:	55450513          	addi	a0,a0,1364 # 55555554 <offset+0x555552b0>
90001450:	33453593          	sltiu	a1,a0,820
90001454:	52b12023          	sw	a1,1312(sp)

90001458 <inst_347>:
90001458:	55555537          	lui	a0,0x55555
9000145c:	55450513          	addi	a0,a0,1364 # 55555554 <offset+0x555552b0>
90001460:	66753593          	sltiu	a1,a0,1639
90001464:	52b12223          	sw	a1,1316(sp)

90001468 <inst_348>:
90001468:	55555537          	lui	a0,0x55555
9000146c:	55450513          	addi	a0,a0,1364 # 55555554 <offset+0x555552b0>
90001470:	02e53593          	sltiu	a1,a0,46
90001474:	52b12423          	sw	a1,1320(sp)

90001478 <inst_349>:
90001478:	55555537          	lui	a0,0x55555
9000147c:	55450513          	addi	a0,a0,1364 # 55555554 <offset+0x555552b0>
90001480:	00153593          	seqz	a1,a0
90001484:	52b12623          	sw	a1,1324(sp)

90001488 <inst_350>:
90001488:	55555537          	lui	a0,0x55555
9000148c:	55450513          	addi	a0,a0,1364 # 55555554 <offset+0x555552b0>
90001490:	04053593          	sltiu	a1,a0,64
90001494:	52b12823          	sw	a1,1328(sp)

90001498 <inst_351>:
90001498:	aaaab537          	lui	a0,0xaaaab
9000149c:	aa950513          	addi	a0,a0,-1367 # aaaaaaa9 <_end+0x1aaa5ea5>
900014a0:	00353593          	sltiu	a1,a0,3
900014a4:	52b12a23          	sw	a1,1332(sp)

900014a8 <inst_352>:
900014a8:	aaaab537          	lui	a0,0xaaaab
900014ac:	aa950513          	addi	a0,a0,-1367 # aaaaaaa9 <_end+0x1aaa5ea5>
900014b0:	55553593          	sltiu	a1,a0,1365
900014b4:	52b12c23          	sw	a1,1336(sp)

900014b8 <inst_353>:
900014b8:	aaaab537          	lui	a0,0xaaaab
900014bc:	aa950513          	addi	a0,a0,-1367 # aaaaaaa9 <_end+0x1aaa5ea5>
900014c0:	aaa53593          	sltiu	a1,a0,-1366
900014c4:	52b12e23          	sw	a1,1340(sp)

900014c8 <inst_354>:
900014c8:	aaaab537          	lui	a0,0xaaaab
900014cc:	aa950513          	addi	a0,a0,-1367 # aaaaaaa9 <_end+0x1aaa5ea5>
900014d0:	00553593          	sltiu	a1,a0,5
900014d4:	54b12023          	sw	a1,1344(sp)

900014d8 <inst_355>:
900014d8:	aaaab537          	lui	a0,0xaaaab
900014dc:	aa950513          	addi	a0,a0,-1367 # aaaaaaa9 <_end+0x1aaa5ea5>
900014e0:	33353593          	sltiu	a1,a0,819
900014e4:	54b12223          	sw	a1,1348(sp)

900014e8 <inst_356>:
900014e8:	aaaab537          	lui	a0,0xaaaab
900014ec:	aa950513          	addi	a0,a0,-1367 # aaaaaaa9 <_end+0x1aaa5ea5>
900014f0:	66653593          	sltiu	a1,a0,1638
900014f4:	54b12423          	sw	a1,1352(sp)

900014f8 <inst_357>:
900014f8:	aaaab537          	lui	a0,0xaaaab
900014fc:	aa950513          	addi	a0,a0,-1367 # aaaaaaa9 <_end+0x1aaa5ea5>
90001500:	02d53593          	sltiu	a1,a0,45
90001504:	54b12623          	sw	a1,1356(sp)

90001508 <inst_358>:
90001508:	aaaab537          	lui	a0,0xaaaab
9000150c:	aa950513          	addi	a0,a0,-1367 # aaaaaaa9 <_end+0x1aaa5ea5>
90001510:	00053593          	sltiu	a1,a0,0
90001514:	54b12823          	sw	a1,1360(sp)

90001518 <inst_359>:
90001518:	aaaab537          	lui	a0,0xaaaab
9000151c:	aa950513          	addi	a0,a0,-1367 # aaaaaaa9 <_end+0x1aaa5ea5>
90001520:	03f53593          	sltiu	a1,a0,63
90001524:	54b12a23          	sw	a1,1364(sp)

90001528 <inst_360>:
90001528:	aaaab537          	lui	a0,0xaaaab
9000152c:	aa950513          	addi	a0,a0,-1367 # aaaaaaa9 <_end+0x1aaa5ea5>
90001530:	00253593          	sltiu	a1,a0,2
90001534:	54b12c23          	sw	a1,1368(sp)

90001538 <inst_361>:
90001538:	aaaab537          	lui	a0,0xaaaab
9000153c:	aa950513          	addi	a0,a0,-1367 # aaaaaaa9 <_end+0x1aaa5ea5>
90001540:	55453593          	sltiu	a1,a0,1364
90001544:	54b12e23          	sw	a1,1372(sp)

90001548 <inst_362>:
90001548:	aaaab537          	lui	a0,0xaaaab
9000154c:	aa950513          	addi	a0,a0,-1367 # aaaaaaa9 <_end+0x1aaa5ea5>
90001550:	aa953593          	sltiu	a1,a0,-1367
90001554:	56b12023          	sw	a1,1376(sp)

90001558 <inst_363>:
90001558:	aaaab537          	lui	a0,0xaaaab
9000155c:	aa950513          	addi	a0,a0,-1367 # aaaaaaa9 <_end+0x1aaa5ea5>
90001560:	00453593          	sltiu	a1,a0,4
90001564:	56b12223          	sw	a1,1380(sp)

90001568 <inst_364>:
90001568:	aaaab537          	lui	a0,0xaaaab
9000156c:	aa950513          	addi	a0,a0,-1367 # aaaaaaa9 <_end+0x1aaa5ea5>
90001570:	33253593          	sltiu	a1,a0,818
90001574:	56b12423          	sw	a1,1384(sp)

90001578 <inst_365>:
90001578:	aaaab537          	lui	a0,0xaaaab
9000157c:	aa950513          	addi	a0,a0,-1367 # aaaaaaa9 <_end+0x1aaa5ea5>
90001580:	66553593          	sltiu	a1,a0,1637
90001584:	56b12623          	sw	a1,1388(sp)

90001588 <inst_366>:
90001588:	aaaab537          	lui	a0,0xaaaab
9000158c:	aa950513          	addi	a0,a0,-1367 # aaaaaaa9 <_end+0x1aaa5ea5>
90001590:	02c53593          	sltiu	a1,a0,44
90001594:	56b12823          	sw	a1,1392(sp)

90001598 <inst_367>:
90001598:	aaaab537          	lui	a0,0xaaaab
9000159c:	aa950513          	addi	a0,a0,-1367 # aaaaaaa9 <_end+0x1aaa5ea5>
900015a0:	03e53593          	sltiu	a1,a0,62
900015a4:	56b12a23          	sw	a1,1396(sp)

900015a8 <inst_368>:
900015a8:	aaaab537          	lui	a0,0xaaaab
900015ac:	aa950513          	addi	a0,a0,-1367 # aaaaaaa9 <_end+0x1aaa5ea5>
900015b0:	55653593          	sltiu	a1,a0,1366
900015b4:	56b12c23          	sw	a1,1400(sp)

900015b8 <inst_369>:
900015b8:	aaaab537          	lui	a0,0xaaaab
900015bc:	aa950513          	addi	a0,a0,-1367 # aaaaaaa9 <_end+0x1aaa5ea5>
900015c0:	aab53593          	sltiu	a1,a0,-1365
900015c4:	56b12e23          	sw	a1,1404(sp)

900015c8 <inst_370>:
900015c8:	aaaab537          	lui	a0,0xaaaab
900015cc:	aa950513          	addi	a0,a0,-1367 # aaaaaaa9 <_end+0x1aaa5ea5>
900015d0:	00653593          	sltiu	a1,a0,6
900015d4:	58b12023          	sw	a1,1408(sp)

900015d8 <inst_371>:
900015d8:	aaaab537          	lui	a0,0xaaaab
900015dc:	aa950513          	addi	a0,a0,-1367 # aaaaaaa9 <_end+0x1aaa5ea5>
900015e0:	33453593          	sltiu	a1,a0,820
900015e4:	58b12223          	sw	a1,1412(sp)

900015e8 <inst_372>:
900015e8:	aaaab537          	lui	a0,0xaaaab
900015ec:	aa950513          	addi	a0,a0,-1367 # aaaaaaa9 <_end+0x1aaa5ea5>
900015f0:	66753593          	sltiu	a1,a0,1639
900015f4:	58b12423          	sw	a1,1416(sp)

900015f8 <inst_373>:
900015f8:	aaaab537          	lui	a0,0xaaaab
900015fc:	aa950513          	addi	a0,a0,-1367 # aaaaaaa9 <_end+0x1aaa5ea5>
90001600:	02e53593          	sltiu	a1,a0,46
90001604:	58b12623          	sw	a1,1420(sp)

90001608 <inst_374>:
90001608:	aaaab537          	lui	a0,0xaaaab
9000160c:	aa950513          	addi	a0,a0,-1367 # aaaaaaa9 <_end+0x1aaa5ea5>
90001610:	00153593          	seqz	a1,a0
90001614:	58b12823          	sw	a1,1424(sp)

90001618 <inst_375>:
90001618:	aaaab537          	lui	a0,0xaaaab
9000161c:	aa950513          	addi	a0,a0,-1367 # aaaaaaa9 <_end+0x1aaa5ea5>
90001620:	04053593          	sltiu	a1,a0,64
90001624:	58b12a23          	sw	a1,1428(sp)

90001628 <inst_376>:
90001628:	00400513          	li	a0,4
9000162c:	00353593          	sltiu	a1,a0,3
90001630:	58b12c23          	sw	a1,1432(sp)

90001634 <inst_377>:
90001634:	00400513          	li	a0,4
90001638:	55553593          	sltiu	a1,a0,1365
9000163c:	58b12e23          	sw	a1,1436(sp)

90001640 <inst_378>:
90001640:	00400513          	li	a0,4
90001644:	aaa53593          	sltiu	a1,a0,-1366
90001648:	5ab12023          	sw	a1,1440(sp)

9000164c <inst_379>:
9000164c:	00400513          	li	a0,4
90001650:	00553593          	sltiu	a1,a0,5
90001654:	5ab12223          	sw	a1,1444(sp)

90001658 <inst_380>:
90001658:	00400513          	li	a0,4
9000165c:	33353593          	sltiu	a1,a0,819
90001660:	5ab12423          	sw	a1,1448(sp)

90001664 <inst_381>:
90001664:	00400513          	li	a0,4
90001668:	66653593          	sltiu	a1,a0,1638
9000166c:	5ab12623          	sw	a1,1452(sp)

90001670 <inst_382>:
90001670:	00400513          	li	a0,4
90001674:	02d53593          	sltiu	a1,a0,45
90001678:	5ab12823          	sw	a1,1456(sp)

9000167c <inst_383>:
9000167c:	00400513          	li	a0,4
90001680:	00053593          	sltiu	a1,a0,0
90001684:	5ab12a23          	sw	a1,1460(sp)

90001688 <inst_384>:
90001688:	00400513          	li	a0,4
9000168c:	03f53593          	sltiu	a1,a0,63
90001690:	5ab12c23          	sw	a1,1464(sp)

90001694 <inst_385>:
90001694:	00400513          	li	a0,4
90001698:	00253593          	sltiu	a1,a0,2
9000169c:	5ab12e23          	sw	a1,1468(sp)

900016a0 <inst_386>:
900016a0:	00400513          	li	a0,4
900016a4:	55453593          	sltiu	a1,a0,1364
900016a8:	5cb12023          	sw	a1,1472(sp)

900016ac <inst_387>:
900016ac:	00400513          	li	a0,4
900016b0:	aa953593          	sltiu	a1,a0,-1367
900016b4:	5cb12223          	sw	a1,1476(sp)

900016b8 <inst_388>:
900016b8:	00400513          	li	a0,4
900016bc:	00453593          	sltiu	a1,a0,4
900016c0:	5cb12423          	sw	a1,1480(sp)

900016c4 <inst_389>:
900016c4:	00400513          	li	a0,4
900016c8:	33253593          	sltiu	a1,a0,818
900016cc:	5cb12623          	sw	a1,1484(sp)

900016d0 <inst_390>:
900016d0:	00400513          	li	a0,4
900016d4:	66553593          	sltiu	a1,a0,1637
900016d8:	5cb12823          	sw	a1,1488(sp)

900016dc <inst_391>:
900016dc:	00400513          	li	a0,4
900016e0:	02c53593          	sltiu	a1,a0,44
900016e4:	5cb12a23          	sw	a1,1492(sp)

900016e8 <inst_392>:
900016e8:	00400513          	li	a0,4
900016ec:	03e53593          	sltiu	a1,a0,62
900016f0:	5cb12c23          	sw	a1,1496(sp)

900016f4 <inst_393>:
900016f4:	00400513          	li	a0,4
900016f8:	55653593          	sltiu	a1,a0,1366
900016fc:	5cb12e23          	sw	a1,1500(sp)

90001700 <inst_394>:
90001700:	00400513          	li	a0,4
90001704:	aab53593          	sltiu	a1,a0,-1365
90001708:	5eb12023          	sw	a1,1504(sp)

9000170c <inst_395>:
9000170c:	00400513          	li	a0,4
90001710:	00653593          	sltiu	a1,a0,6
90001714:	5eb12223          	sw	a1,1508(sp)

90001718 <inst_396>:
90001718:	00400513          	li	a0,4
9000171c:	33453593          	sltiu	a1,a0,820
90001720:	5eb12423          	sw	a1,1512(sp)

90001724 <inst_397>:
90001724:	00400513          	li	a0,4
90001728:	66753593          	sltiu	a1,a0,1639
9000172c:	5eb12623          	sw	a1,1516(sp)

90001730 <inst_398>:
90001730:	00400513          	li	a0,4
90001734:	02e53593          	sltiu	a1,a0,46
90001738:	5eb12823          	sw	a1,1520(sp)

9000173c <inst_399>:
9000173c:	00400513          	li	a0,4
90001740:	04053593          	sltiu	a1,a0,64
90001744:	5eb12a23          	sw	a1,1524(sp)

90001748 <inst_400>:
90001748:	33333537          	lui	a0,0x33333
9000174c:	33250513          	addi	a0,a0,818 # 33333332 <offset+0x3333308e>
90001750:	00353593          	sltiu	a1,a0,3
90001754:	5eb12c23          	sw	a1,1528(sp)

90001758 <inst_401>:
90001758:	33333537          	lui	a0,0x33333
9000175c:	33250513          	addi	a0,a0,818 # 33333332 <offset+0x3333308e>
90001760:	55553593          	sltiu	a1,a0,1365
90001764:	5eb12e23          	sw	a1,1532(sp)

90001768 <inst_402>:
90001768:	33333537          	lui	a0,0x33333
9000176c:	33250513          	addi	a0,a0,818 # 33333332 <offset+0x3333308e>
90001770:	aaa53593          	sltiu	a1,a0,-1366
90001774:	60b12023          	sw	a1,1536(sp)

90001778 <inst_403>:
90001778:	33333537          	lui	a0,0x33333
9000177c:	33250513          	addi	a0,a0,818 # 33333332 <offset+0x3333308e>
90001780:	00553593          	sltiu	a1,a0,5
90001784:	60b12223          	sw	a1,1540(sp)

90001788 <inst_404>:
90001788:	33333537          	lui	a0,0x33333
9000178c:	33250513          	addi	a0,a0,818 # 33333332 <offset+0x3333308e>
90001790:	33353593          	sltiu	a1,a0,819
90001794:	60b12423          	sw	a1,1544(sp)

90001798 <inst_405>:
90001798:	33333537          	lui	a0,0x33333
9000179c:	33250513          	addi	a0,a0,818 # 33333332 <offset+0x3333308e>
900017a0:	66653593          	sltiu	a1,a0,1638
900017a4:	60b12623          	sw	a1,1548(sp)

900017a8 <inst_406>:
900017a8:	33333537          	lui	a0,0x33333
900017ac:	33250513          	addi	a0,a0,818 # 33333332 <offset+0x3333308e>
900017b0:	02d53593          	sltiu	a1,a0,45
900017b4:	60b12823          	sw	a1,1552(sp)

900017b8 <inst_407>:
900017b8:	33333537          	lui	a0,0x33333
900017bc:	33250513          	addi	a0,a0,818 # 33333332 <offset+0x3333308e>
900017c0:	00053593          	sltiu	a1,a0,0
900017c4:	60b12a23          	sw	a1,1556(sp)

900017c8 <inst_408>:
900017c8:	33333537          	lui	a0,0x33333
900017cc:	33250513          	addi	a0,a0,818 # 33333332 <offset+0x3333308e>
900017d0:	03f53593          	sltiu	a1,a0,63
900017d4:	60b12c23          	sw	a1,1560(sp)

900017d8 <inst_409>:
900017d8:	33333537          	lui	a0,0x33333
900017dc:	33250513          	addi	a0,a0,818 # 33333332 <offset+0x3333308e>
900017e0:	00253593          	sltiu	a1,a0,2
900017e4:	60b12e23          	sw	a1,1564(sp)

900017e8 <inst_410>:
900017e8:	33333537          	lui	a0,0x33333
900017ec:	33250513          	addi	a0,a0,818 # 33333332 <offset+0x3333308e>
900017f0:	55453593          	sltiu	a1,a0,1364
900017f4:	62b12023          	sw	a1,1568(sp)

900017f8 <inst_411>:
900017f8:	33333537          	lui	a0,0x33333
900017fc:	33250513          	addi	a0,a0,818 # 33333332 <offset+0x3333308e>
90001800:	aa953593          	sltiu	a1,a0,-1367
90001804:	62b12223          	sw	a1,1572(sp)

90001808 <inst_412>:
90001808:	33333537          	lui	a0,0x33333
9000180c:	33250513          	addi	a0,a0,818 # 33333332 <offset+0x3333308e>
90001810:	00453593          	sltiu	a1,a0,4
90001814:	62b12423          	sw	a1,1576(sp)

90001818 <inst_413>:
90001818:	33333537          	lui	a0,0x33333
9000181c:	33250513          	addi	a0,a0,818 # 33333332 <offset+0x3333308e>
90001820:	33253593          	sltiu	a1,a0,818
90001824:	62b12623          	sw	a1,1580(sp)

90001828 <inst_414>:
90001828:	33333537          	lui	a0,0x33333
9000182c:	33250513          	addi	a0,a0,818 # 33333332 <offset+0x3333308e>
90001830:	66553593          	sltiu	a1,a0,1637
90001834:	62b12823          	sw	a1,1584(sp)

90001838 <inst_415>:
90001838:	33333537          	lui	a0,0x33333
9000183c:	33250513          	addi	a0,a0,818 # 33333332 <offset+0x3333308e>
90001840:	02c53593          	sltiu	a1,a0,44
90001844:	62b12a23          	sw	a1,1588(sp)

90001848 <inst_416>:
90001848:	33333537          	lui	a0,0x33333
9000184c:	33250513          	addi	a0,a0,818 # 33333332 <offset+0x3333308e>
90001850:	03e53593          	sltiu	a1,a0,62
90001854:	62b12c23          	sw	a1,1592(sp)

90001858 <inst_417>:
90001858:	33333537          	lui	a0,0x33333
9000185c:	33250513          	addi	a0,a0,818 # 33333332 <offset+0x3333308e>
90001860:	55653593          	sltiu	a1,a0,1366
90001864:	62b12e23          	sw	a1,1596(sp)

90001868 <inst_418>:
90001868:	33333537          	lui	a0,0x33333
9000186c:	33250513          	addi	a0,a0,818 # 33333332 <offset+0x3333308e>
90001870:	aab53593          	sltiu	a1,a0,-1365
90001874:	64b12023          	sw	a1,1600(sp)

90001878 <inst_419>:
90001878:	33333537          	lui	a0,0x33333
9000187c:	33250513          	addi	a0,a0,818 # 33333332 <offset+0x3333308e>
90001880:	00653593          	sltiu	a1,a0,6
90001884:	64b12223          	sw	a1,1604(sp)

90001888 <inst_420>:
90001888:	33333537          	lui	a0,0x33333
9000188c:	33250513          	addi	a0,a0,818 # 33333332 <offset+0x3333308e>
90001890:	33453593          	sltiu	a1,a0,820
90001894:	64b12423          	sw	a1,1608(sp)

90001898 <inst_421>:
90001898:	33333537          	lui	a0,0x33333
9000189c:	33250513          	addi	a0,a0,818 # 33333332 <offset+0x3333308e>
900018a0:	66753593          	sltiu	a1,a0,1639
900018a4:	64b12623          	sw	a1,1612(sp)

900018a8 <inst_422>:
900018a8:	33333537          	lui	a0,0x33333
900018ac:	33250513          	addi	a0,a0,818 # 33333332 <offset+0x3333308e>
900018b0:	02e53593          	sltiu	a1,a0,46
900018b4:	64b12823          	sw	a1,1616(sp)

900018b8 <inst_423>:
900018b8:	33333537          	lui	a0,0x33333
900018bc:	33250513          	addi	a0,a0,818 # 33333332 <offset+0x3333308e>
900018c0:	00153593          	seqz	a1,a0
900018c4:	64b12a23          	sw	a1,1620(sp)

900018c8 <inst_424>:
900018c8:	33333537          	lui	a0,0x33333
900018cc:	33250513          	addi	a0,a0,818 # 33333332 <offset+0x3333308e>
900018d0:	04053593          	sltiu	a1,a0,64
900018d4:	64b12c23          	sw	a1,1624(sp)

900018d8 <inst_425>:
900018d8:	66666537          	lui	a0,0x66666
900018dc:	66550513          	addi	a0,a0,1637 # 66666665 <offset+0x666663c1>
900018e0:	00353593          	sltiu	a1,a0,3
900018e4:	64b12e23          	sw	a1,1628(sp)

900018e8 <inst_426>:
900018e8:	66666537          	lui	a0,0x66666
900018ec:	66550513          	addi	a0,a0,1637 # 66666665 <offset+0x666663c1>
900018f0:	55553593          	sltiu	a1,a0,1365
900018f4:	66b12023          	sw	a1,1632(sp)

900018f8 <inst_427>:
900018f8:	66666537          	lui	a0,0x66666
900018fc:	66550513          	addi	a0,a0,1637 # 66666665 <offset+0x666663c1>
90001900:	aaa53593          	sltiu	a1,a0,-1366
90001904:	66b12223          	sw	a1,1636(sp)

90001908 <inst_428>:
90001908:	66666537          	lui	a0,0x66666
9000190c:	66550513          	addi	a0,a0,1637 # 66666665 <offset+0x666663c1>
90001910:	00553593          	sltiu	a1,a0,5
90001914:	66b12423          	sw	a1,1640(sp)

90001918 <inst_429>:
90001918:	66666537          	lui	a0,0x66666
9000191c:	66550513          	addi	a0,a0,1637 # 66666665 <offset+0x666663c1>
90001920:	33353593          	sltiu	a1,a0,819
90001924:	66b12623          	sw	a1,1644(sp)

90001928 <inst_430>:
90001928:	66666537          	lui	a0,0x66666
9000192c:	66550513          	addi	a0,a0,1637 # 66666665 <offset+0x666663c1>
90001930:	66653593          	sltiu	a1,a0,1638
90001934:	66b12823          	sw	a1,1648(sp)

90001938 <inst_431>:
90001938:	66666537          	lui	a0,0x66666
9000193c:	66550513          	addi	a0,a0,1637 # 66666665 <offset+0x666663c1>
90001940:	02d53593          	sltiu	a1,a0,45
90001944:	66b12a23          	sw	a1,1652(sp)

90001948 <inst_432>:
90001948:	66666537          	lui	a0,0x66666
9000194c:	66550513          	addi	a0,a0,1637 # 66666665 <offset+0x666663c1>
90001950:	00053593          	sltiu	a1,a0,0
90001954:	66b12c23          	sw	a1,1656(sp)

90001958 <inst_433>:
90001958:	66666537          	lui	a0,0x66666
9000195c:	66550513          	addi	a0,a0,1637 # 66666665 <offset+0x666663c1>
90001960:	03f53593          	sltiu	a1,a0,63
90001964:	66b12e23          	sw	a1,1660(sp)

90001968 <inst_434>:
90001968:	66666537          	lui	a0,0x66666
9000196c:	66550513          	addi	a0,a0,1637 # 66666665 <offset+0x666663c1>
90001970:	00253593          	sltiu	a1,a0,2
90001974:	68b12023          	sw	a1,1664(sp)

90001978 <inst_435>:
90001978:	66666537          	lui	a0,0x66666
9000197c:	66550513          	addi	a0,a0,1637 # 66666665 <offset+0x666663c1>
90001980:	55453593          	sltiu	a1,a0,1364
90001984:	68b12223          	sw	a1,1668(sp)

90001988 <inst_436>:
90001988:	66666537          	lui	a0,0x66666
9000198c:	66550513          	addi	a0,a0,1637 # 66666665 <offset+0x666663c1>
90001990:	aa953593          	sltiu	a1,a0,-1367
90001994:	68b12423          	sw	a1,1672(sp)

90001998 <inst_437>:
90001998:	66666537          	lui	a0,0x66666
9000199c:	66550513          	addi	a0,a0,1637 # 66666665 <offset+0x666663c1>
900019a0:	00453593          	sltiu	a1,a0,4
900019a4:	68b12623          	sw	a1,1676(sp)

900019a8 <inst_438>:
900019a8:	66666537          	lui	a0,0x66666
900019ac:	66550513          	addi	a0,a0,1637 # 66666665 <offset+0x666663c1>
900019b0:	33253593          	sltiu	a1,a0,818
900019b4:	68b12823          	sw	a1,1680(sp)

900019b8 <inst_439>:
900019b8:	66666537          	lui	a0,0x66666
900019bc:	66550513          	addi	a0,a0,1637 # 66666665 <offset+0x666663c1>
900019c0:	66553593          	sltiu	a1,a0,1637
900019c4:	68b12a23          	sw	a1,1684(sp)

900019c8 <inst_440>:
900019c8:	66666537          	lui	a0,0x66666
900019cc:	66550513          	addi	a0,a0,1637 # 66666665 <offset+0x666663c1>
900019d0:	02c53593          	sltiu	a1,a0,44
900019d4:	68b12c23          	sw	a1,1688(sp)

900019d8 <inst_441>:
900019d8:	66666537          	lui	a0,0x66666
900019dc:	66550513          	addi	a0,a0,1637 # 66666665 <offset+0x666663c1>
900019e0:	03e53593          	sltiu	a1,a0,62
900019e4:	68b12e23          	sw	a1,1692(sp)

900019e8 <inst_442>:
900019e8:	66666537          	lui	a0,0x66666
900019ec:	66550513          	addi	a0,a0,1637 # 66666665 <offset+0x666663c1>
900019f0:	55653593          	sltiu	a1,a0,1366
900019f4:	6ab12023          	sw	a1,1696(sp)

900019f8 <inst_443>:
900019f8:	00010537          	lui	a0,0x10
900019fc:	ffe50513          	addi	a0,a0,-2 # fffe <offset+0xfd5a>
90001a00:	66553593          	sltiu	a1,a0,1637
90001a04:	6ab12223          	sw	a1,1700(sp)

90001a08 <inst_444>:
90001a08:	00010537          	lui	a0,0x10
90001a0c:	ffe50513          	addi	a0,a0,-2 # fffe <offset+0xfd5a>
90001a10:	02c53593          	sltiu	a1,a0,44
90001a14:	6ab12423          	sw	a1,1704(sp)

90001a18 <inst_445>:
90001a18:	00010537          	lui	a0,0x10
90001a1c:	ffe50513          	addi	a0,a0,-2 # fffe <offset+0xfd5a>
90001a20:	03e53593          	sltiu	a1,a0,62
90001a24:	6ab12623          	sw	a1,1708(sp)

90001a28 <inst_446>:
90001a28:	00010537          	lui	a0,0x10
90001a2c:	ffe50513          	addi	a0,a0,-2 # fffe <offset+0xfd5a>
90001a30:	55653593          	sltiu	a1,a0,1366
90001a34:	6ab12823          	sw	a1,1712(sp)

90001a38 <inst_447>:
90001a38:	00010537          	lui	a0,0x10
90001a3c:	ffe50513          	addi	a0,a0,-2 # fffe <offset+0xfd5a>
90001a40:	aab53593          	sltiu	a1,a0,-1365
90001a44:	6ab12a23          	sw	a1,1716(sp)

90001a48 <inst_448>:
90001a48:	00010537          	lui	a0,0x10
90001a4c:	ffe50513          	addi	a0,a0,-2 # fffe <offset+0xfd5a>
90001a50:	00653593          	sltiu	a1,a0,6
90001a54:	6ab12c23          	sw	a1,1720(sp)

90001a58 <inst_449>:
90001a58:	00010537          	lui	a0,0x10
90001a5c:	ffe50513          	addi	a0,a0,-2 # fffe <offset+0xfd5a>
90001a60:	33453593          	sltiu	a1,a0,820
90001a64:	6ab12e23          	sw	a1,1724(sp)

90001a68 <inst_450>:
90001a68:	00010537          	lui	a0,0x10
90001a6c:	ffe50513          	addi	a0,a0,-2 # fffe <offset+0xfd5a>
90001a70:	66753593          	sltiu	a1,a0,1639
90001a74:	6cb12023          	sw	a1,1728(sp)

90001a78 <inst_451>:
90001a78:	00010537          	lui	a0,0x10
90001a7c:	ffe50513          	addi	a0,a0,-2 # fffe <offset+0xfd5a>
90001a80:	02e53593          	sltiu	a1,a0,46
90001a84:	6cb12223          	sw	a1,1732(sp)

90001a88 <inst_452>:
90001a88:	00010537          	lui	a0,0x10
90001a8c:	ffe50513          	addi	a0,a0,-2 # fffe <offset+0xfd5a>
90001a90:	00153593          	seqz	a1,a0
90001a94:	6cb12423          	sw	a1,1736(sp)

90001a98 <inst_453>:
90001a98:	00010537          	lui	a0,0x10
90001a9c:	ffe50513          	addi	a0,a0,-2 # fffe <offset+0xfd5a>
90001aa0:	04053593          	sltiu	a1,a0,64
90001aa4:	6cb12623          	sw	a1,1740(sp)

90001aa8 <inst_454>:
90001aa8:	55555537          	lui	a0,0x55555
90001aac:	55650513          	addi	a0,a0,1366 # 55555556 <offset+0x555552b2>
90001ab0:	00353593          	sltiu	a1,a0,3
90001ab4:	6cb12823          	sw	a1,1744(sp)

90001ab8 <inst_455>:
90001ab8:	55555537          	lui	a0,0x55555
90001abc:	55650513          	addi	a0,a0,1366 # 55555556 <offset+0x555552b2>
90001ac0:	55553593          	sltiu	a1,a0,1365
90001ac4:	6cb12a23          	sw	a1,1748(sp)

90001ac8 <inst_456>:
90001ac8:	55555537          	lui	a0,0x55555
90001acc:	55650513          	addi	a0,a0,1366 # 55555556 <offset+0x555552b2>
90001ad0:	aaa53593          	sltiu	a1,a0,-1366
90001ad4:	6cb12c23          	sw	a1,1752(sp)

90001ad8 <inst_457>:
90001ad8:	55555537          	lui	a0,0x55555
90001adc:	55650513          	addi	a0,a0,1366 # 55555556 <offset+0x555552b2>
90001ae0:	00553593          	sltiu	a1,a0,5
90001ae4:	6cb12e23          	sw	a1,1756(sp)

90001ae8 <inst_458>:
90001ae8:	55555537          	lui	a0,0x55555
90001aec:	55650513          	addi	a0,a0,1366 # 55555556 <offset+0x555552b2>
90001af0:	33353593          	sltiu	a1,a0,819
90001af4:	6eb12023          	sw	a1,1760(sp)

90001af8 <inst_459>:
90001af8:	55555537          	lui	a0,0x55555
90001afc:	55650513          	addi	a0,a0,1366 # 55555556 <offset+0x555552b2>
90001b00:	66653593          	sltiu	a1,a0,1638
90001b04:	6eb12223          	sw	a1,1764(sp)

90001b08 <inst_460>:
90001b08:	55555537          	lui	a0,0x55555
90001b0c:	55650513          	addi	a0,a0,1366 # 55555556 <offset+0x555552b2>
90001b10:	02d53593          	sltiu	a1,a0,45
90001b14:	6eb12423          	sw	a1,1768(sp)

90001b18 <inst_461>:
90001b18:	55555537          	lui	a0,0x55555
90001b1c:	55650513          	addi	a0,a0,1366 # 55555556 <offset+0x555552b2>
90001b20:	00053593          	sltiu	a1,a0,0
90001b24:	6eb12623          	sw	a1,1772(sp)

90001b28 <inst_462>:
90001b28:	55555537          	lui	a0,0x55555
90001b2c:	55650513          	addi	a0,a0,1366 # 55555556 <offset+0x555552b2>
90001b30:	03f53593          	sltiu	a1,a0,63
90001b34:	6eb12823          	sw	a1,1776(sp)

90001b38 <inst_463>:
90001b38:	55555537          	lui	a0,0x55555
90001b3c:	55650513          	addi	a0,a0,1366 # 55555556 <offset+0x555552b2>
90001b40:	00253593          	sltiu	a1,a0,2
90001b44:	6eb12a23          	sw	a1,1780(sp)

90001b48 <inst_464>:
90001b48:	55555537          	lui	a0,0x55555
90001b4c:	55650513          	addi	a0,a0,1366 # 55555556 <offset+0x555552b2>
90001b50:	55453593          	sltiu	a1,a0,1364
90001b54:	6eb12c23          	sw	a1,1784(sp)

90001b58 <inst_465>:
90001b58:	55555537          	lui	a0,0x55555
90001b5c:	55650513          	addi	a0,a0,1366 # 55555556 <offset+0x555552b2>
90001b60:	aa953593          	sltiu	a1,a0,-1367
90001b64:	6eb12e23          	sw	a1,1788(sp)

90001b68 <inst_466>:
90001b68:	55555537          	lui	a0,0x55555
90001b6c:	55650513          	addi	a0,a0,1366 # 55555556 <offset+0x555552b2>
90001b70:	00453593          	sltiu	a1,a0,4
90001b74:	70b12023          	sw	a1,1792(sp)

90001b78 <inst_467>:
90001b78:	55555537          	lui	a0,0x55555
90001b7c:	55650513          	addi	a0,a0,1366 # 55555556 <offset+0x555552b2>
90001b80:	33253593          	sltiu	a1,a0,818
90001b84:	70b12223          	sw	a1,1796(sp)

90001b88 <inst_468>:
90001b88:	55555537          	lui	a0,0x55555
90001b8c:	55650513          	addi	a0,a0,1366 # 55555556 <offset+0x555552b2>
90001b90:	66553593          	sltiu	a1,a0,1637
90001b94:	70b12423          	sw	a1,1800(sp)

90001b98 <inst_469>:
90001b98:	55555537          	lui	a0,0x55555
90001b9c:	55650513          	addi	a0,a0,1366 # 55555556 <offset+0x555552b2>
90001ba0:	02c53593          	sltiu	a1,a0,44
90001ba4:	70b12623          	sw	a1,1804(sp)

90001ba8 <inst_470>:
90001ba8:	55555537          	lui	a0,0x55555
90001bac:	55650513          	addi	a0,a0,1366 # 55555556 <offset+0x555552b2>
90001bb0:	03e53593          	sltiu	a1,a0,62
90001bb4:	70b12823          	sw	a1,1808(sp)

90001bb8 <inst_471>:
90001bb8:	55555537          	lui	a0,0x55555
90001bbc:	55650513          	addi	a0,a0,1366 # 55555556 <offset+0x555552b2>
90001bc0:	55653593          	sltiu	a1,a0,1366
90001bc4:	70b12a23          	sw	a1,1812(sp)

90001bc8 <inst_472>:
90001bc8:	55555537          	lui	a0,0x55555
90001bcc:	55650513          	addi	a0,a0,1366 # 55555556 <offset+0x555552b2>
90001bd0:	aab53593          	sltiu	a1,a0,-1365
90001bd4:	70b12c23          	sw	a1,1816(sp)

90001bd8 <inst_473>:
90001bd8:	55555537          	lui	a0,0x55555
90001bdc:	55650513          	addi	a0,a0,1366 # 55555556 <offset+0x555552b2>
90001be0:	00653593          	sltiu	a1,a0,6
90001be4:	70b12e23          	sw	a1,1820(sp)

90001be8 <inst_474>:
90001be8:	55555537          	lui	a0,0x55555
90001bec:	55650513          	addi	a0,a0,1366 # 55555556 <offset+0x555552b2>
90001bf0:	33453593          	sltiu	a1,a0,820
90001bf4:	72b12023          	sw	a1,1824(sp)

90001bf8 <inst_475>:
90001bf8:	55555537          	lui	a0,0x55555
90001bfc:	55650513          	addi	a0,a0,1366 # 55555556 <offset+0x555552b2>
90001c00:	66753593          	sltiu	a1,a0,1639
90001c04:	72b12223          	sw	a1,1828(sp)

90001c08 <inst_476>:
90001c08:	55555537          	lui	a0,0x55555
90001c0c:	55650513          	addi	a0,a0,1366 # 55555556 <offset+0x555552b2>
90001c10:	02e53593          	sltiu	a1,a0,46
90001c14:	72b12423          	sw	a1,1832(sp)

90001c18 <inst_477>:
90001c18:	55555537          	lui	a0,0x55555
90001c1c:	55650513          	addi	a0,a0,1366 # 55555556 <offset+0x555552b2>
90001c20:	00153593          	seqz	a1,a0
90001c24:	72b12623          	sw	a1,1836(sp)

90001c28 <inst_478>:
90001c28:	55555537          	lui	a0,0x55555
90001c2c:	55650513          	addi	a0,a0,1366 # 55555556 <offset+0x555552b2>
90001c30:	04053593          	sltiu	a1,a0,64
90001c34:	72b12823          	sw	a1,1840(sp)

90001c38 <inst_479>:
90001c38:	aaaab537          	lui	a0,0xaaaab
90001c3c:	aab50513          	addi	a0,a0,-1365 # aaaaaaab <_end+0x1aaa5ea7>
90001c40:	00353593          	sltiu	a1,a0,3
90001c44:	72b12a23          	sw	a1,1844(sp)

90001c48 <inst_480>:
90001c48:	aaaab537          	lui	a0,0xaaaab
90001c4c:	aab50513          	addi	a0,a0,-1365 # aaaaaaab <_end+0x1aaa5ea7>
90001c50:	55553593          	sltiu	a1,a0,1365
90001c54:	72b12c23          	sw	a1,1848(sp)

90001c58 <inst_481>:
90001c58:	aaaab537          	lui	a0,0xaaaab
90001c5c:	aab50513          	addi	a0,a0,-1365 # aaaaaaab <_end+0x1aaa5ea7>
90001c60:	aaa53593          	sltiu	a1,a0,-1366
90001c64:	72b12e23          	sw	a1,1852(sp)

90001c68 <inst_482>:
90001c68:	aaaab537          	lui	a0,0xaaaab
90001c6c:	aab50513          	addi	a0,a0,-1365 # aaaaaaab <_end+0x1aaa5ea7>
90001c70:	00553593          	sltiu	a1,a0,5
90001c74:	74b12023          	sw	a1,1856(sp)

90001c78 <inst_483>:
90001c78:	aaaab537          	lui	a0,0xaaaab
90001c7c:	aab50513          	addi	a0,a0,-1365 # aaaaaaab <_end+0x1aaa5ea7>
90001c80:	33353593          	sltiu	a1,a0,819
90001c84:	74b12223          	sw	a1,1860(sp)

90001c88 <inst_484>:
90001c88:	aaaab537          	lui	a0,0xaaaab
90001c8c:	aab50513          	addi	a0,a0,-1365 # aaaaaaab <_end+0x1aaa5ea7>
90001c90:	66653593          	sltiu	a1,a0,1638
90001c94:	74b12423          	sw	a1,1864(sp)

90001c98 <inst_485>:
90001c98:	aaaab537          	lui	a0,0xaaaab
90001c9c:	aab50513          	addi	a0,a0,-1365 # aaaaaaab <_end+0x1aaa5ea7>
90001ca0:	02d53593          	sltiu	a1,a0,45
90001ca4:	74b12623          	sw	a1,1868(sp)

90001ca8 <inst_486>:
90001ca8:	aaaab537          	lui	a0,0xaaaab
90001cac:	aab50513          	addi	a0,a0,-1365 # aaaaaaab <_end+0x1aaa5ea7>
90001cb0:	00053593          	sltiu	a1,a0,0
90001cb4:	74b12823          	sw	a1,1872(sp)

90001cb8 <inst_487>:
90001cb8:	aaaab537          	lui	a0,0xaaaab
90001cbc:	aab50513          	addi	a0,a0,-1365 # aaaaaaab <_end+0x1aaa5ea7>
90001cc0:	03f53593          	sltiu	a1,a0,63
90001cc4:	74b12a23          	sw	a1,1876(sp)

90001cc8 <inst_488>:
90001cc8:	aaaab537          	lui	a0,0xaaaab
90001ccc:	aab50513          	addi	a0,a0,-1365 # aaaaaaab <_end+0x1aaa5ea7>
90001cd0:	00253593          	sltiu	a1,a0,2
90001cd4:	74b12c23          	sw	a1,1880(sp)

90001cd8 <inst_489>:
90001cd8:	aaaab537          	lui	a0,0xaaaab
90001cdc:	aab50513          	addi	a0,a0,-1365 # aaaaaaab <_end+0x1aaa5ea7>
90001ce0:	55453593          	sltiu	a1,a0,1364
90001ce4:	74b12e23          	sw	a1,1884(sp)

90001ce8 <inst_490>:
90001ce8:	aaaab537          	lui	a0,0xaaaab
90001cec:	aab50513          	addi	a0,a0,-1365 # aaaaaaab <_end+0x1aaa5ea7>
90001cf0:	aa953593          	sltiu	a1,a0,-1367
90001cf4:	76b12023          	sw	a1,1888(sp)

90001cf8 <inst_491>:
90001cf8:	aaaab537          	lui	a0,0xaaaab
90001cfc:	aab50513          	addi	a0,a0,-1365 # aaaaaaab <_end+0x1aaa5ea7>
90001d00:	00453593          	sltiu	a1,a0,4
90001d04:	76b12223          	sw	a1,1892(sp)

90001d08 <inst_492>:
90001d08:	aaaab537          	lui	a0,0xaaaab
90001d0c:	aab50513          	addi	a0,a0,-1365 # aaaaaaab <_end+0x1aaa5ea7>
90001d10:	33253593          	sltiu	a1,a0,818
90001d14:	76b12423          	sw	a1,1896(sp)

90001d18 <inst_493>:
90001d18:	aaaab537          	lui	a0,0xaaaab
90001d1c:	aab50513          	addi	a0,a0,-1365 # aaaaaaab <_end+0x1aaa5ea7>
90001d20:	66553593          	sltiu	a1,a0,1637
90001d24:	76b12623          	sw	a1,1900(sp)

90001d28 <inst_494>:
90001d28:	aaaab537          	lui	a0,0xaaaab
90001d2c:	aab50513          	addi	a0,a0,-1365 # aaaaaaab <_end+0x1aaa5ea7>
90001d30:	02c53593          	sltiu	a1,a0,44
90001d34:	76b12823          	sw	a1,1904(sp)

90001d38 <inst_495>:
90001d38:	aaaab537          	lui	a0,0xaaaab
90001d3c:	aab50513          	addi	a0,a0,-1365 # aaaaaaab <_end+0x1aaa5ea7>
90001d40:	03e53593          	sltiu	a1,a0,62
90001d44:	76b12a23          	sw	a1,1908(sp)

90001d48 <inst_496>:
90001d48:	aaaab537          	lui	a0,0xaaaab
90001d4c:	aab50513          	addi	a0,a0,-1365 # aaaaaaab <_end+0x1aaa5ea7>
90001d50:	55653593          	sltiu	a1,a0,1366
90001d54:	76b12c23          	sw	a1,1912(sp)

90001d58 <inst_497>:
90001d58:	aaaab537          	lui	a0,0xaaaab
90001d5c:	aab50513          	addi	a0,a0,-1365 # aaaaaaab <_end+0x1aaa5ea7>
90001d60:	aab53593          	sltiu	a1,a0,-1365
90001d64:	76b12e23          	sw	a1,1916(sp)

90001d68 <inst_498>:
90001d68:	aaaab537          	lui	a0,0xaaaab
90001d6c:	aab50513          	addi	a0,a0,-1365 # aaaaaaab <_end+0x1aaa5ea7>
90001d70:	00653593          	sltiu	a1,a0,6
90001d74:	78b12023          	sw	a1,1920(sp)

90001d78 <inst_499>:
90001d78:	aaaab537          	lui	a0,0xaaaab
90001d7c:	aab50513          	addi	a0,a0,-1365 # aaaaaaab <_end+0x1aaa5ea7>
90001d80:	33453593          	sltiu	a1,a0,820
90001d84:	78b12223          	sw	a1,1924(sp)

90001d88 <inst_500>:
90001d88:	aaaab537          	lui	a0,0xaaaab
90001d8c:	aab50513          	addi	a0,a0,-1365 # aaaaaaab <_end+0x1aaa5ea7>
90001d90:	66753593          	sltiu	a1,a0,1639
90001d94:	78b12423          	sw	a1,1928(sp)

90001d98 <inst_501>:
90001d98:	aaaab537          	lui	a0,0xaaaab
90001d9c:	aab50513          	addi	a0,a0,-1365 # aaaaaaab <_end+0x1aaa5ea7>
90001da0:	02e53593          	sltiu	a1,a0,46
90001da4:	78b12623          	sw	a1,1932(sp)

90001da8 <inst_502>:
90001da8:	aaaab537          	lui	a0,0xaaaab
90001dac:	aab50513          	addi	a0,a0,-1365 # aaaaaaab <_end+0x1aaa5ea7>
90001db0:	00153593          	seqz	a1,a0
90001db4:	78b12823          	sw	a1,1936(sp)

90001db8 <inst_503>:
90001db8:	aaaab537          	lui	a0,0xaaaab
90001dbc:	aab50513          	addi	a0,a0,-1365 # aaaaaaab <_end+0x1aaa5ea7>
90001dc0:	04053593          	sltiu	a1,a0,64
90001dc4:	78b12a23          	sw	a1,1940(sp)

90001dc8 <inst_504>:
90001dc8:	00600513          	li	a0,6
90001dcc:	00353593          	sltiu	a1,a0,3
90001dd0:	78b12c23          	sw	a1,1944(sp)

90001dd4 <inst_505>:
90001dd4:	00600513          	li	a0,6
90001dd8:	55553593          	sltiu	a1,a0,1365
90001ddc:	78b12e23          	sw	a1,1948(sp)

90001de0 <inst_506>:
90001de0:	00600513          	li	a0,6
90001de4:	aaa53593          	sltiu	a1,a0,-1366
90001de8:	7ab12023          	sw	a1,1952(sp)

90001dec <inst_507>:
90001dec:	00600513          	li	a0,6
90001df0:	00553593          	sltiu	a1,a0,5
90001df4:	7ab12223          	sw	a1,1956(sp)

90001df8 <inst_508>:
90001df8:	00600513          	li	a0,6
90001dfc:	33353593          	sltiu	a1,a0,819
90001e00:	7ab12423          	sw	a1,1960(sp)

90001e04 <inst_509>:
90001e04:	00600513          	li	a0,6
90001e08:	66653593          	sltiu	a1,a0,1638
90001e0c:	7ab12623          	sw	a1,1964(sp)

90001e10 <inst_510>:
90001e10:	00600513          	li	a0,6
90001e14:	02d53593          	sltiu	a1,a0,45
90001e18:	7ab12823          	sw	a1,1968(sp)

90001e1c <inst_511>:
90001e1c:	00600513          	li	a0,6
90001e20:	00053593          	sltiu	a1,a0,0
90001e24:	7ab12a23          	sw	a1,1972(sp)

90001e28 <inst_512>:
90001e28:	00600513          	li	a0,6
90001e2c:	03f53593          	sltiu	a1,a0,63
90001e30:	7ab12c23          	sw	a1,1976(sp)

90001e34 <inst_513>:
90001e34:	00600513          	li	a0,6
90001e38:	00253593          	sltiu	a1,a0,2
90001e3c:	7ab12e23          	sw	a1,1980(sp)

90001e40 <inst_514>:
90001e40:	00600513          	li	a0,6
90001e44:	55453593          	sltiu	a1,a0,1364
90001e48:	7cb12023          	sw	a1,1984(sp)

90001e4c <inst_515>:
90001e4c:	00600513          	li	a0,6
90001e50:	aa953593          	sltiu	a1,a0,-1367
90001e54:	7cb12223          	sw	a1,1988(sp)

90001e58 <inst_516>:
90001e58:	00600513          	li	a0,6
90001e5c:	00453593          	sltiu	a1,a0,4
90001e60:	7cb12423          	sw	a1,1992(sp)

90001e64 <inst_517>:
90001e64:	00600513          	li	a0,6
90001e68:	33253593          	sltiu	a1,a0,818
90001e6c:	7cb12623          	sw	a1,1996(sp)

90001e70 <inst_518>:
90001e70:	00600513          	li	a0,6
90001e74:	66553593          	sltiu	a1,a0,1637
90001e78:	7cb12823          	sw	a1,2000(sp)

90001e7c <inst_519>:
90001e7c:	00600513          	li	a0,6
90001e80:	02c53593          	sltiu	a1,a0,44
90001e84:	7cb12a23          	sw	a1,2004(sp)

90001e88 <inst_520>:
90001e88:	00600513          	li	a0,6
90001e8c:	03e53593          	sltiu	a1,a0,62
90001e90:	7cb12c23          	sw	a1,2008(sp)

90001e94 <inst_521>:
90001e94:	00600513          	li	a0,6
90001e98:	55653593          	sltiu	a1,a0,1366
90001e9c:	7cb12e23          	sw	a1,2012(sp)

90001ea0 <inst_522>:
90001ea0:	00600513          	li	a0,6
90001ea4:	aab53593          	sltiu	a1,a0,-1365
90001ea8:	7eb12023          	sw	a1,2016(sp)

90001eac <inst_523>:
90001eac:	00600513          	li	a0,6
90001eb0:	00653593          	sltiu	a1,a0,6
90001eb4:	7eb12223          	sw	a1,2020(sp)

90001eb8 <inst_524>:
90001eb8:	00600513          	li	a0,6
90001ebc:	33453593          	sltiu	a1,a0,820
90001ec0:	7eb12423          	sw	a1,2024(sp)

90001ec4 <inst_525>:
90001ec4:	00600513          	li	a0,6
90001ec8:	66753593          	sltiu	a1,a0,1639
90001ecc:	7eb12623          	sw	a1,2028(sp)

90001ed0 <inst_526>:
90001ed0:	00600513          	li	a0,6
90001ed4:	02e53593          	sltiu	a1,a0,46
90001ed8:	7eb12823          	sw	a1,2032(sp)

90001edc <inst_527>:
90001edc:	00600513          	li	a0,6
90001ee0:	00153593          	seqz	a1,a0
90001ee4:	7eb12a23          	sw	a1,2036(sp)

90001ee8 <inst_528>:
90001ee8:	00600513          	li	a0,6
90001eec:	04053593          	sltiu	a1,a0,64
90001ef0:	7eb12c23          	sw	a1,2040(sp)

90001ef4 <inst_529>:
90001ef4:	33333537          	lui	a0,0x33333
90001ef8:	33450513          	addi	a0,a0,820 # 33333334 <offset+0x33333090>
90001efc:	00353593          	sltiu	a1,a0,3
90001f00:	7eb12e23          	sw	a1,2044(sp)
90001f04:	00003117          	auipc	sp,0x3
90001f08:	95410113          	addi	sp,sp,-1708 # 90004858 <signature_x2_1>

90001f0c <inst_530>:
90001f0c:	33333537          	lui	a0,0x33333
90001f10:	33450513          	addi	a0,a0,820 # 33333334 <offset+0x33333090>
90001f14:	55553593          	sltiu	a1,a0,1365
90001f18:	00b12023          	sw	a1,0(sp)

90001f1c <inst_531>:
90001f1c:	33333537          	lui	a0,0x33333
90001f20:	33450513          	addi	a0,a0,820 # 33333334 <offset+0x33333090>
90001f24:	aaa53593          	sltiu	a1,a0,-1366
90001f28:	00b12223          	sw	a1,4(sp)

90001f2c <inst_532>:
90001f2c:	33333537          	lui	a0,0x33333
90001f30:	33450513          	addi	a0,a0,820 # 33333334 <offset+0x33333090>
90001f34:	00553593          	sltiu	a1,a0,5
90001f38:	00b12423          	sw	a1,8(sp)

90001f3c <inst_533>:
90001f3c:	33333537          	lui	a0,0x33333
90001f40:	33450513          	addi	a0,a0,820 # 33333334 <offset+0x33333090>
90001f44:	33353593          	sltiu	a1,a0,819
90001f48:	00b12623          	sw	a1,12(sp)

90001f4c <inst_534>:
90001f4c:	33333537          	lui	a0,0x33333
90001f50:	33450513          	addi	a0,a0,820 # 33333334 <offset+0x33333090>
90001f54:	66653593          	sltiu	a1,a0,1638
90001f58:	00b12823          	sw	a1,16(sp)

90001f5c <inst_535>:
90001f5c:	33333537          	lui	a0,0x33333
90001f60:	33450513          	addi	a0,a0,820 # 33333334 <offset+0x33333090>
90001f64:	02d53593          	sltiu	a1,a0,45
90001f68:	00b12a23          	sw	a1,20(sp)

90001f6c <inst_536>:
90001f6c:	33333537          	lui	a0,0x33333
90001f70:	33450513          	addi	a0,a0,820 # 33333334 <offset+0x33333090>
90001f74:	00053593          	sltiu	a1,a0,0
90001f78:	00b12c23          	sw	a1,24(sp)

90001f7c <inst_537>:
90001f7c:	33333537          	lui	a0,0x33333
90001f80:	33450513          	addi	a0,a0,820 # 33333334 <offset+0x33333090>
90001f84:	03f53593          	sltiu	a1,a0,63
90001f88:	00b12e23          	sw	a1,28(sp)

90001f8c <inst_538>:
90001f8c:	33333537          	lui	a0,0x33333
90001f90:	33450513          	addi	a0,a0,820 # 33333334 <offset+0x33333090>
90001f94:	00253593          	sltiu	a1,a0,2
90001f98:	02b12023          	sw	a1,32(sp)

90001f9c <inst_539>:
90001f9c:	33333537          	lui	a0,0x33333
90001fa0:	33450513          	addi	a0,a0,820 # 33333334 <offset+0x33333090>
90001fa4:	55453593          	sltiu	a1,a0,1364
90001fa8:	02b12223          	sw	a1,36(sp)

90001fac <inst_540>:
90001fac:	33333537          	lui	a0,0x33333
90001fb0:	33450513          	addi	a0,a0,820 # 33333334 <offset+0x33333090>
90001fb4:	aa953593          	sltiu	a1,a0,-1367
90001fb8:	02b12423          	sw	a1,40(sp)

90001fbc <inst_541>:
90001fbc:	33333537          	lui	a0,0x33333
90001fc0:	33450513          	addi	a0,a0,820 # 33333334 <offset+0x33333090>
90001fc4:	00453593          	sltiu	a1,a0,4
90001fc8:	02b12623          	sw	a1,44(sp)

90001fcc <inst_542>:
90001fcc:	33333537          	lui	a0,0x33333
90001fd0:	33450513          	addi	a0,a0,820 # 33333334 <offset+0x33333090>
90001fd4:	33253593          	sltiu	a1,a0,818
90001fd8:	02b12823          	sw	a1,48(sp)

90001fdc <inst_543>:
90001fdc:	33333537          	lui	a0,0x33333
90001fe0:	33450513          	addi	a0,a0,820 # 33333334 <offset+0x33333090>
90001fe4:	66553593          	sltiu	a1,a0,1637
90001fe8:	02b12a23          	sw	a1,52(sp)

90001fec <inst_544>:
90001fec:	33333537          	lui	a0,0x33333
90001ff0:	33450513          	addi	a0,a0,820 # 33333334 <offset+0x33333090>
90001ff4:	02c53593          	sltiu	a1,a0,44
90001ff8:	02b12c23          	sw	a1,56(sp)

90001ffc <inst_545>:
90001ffc:	33333537          	lui	a0,0x33333
90002000:	33450513          	addi	a0,a0,820 # 33333334 <offset+0x33333090>
90002004:	03e53593          	sltiu	a1,a0,62
90002008:	02b12e23          	sw	a1,60(sp)

9000200c <inst_546>:
9000200c:	33333537          	lui	a0,0x33333
90002010:	33450513          	addi	a0,a0,820 # 33333334 <offset+0x33333090>
90002014:	55653593          	sltiu	a1,a0,1366
90002018:	04b12023          	sw	a1,64(sp)

9000201c <inst_547>:
9000201c:	33333537          	lui	a0,0x33333
90002020:	33450513          	addi	a0,a0,820 # 33333334 <offset+0x33333090>
90002024:	aab53593          	sltiu	a1,a0,-1365
90002028:	04b12223          	sw	a1,68(sp)

9000202c <inst_548>:
9000202c:	33333537          	lui	a0,0x33333
90002030:	33450513          	addi	a0,a0,820 # 33333334 <offset+0x33333090>
90002034:	00653593          	sltiu	a1,a0,6
90002038:	04b12423          	sw	a1,72(sp)

9000203c <inst_549>:
9000203c:	33333537          	lui	a0,0x33333
90002040:	33450513          	addi	a0,a0,820 # 33333334 <offset+0x33333090>
90002044:	33453593          	sltiu	a1,a0,820
90002048:	04b12623          	sw	a1,76(sp)

9000204c <inst_550>:
9000204c:	33333537          	lui	a0,0x33333
90002050:	33450513          	addi	a0,a0,820 # 33333334 <offset+0x33333090>
90002054:	66753593          	sltiu	a1,a0,1639
90002058:	04b12823          	sw	a1,80(sp)

9000205c <inst_551>:
9000205c:	33333537          	lui	a0,0x33333
90002060:	33450513          	addi	a0,a0,820 # 33333334 <offset+0x33333090>
90002064:	02e53593          	sltiu	a1,a0,46
90002068:	04b12a23          	sw	a1,84(sp)

9000206c <inst_552>:
9000206c:	33333537          	lui	a0,0x33333
90002070:	33450513          	addi	a0,a0,820 # 33333334 <offset+0x33333090>
90002074:	00153593          	seqz	a1,a0
90002078:	04b12c23          	sw	a1,88(sp)

9000207c <inst_553>:
9000207c:	33333537          	lui	a0,0x33333
90002080:	33450513          	addi	a0,a0,820 # 33333334 <offset+0x33333090>
90002084:	04053593          	sltiu	a1,a0,64
90002088:	04b12e23          	sw	a1,92(sp)

9000208c <inst_554>:
9000208c:	66666537          	lui	a0,0x66666
90002090:	66750513          	addi	a0,a0,1639 # 66666667 <offset+0x666663c3>
90002094:	00353593          	sltiu	a1,a0,3
90002098:	06b12023          	sw	a1,96(sp)

9000209c <inst_555>:
9000209c:	66666537          	lui	a0,0x66666
900020a0:	66750513          	addi	a0,a0,1639 # 66666667 <offset+0x666663c3>
900020a4:	55553593          	sltiu	a1,a0,1365
900020a8:	06b12223          	sw	a1,100(sp)

900020ac <inst_556>:
900020ac:	66666537          	lui	a0,0x66666
900020b0:	66750513          	addi	a0,a0,1639 # 66666667 <offset+0x666663c3>
900020b4:	aaa53593          	sltiu	a1,a0,-1366
900020b8:	06b12423          	sw	a1,104(sp)

900020bc <inst_557>:
900020bc:	66666537          	lui	a0,0x66666
900020c0:	66750513          	addi	a0,a0,1639 # 66666667 <offset+0x666663c3>
900020c4:	00553593          	sltiu	a1,a0,5
900020c8:	06b12623          	sw	a1,108(sp)

900020cc <inst_558>:
900020cc:	66666537          	lui	a0,0x66666
900020d0:	66750513          	addi	a0,a0,1639 # 66666667 <offset+0x666663c3>
900020d4:	33353593          	sltiu	a1,a0,819
900020d8:	06b12823          	sw	a1,112(sp)

900020dc <inst_559>:
900020dc:	66666537          	lui	a0,0x66666
900020e0:	66750513          	addi	a0,a0,1639 # 66666667 <offset+0x666663c3>
900020e4:	66653593          	sltiu	a1,a0,1638
900020e8:	06b12a23          	sw	a1,116(sp)

900020ec <inst_560>:
900020ec:	66666537          	lui	a0,0x66666
900020f0:	66750513          	addi	a0,a0,1639 # 66666667 <offset+0x666663c3>
900020f4:	02d53593          	sltiu	a1,a0,45
900020f8:	06b12c23          	sw	a1,120(sp)

900020fc <inst_561>:
900020fc:	66666537          	lui	a0,0x66666
90002100:	66750513          	addi	a0,a0,1639 # 66666667 <offset+0x666663c3>
90002104:	00053593          	sltiu	a1,a0,0
90002108:	06b12e23          	sw	a1,124(sp)

9000210c <inst_562>:
9000210c:	66666537          	lui	a0,0x66666
90002110:	66750513          	addi	a0,a0,1639 # 66666667 <offset+0x666663c3>
90002114:	03f53593          	sltiu	a1,a0,63
90002118:	08b12023          	sw	a1,128(sp)

9000211c <inst_563>:
9000211c:	66666537          	lui	a0,0x66666
90002120:	66750513          	addi	a0,a0,1639 # 66666667 <offset+0x666663c3>
90002124:	00253593          	sltiu	a1,a0,2
90002128:	08b12223          	sw	a1,132(sp)

9000212c <inst_564>:
9000212c:	66666537          	lui	a0,0x66666
90002130:	66750513          	addi	a0,a0,1639 # 66666667 <offset+0x666663c3>
90002134:	55453593          	sltiu	a1,a0,1364
90002138:	08b12423          	sw	a1,136(sp)

9000213c <inst_565>:
9000213c:	66666537          	lui	a0,0x66666
90002140:	66750513          	addi	a0,a0,1639 # 66666667 <offset+0x666663c3>
90002144:	aa953593          	sltiu	a1,a0,-1367
90002148:	08b12623          	sw	a1,140(sp)

9000214c <inst_566>:
9000214c:	66666537          	lui	a0,0x66666
90002150:	66750513          	addi	a0,a0,1639 # 66666667 <offset+0x666663c3>
90002154:	00453593          	sltiu	a1,a0,4
90002158:	08b12823          	sw	a1,144(sp)

9000215c <inst_567>:
9000215c:	66666537          	lui	a0,0x66666
90002160:	66750513          	addi	a0,a0,1639 # 66666667 <offset+0x666663c3>
90002164:	33253593          	sltiu	a1,a0,818
90002168:	08b12a23          	sw	a1,148(sp)

9000216c <inst_568>:
9000216c:	66666537          	lui	a0,0x66666
90002170:	66750513          	addi	a0,a0,1639 # 66666667 <offset+0x666663c3>
90002174:	66553593          	sltiu	a1,a0,1637
90002178:	08b12c23          	sw	a1,152(sp)

9000217c <inst_569>:
9000217c:	66666537          	lui	a0,0x66666
90002180:	66750513          	addi	a0,a0,1639 # 66666667 <offset+0x666663c3>
90002184:	02c53593          	sltiu	a1,a0,44
90002188:	08b12e23          	sw	a1,156(sp)

9000218c <inst_570>:
9000218c:	66666537          	lui	a0,0x66666
90002190:	66750513          	addi	a0,a0,1639 # 66666667 <offset+0x666663c3>
90002194:	03e53593          	sltiu	a1,a0,62
90002198:	0ab12023          	sw	a1,160(sp)

9000219c <inst_571>:
9000219c:	00010537          	lui	a0,0x10
900021a0:	ffe50513          	addi	a0,a0,-2 # fffe <offset+0xfd5a>
900021a4:	66653593          	sltiu	a1,a0,1638
900021a8:	0ab12223          	sw	a1,164(sp)

900021ac <inst_572>:
900021ac:	66666537          	lui	a0,0x66666
900021b0:	66750513          	addi	a0,a0,1639 # 66666667 <offset+0x666663c3>
900021b4:	55653593          	sltiu	a1,a0,1366
900021b8:	0ab12423          	sw	a1,168(sp)

900021bc <inst_573>:
900021bc:	66666537          	lui	a0,0x66666
900021c0:	66750513          	addi	a0,a0,1639 # 66666667 <offset+0x666663c3>
900021c4:	aab53593          	sltiu	a1,a0,-1365
900021c8:	0ab12623          	sw	a1,172(sp)

900021cc <inst_574>:
900021cc:	66666537          	lui	a0,0x66666
900021d0:	66750513          	addi	a0,a0,1639 # 66666667 <offset+0x666663c3>
900021d4:	00653593          	sltiu	a1,a0,6
900021d8:	0ab12823          	sw	a1,176(sp)

900021dc <inst_575>:
900021dc:	66666537          	lui	a0,0x66666
900021e0:	66750513          	addi	a0,a0,1639 # 66666667 <offset+0x666663c3>
900021e4:	33453593          	sltiu	a1,a0,820
900021e8:	0ab12a23          	sw	a1,180(sp)

900021ec <inst_576>:
900021ec:	66666537          	lui	a0,0x66666
900021f0:	66750513          	addi	a0,a0,1639 # 66666667 <offset+0x666663c3>
900021f4:	66753593          	sltiu	a1,a0,1639
900021f8:	0ab12c23          	sw	a1,184(sp)

900021fc <inst_577>:
900021fc:	66666537          	lui	a0,0x66666
90002200:	66750513          	addi	a0,a0,1639 # 66666667 <offset+0x666663c3>
90002204:	02e53593          	sltiu	a1,a0,46
90002208:	0ab12e23          	sw	a1,188(sp)

9000220c <inst_578>:
9000220c:	66666537          	lui	a0,0x66666
90002210:	66750513          	addi	a0,a0,1639 # 66666667 <offset+0x666663c3>
90002214:	00153593          	seqz	a1,a0
90002218:	0cb12023          	sw	a1,192(sp)

9000221c <inst_579>:
9000221c:	66666537          	lui	a0,0x66666
90002220:	66750513          	addi	a0,a0,1639 # 66666667 <offset+0x666663c3>
90002224:	04053593          	sltiu	a1,a0,64
90002228:	0cb12223          	sw	a1,196(sp)

9000222c <inst_580>:
9000222c:	0000b537          	lui	a0,0xb
90002230:	50550513          	addi	a0,a0,1285 # b505 <offset+0xb261>
90002234:	00353593          	sltiu	a1,a0,3
90002238:	0cb12423          	sw	a1,200(sp)

9000223c <inst_581>:
9000223c:	0000b537          	lui	a0,0xb
90002240:	50550513          	addi	a0,a0,1285 # b505 <offset+0xb261>
90002244:	55553593          	sltiu	a1,a0,1365
90002248:	0cb12623          	sw	a1,204(sp)

9000224c <inst_582>:
9000224c:	0000b537          	lui	a0,0xb
90002250:	50550513          	addi	a0,a0,1285 # b505 <offset+0xb261>
90002254:	aaa53593          	sltiu	a1,a0,-1366
90002258:	0cb12823          	sw	a1,208(sp)

9000225c <inst_583>:
9000225c:	0000b537          	lui	a0,0xb
90002260:	50550513          	addi	a0,a0,1285 # b505 <offset+0xb261>
90002264:	00553593          	sltiu	a1,a0,5
90002268:	0cb12a23          	sw	a1,212(sp)

9000226c <inst_584>:
9000226c:	0000b537          	lui	a0,0xb
90002270:	50550513          	addi	a0,a0,1285 # b505 <offset+0xb261>
90002274:	33353593          	sltiu	a1,a0,819
90002278:	0cb12c23          	sw	a1,216(sp)

9000227c <inst_585>:
9000227c:	0000b537          	lui	a0,0xb
90002280:	50550513          	addi	a0,a0,1285 # b505 <offset+0xb261>
90002284:	66653593          	sltiu	a1,a0,1638
90002288:	0cb12e23          	sw	a1,220(sp)

9000228c <inst_586>:
9000228c:	0000b537          	lui	a0,0xb
90002290:	50550513          	addi	a0,a0,1285 # b505 <offset+0xb261>
90002294:	02d53593          	sltiu	a1,a0,45
90002298:	0eb12023          	sw	a1,224(sp)

9000229c <inst_587>:
9000229c:	0000b537          	lui	a0,0xb
900022a0:	50550513          	addi	a0,a0,1285 # b505 <offset+0xb261>
900022a4:	00053593          	sltiu	a1,a0,0
900022a8:	0eb12223          	sw	a1,228(sp)

900022ac <inst_588>:
900022ac:	0000b537          	lui	a0,0xb
900022b0:	50550513          	addi	a0,a0,1285 # b505 <offset+0xb261>
900022b4:	03f53593          	sltiu	a1,a0,63
900022b8:	0eb12423          	sw	a1,232(sp)

900022bc <inst_589>:
900022bc:	0000b537          	lui	a0,0xb
900022c0:	50550513          	addi	a0,a0,1285 # b505 <offset+0xb261>
900022c4:	00253593          	sltiu	a1,a0,2
900022c8:	0eb12623          	sw	a1,236(sp)

900022cc <inst_590>:
900022cc:	0000b537          	lui	a0,0xb
900022d0:	50550513          	addi	a0,a0,1285 # b505 <offset+0xb261>
900022d4:	55453593          	sltiu	a1,a0,1364
900022d8:	0eb12823          	sw	a1,240(sp)

900022dc <inst_591>:
900022dc:	0000b537          	lui	a0,0xb
900022e0:	50550513          	addi	a0,a0,1285 # b505 <offset+0xb261>
900022e4:	aa953593          	sltiu	a1,a0,-1367
900022e8:	0eb12a23          	sw	a1,244(sp)

900022ec <inst_592>:
900022ec:	0000b537          	lui	a0,0xb
900022f0:	50550513          	addi	a0,a0,1285 # b505 <offset+0xb261>
900022f4:	00453593          	sltiu	a1,a0,4
900022f8:	0eb12c23          	sw	a1,248(sp)

900022fc <inst_593>:
900022fc:	0000b537          	lui	a0,0xb
90002300:	50550513          	addi	a0,a0,1285 # b505 <offset+0xb261>
90002304:	33253593          	sltiu	a1,a0,818
90002308:	0eb12e23          	sw	a1,252(sp)

9000230c <inst_594>:
9000230c:	0000b537          	lui	a0,0xb
90002310:	50550513          	addi	a0,a0,1285 # b505 <offset+0xb261>
90002314:	66553593          	sltiu	a1,a0,1637
90002318:	10b12023          	sw	a1,256(sp)

9000231c <inst_595>:
9000231c:	0000b537          	lui	a0,0xb
90002320:	50550513          	addi	a0,a0,1285 # b505 <offset+0xb261>
90002324:	02c53593          	sltiu	a1,a0,44
90002328:	10b12223          	sw	a1,260(sp)

9000232c <inst_596>:
9000232c:	0000b537          	lui	a0,0xb
90002330:	50550513          	addi	a0,a0,1285 # b505 <offset+0xb261>
90002334:	03e53593          	sltiu	a1,a0,62
90002338:	10b12423          	sw	a1,264(sp)

9000233c <inst_597>:
9000233c:	0000b537          	lui	a0,0xb
90002340:	50550513          	addi	a0,a0,1285 # b505 <offset+0xb261>
90002344:	55653593          	sltiu	a1,a0,1366
90002348:	10b12623          	sw	a1,268(sp)

9000234c <inst_598>:
9000234c:	0000b537          	lui	a0,0xb
90002350:	50550513          	addi	a0,a0,1285 # b505 <offset+0xb261>
90002354:	aab53593          	sltiu	a1,a0,-1365
90002358:	10b12823          	sw	a1,272(sp)

9000235c <inst_599>:
9000235c:	0000b537          	lui	a0,0xb
90002360:	50550513          	addi	a0,a0,1285 # b505 <offset+0xb261>
90002364:	00653593          	sltiu	a1,a0,6
90002368:	10b12a23          	sw	a1,276(sp)

9000236c <inst_600>:
9000236c:	0000b537          	lui	a0,0xb
90002370:	50550513          	addi	a0,a0,1285 # b505 <offset+0xb261>
90002374:	33453593          	sltiu	a1,a0,820
90002378:	10b12c23          	sw	a1,280(sp)

9000237c <inst_601>:
9000237c:	0000b537          	lui	a0,0xb
90002380:	50550513          	addi	a0,a0,1285 # b505 <offset+0xb261>
90002384:	66753593          	sltiu	a1,a0,1639
90002388:	10b12e23          	sw	a1,284(sp)

9000238c <inst_602>:
9000238c:	0000b537          	lui	a0,0xb
90002390:	50550513          	addi	a0,a0,1285 # b505 <offset+0xb261>
90002394:	02e53593          	sltiu	a1,a0,46
90002398:	12b12023          	sw	a1,288(sp)

9000239c <inst_603>:
9000239c:	0000b537          	lui	a0,0xb
900023a0:	50550513          	addi	a0,a0,1285 # b505 <offset+0xb261>
900023a4:	00153593          	seqz	a1,a0
900023a8:	12b12223          	sw	a1,292(sp)

900023ac <inst_604>:
900023ac:	0000b537          	lui	a0,0xb
900023b0:	50550513          	addi	a0,a0,1285 # b505 <offset+0xb261>
900023b4:	04053593          	sltiu	a1,a0,64
900023b8:	12b12423          	sw	a1,296(sp)

900023bc <inst_605>:
900023bc:	00100513          	li	a0,1
900023c0:	00353593          	sltiu	a1,a0,3
900023c4:	12b12623          	sw	a1,300(sp)

900023c8 <inst_606>:
900023c8:	00100513          	li	a0,1
900023cc:	55553593          	sltiu	a1,a0,1365
900023d0:	12b12823          	sw	a1,304(sp)

900023d4 <inst_607>:
900023d4:	00100513          	li	a0,1
900023d8:	aaa53593          	sltiu	a1,a0,-1366
900023dc:	12b12a23          	sw	a1,308(sp)

900023e0 <inst_608>:
900023e0:	00100513          	li	a0,1
900023e4:	00553593          	sltiu	a1,a0,5
900023e8:	12b12c23          	sw	a1,312(sp)

900023ec <inst_609>:
900023ec:	00100513          	li	a0,1
900023f0:	33353593          	sltiu	a1,a0,819
900023f4:	12b12e23          	sw	a1,316(sp)

900023f8 <inst_610>:
900023f8:	00100513          	li	a0,1
900023fc:	66653593          	sltiu	a1,a0,1638
90002400:	14b12023          	sw	a1,320(sp)

90002404 <inst_611>:
90002404:	00100513          	li	a0,1
90002408:	02d53593          	sltiu	a1,a0,45
9000240c:	14b12223          	sw	a1,324(sp)

90002410 <inst_612>:
90002410:	00100513          	li	a0,1
90002414:	03f53593          	sltiu	a1,a0,63
90002418:	14b12423          	sw	a1,328(sp)

9000241c <inst_613>:
9000241c:	00100513          	li	a0,1
90002420:	00253593          	sltiu	a1,a0,2
90002424:	14b12623          	sw	a1,332(sp)

90002428 <inst_614>:
90002428:	00100513          	li	a0,1
9000242c:	55453593          	sltiu	a1,a0,1364
90002430:	14b12823          	sw	a1,336(sp)

90002434 <inst_615>:
90002434:	00100513          	li	a0,1
90002438:	aa953593          	sltiu	a1,a0,-1367
9000243c:	14b12a23          	sw	a1,340(sp)

90002440 <inst_616>:
90002440:	00100513          	li	a0,1
90002444:	00453593          	sltiu	a1,a0,4
90002448:	14b12c23          	sw	a1,344(sp)

9000244c <inst_617>:
9000244c:	00100513          	li	a0,1
90002450:	33253593          	sltiu	a1,a0,818
90002454:	14b12e23          	sw	a1,348(sp)

90002458 <inst_618>:
90002458:	00100513          	li	a0,1
9000245c:	66553593          	sltiu	a1,a0,1637
90002460:	16b12023          	sw	a1,352(sp)

90002464 <inst_619>:
90002464:	00100513          	li	a0,1
90002468:	02c53593          	sltiu	a1,a0,44
9000246c:	16b12223          	sw	a1,356(sp)

90002470 <inst_620>:
90002470:	00100513          	li	a0,1
90002474:	03e53593          	sltiu	a1,a0,62
90002478:	16b12423          	sw	a1,360(sp)

9000247c <inst_621>:
9000247c:	00100513          	li	a0,1
90002480:	55653593          	sltiu	a1,a0,1366
90002484:	16b12623          	sw	a1,364(sp)

90002488 <inst_622>:
90002488:	00100513          	li	a0,1
9000248c:	aab53593          	sltiu	a1,a0,-1365
90002490:	16b12823          	sw	a1,368(sp)

90002494 <inst_623>:
90002494:	00100513          	li	a0,1
90002498:	00653593          	sltiu	a1,a0,6
9000249c:	16b12a23          	sw	a1,372(sp)

900024a0 <inst_624>:
900024a0:	00100513          	li	a0,1
900024a4:	33453593          	sltiu	a1,a0,820
900024a8:	16b12c23          	sw	a1,376(sp)

900024ac <inst_625>:
900024ac:	00100513          	li	a0,1
900024b0:	66753593          	sltiu	a1,a0,1639
900024b4:	16b12e23          	sw	a1,380(sp)

900024b8 <inst_626>:
900024b8:	00100513          	li	a0,1
900024bc:	02e53593          	sltiu	a1,a0,46
900024c0:	18b12023          	sw	a1,384(sp)

900024c4 <inst_627>:
900024c4:	00100513          	li	a0,1
900024c8:	00153593          	seqz	a1,a0
900024cc:	18b12223          	sw	a1,388(sp)

900024d0 <inst_628>:
900024d0:	00100513          	li	a0,1
900024d4:	04053593          	sltiu	a1,a0,64
900024d8:	18b12423          	sw	a1,392(sp)

900024dc <inst_629>:
900024dc:	00010537          	lui	a0,0x10
900024e0:	00353593          	sltiu	a1,a0,3
900024e4:	18b12623          	sw	a1,396(sp)

900024e8 <inst_630>:
900024e8:	00010537          	lui	a0,0x10
900024ec:	55553593          	sltiu	a1,a0,1365
900024f0:	18b12823          	sw	a1,400(sp)

900024f4 <inst_631>:
900024f4:	00010537          	lui	a0,0x10
900024f8:	aaa53593          	sltiu	a1,a0,-1366
900024fc:	18b12a23          	sw	a1,404(sp)

90002500 <inst_632>:
90002500:	00010537          	lui	a0,0x10
90002504:	33353593          	sltiu	a1,a0,819
90002508:	18b12c23          	sw	a1,408(sp)

9000250c <inst_633>:
9000250c:	00010537          	lui	a0,0x10
90002510:	66653593          	sltiu	a1,a0,1638
90002514:	18b12e23          	sw	a1,412(sp)

90002518 <inst_634>:
90002518:	00010537          	lui	a0,0x10
9000251c:	02d53593          	sltiu	a1,a0,45
90002520:	1ab12023          	sw	a1,416(sp)

90002524 <inst_635>:
90002524:	00010537          	lui	a0,0x10
90002528:	00053593          	sltiu	a1,a0,0
9000252c:	1ab12223          	sw	a1,420(sp)

90002530 <inst_636>:
90002530:	00010537          	lui	a0,0x10
90002534:	03f53593          	sltiu	a1,a0,63
90002538:	1ab12423          	sw	a1,424(sp)

9000253c <inst_637>:
9000253c:	00010537          	lui	a0,0x10
90002540:	00253593          	sltiu	a1,a0,2
90002544:	1ab12623          	sw	a1,428(sp)

90002548 <inst_638>:
90002548:	00010537          	lui	a0,0x10
9000254c:	55453593          	sltiu	a1,a0,1364
90002550:	1ab12823          	sw	a1,432(sp)

90002554 <inst_639>:
90002554:	00010537          	lui	a0,0x10
90002558:	aa953593          	sltiu	a1,a0,-1367
9000255c:	1ab12a23          	sw	a1,436(sp)

90002560 <inst_640>:
90002560:	00010537          	lui	a0,0x10
90002564:	00453593          	sltiu	a1,a0,4
90002568:	1ab12c23          	sw	a1,440(sp)

9000256c <inst_641>:
9000256c:	00010537          	lui	a0,0x10
90002570:	33253593          	sltiu	a1,a0,818
90002574:	1ab12e23          	sw	a1,444(sp)

90002578 <inst_642>:
90002578:	00010537          	lui	a0,0x10
9000257c:	66553593          	sltiu	a1,a0,1637
90002580:	1cb12023          	sw	a1,448(sp)

90002584 <inst_643>:
90002584:	00010537          	lui	a0,0x10
90002588:	02c53593          	sltiu	a1,a0,44
9000258c:	1cb12223          	sw	a1,452(sp)

90002590 <inst_644>:
90002590:	00010537          	lui	a0,0x10
90002594:	03e53593          	sltiu	a1,a0,62
90002598:	1cb12423          	sw	a1,456(sp)

9000259c <inst_645>:
9000259c:	00010537          	lui	a0,0x10
900025a0:	55653593          	sltiu	a1,a0,1366
900025a4:	1cb12623          	sw	a1,460(sp)

900025a8 <inst_646>:
900025a8:	00010537          	lui	a0,0x10
900025ac:	aab53593          	sltiu	a1,a0,-1365
900025b0:	1cb12823          	sw	a1,464(sp)

900025b4 <inst_647>:
900025b4:	00010537          	lui	a0,0x10
900025b8:	00653593          	sltiu	a1,a0,6
900025bc:	1cb12a23          	sw	a1,468(sp)

900025c0 <inst_648>:
900025c0:	00010537          	lui	a0,0x10
900025c4:	33453593          	sltiu	a1,a0,820
900025c8:	1cb12c23          	sw	a1,472(sp)

900025cc <inst_649>:
900025cc:	00010537          	lui	a0,0x10
900025d0:	66753593          	sltiu	a1,a0,1639
900025d4:	1cb12e23          	sw	a1,476(sp)

900025d8 <inst_650>:
900025d8:	00010537          	lui	a0,0x10
900025dc:	02e53593          	sltiu	a1,a0,46
900025e0:	1eb12023          	sw	a1,480(sp)

900025e4 <inst_651>:
900025e4:	00010537          	lui	a0,0x10
900025e8:	00153593          	seqz	a1,a0
900025ec:	1eb12223          	sw	a1,484(sp)

900025f0 <inst_652>:
900025f0:	00010537          	lui	a0,0x10
900025f4:	04053593          	sltiu	a1,a0,64
900025f8:	1eb12423          	sw	a1,488(sp)

900025fc <inst_653>:
900025fc:	66666537          	lui	a0,0x66666
90002600:	66550513          	addi	a0,a0,1637 # 66666665 <offset+0x666663c1>
90002604:	aab53593          	sltiu	a1,a0,-1365
90002608:	1eb12623          	sw	a1,492(sp)

9000260c <inst_654>:
9000260c:	66666537          	lui	a0,0x66666
90002610:	66550513          	addi	a0,a0,1637 # 66666665 <offset+0x666663c1>
90002614:	00653593          	sltiu	a1,a0,6
90002618:	1eb12823          	sw	a1,496(sp)

9000261c <inst_655>:
9000261c:	66666537          	lui	a0,0x66666
90002620:	66550513          	addi	a0,a0,1637 # 66666665 <offset+0x666663c1>
90002624:	33453593          	sltiu	a1,a0,820
90002628:	1eb12a23          	sw	a1,500(sp)

9000262c <inst_656>:
9000262c:	66666537          	lui	a0,0x66666
90002630:	66550513          	addi	a0,a0,1637 # 66666665 <offset+0x666663c1>
90002634:	66753593          	sltiu	a1,a0,1639
90002638:	1eb12c23          	sw	a1,504(sp)

9000263c <inst_657>:
9000263c:	66666537          	lui	a0,0x66666
90002640:	66550513          	addi	a0,a0,1637 # 66666665 <offset+0x666663c1>
90002644:	02e53593          	sltiu	a1,a0,46
90002648:	1eb12e23          	sw	a1,508(sp)

9000264c <inst_658>:
9000264c:	66666537          	lui	a0,0x66666
90002650:	66550513          	addi	a0,a0,1637 # 66666665 <offset+0x666663c1>
90002654:	00153593          	seqz	a1,a0
90002658:	20b12023          	sw	a1,512(sp)

9000265c <inst_659>:
9000265c:	66666537          	lui	a0,0x66666
90002660:	66550513          	addi	a0,a0,1637 # 66666665 <offset+0x666663c1>
90002664:	04053593          	sltiu	a1,a0,64
90002668:	20b12223          	sw	a1,516(sp)

9000266c <inst_660>:
9000266c:	0000b537          	lui	a0,0xb
90002670:	50350513          	addi	a0,a0,1283 # b503 <offset+0xb25f>
90002674:	00353593          	sltiu	a1,a0,3
90002678:	20b12423          	sw	a1,520(sp)

9000267c <inst_661>:
9000267c:	0000b537          	lui	a0,0xb
90002680:	50350513          	addi	a0,a0,1283 # b503 <offset+0xb25f>
90002684:	55553593          	sltiu	a1,a0,1365
90002688:	20b12623          	sw	a1,524(sp)

9000268c <inst_662>:
9000268c:	0000b537          	lui	a0,0xb
90002690:	50350513          	addi	a0,a0,1283 # b503 <offset+0xb25f>
90002694:	aaa53593          	sltiu	a1,a0,-1366
90002698:	20b12823          	sw	a1,528(sp)

9000269c <inst_663>:
9000269c:	0000b537          	lui	a0,0xb
900026a0:	50350513          	addi	a0,a0,1283 # b503 <offset+0xb25f>
900026a4:	00553593          	sltiu	a1,a0,5
900026a8:	20b12a23          	sw	a1,532(sp)

900026ac <inst_664>:
900026ac:	0000b537          	lui	a0,0xb
900026b0:	50350513          	addi	a0,a0,1283 # b503 <offset+0xb25f>
900026b4:	33353593          	sltiu	a1,a0,819
900026b8:	20b12c23          	sw	a1,536(sp)

900026bc <inst_665>:
900026bc:	0000b537          	lui	a0,0xb
900026c0:	50350513          	addi	a0,a0,1283 # b503 <offset+0xb25f>
900026c4:	66653593          	sltiu	a1,a0,1638
900026c8:	20b12e23          	sw	a1,540(sp)

900026cc <inst_666>:
900026cc:	0000b537          	lui	a0,0xb
900026d0:	50350513          	addi	a0,a0,1283 # b503 <offset+0xb25f>
900026d4:	02d53593          	sltiu	a1,a0,45
900026d8:	22b12023          	sw	a1,544(sp)

900026dc <inst_667>:
900026dc:	0000b537          	lui	a0,0xb
900026e0:	50350513          	addi	a0,a0,1283 # b503 <offset+0xb25f>
900026e4:	00053593          	sltiu	a1,a0,0
900026e8:	22b12223          	sw	a1,548(sp)

900026ec <inst_668>:
900026ec:	0000b537          	lui	a0,0xb
900026f0:	50350513          	addi	a0,a0,1283 # b503 <offset+0xb25f>
900026f4:	03f53593          	sltiu	a1,a0,63
900026f8:	22b12423          	sw	a1,552(sp)

900026fc <inst_669>:
900026fc:	0000b537          	lui	a0,0xb
90002700:	50350513          	addi	a0,a0,1283 # b503 <offset+0xb25f>
90002704:	00253593          	sltiu	a1,a0,2
90002708:	22b12623          	sw	a1,556(sp)

9000270c <inst_670>:
9000270c:	0000b537          	lui	a0,0xb
90002710:	50350513          	addi	a0,a0,1283 # b503 <offset+0xb25f>
90002714:	55453593          	sltiu	a1,a0,1364
90002718:	22b12823          	sw	a1,560(sp)

9000271c <inst_671>:
9000271c:	0000b537          	lui	a0,0xb
90002720:	50350513          	addi	a0,a0,1283 # b503 <offset+0xb25f>
90002724:	aa953593          	sltiu	a1,a0,-1367
90002728:	22b12a23          	sw	a1,564(sp)

9000272c <inst_672>:
9000272c:	0000b537          	lui	a0,0xb
90002730:	50350513          	addi	a0,a0,1283 # b503 <offset+0xb25f>
90002734:	00453593          	sltiu	a1,a0,4
90002738:	22b12c23          	sw	a1,568(sp)

9000273c <inst_673>:
9000273c:	0000b537          	lui	a0,0xb
90002740:	50350513          	addi	a0,a0,1283 # b503 <offset+0xb25f>
90002744:	33253593          	sltiu	a1,a0,818
90002748:	22b12e23          	sw	a1,572(sp)

9000274c <inst_674>:
9000274c:	0000b537          	lui	a0,0xb
90002750:	50350513          	addi	a0,a0,1283 # b503 <offset+0xb25f>
90002754:	66553593          	sltiu	a1,a0,1637
90002758:	24b12023          	sw	a1,576(sp)

9000275c <inst_675>:
9000275c:	0000b537          	lui	a0,0xb
90002760:	50350513          	addi	a0,a0,1283 # b503 <offset+0xb25f>
90002764:	02c53593          	sltiu	a1,a0,44
90002768:	24b12223          	sw	a1,580(sp)

9000276c <inst_676>:
9000276c:	0000b537          	lui	a0,0xb
90002770:	50350513          	addi	a0,a0,1283 # b503 <offset+0xb25f>
90002774:	03e53593          	sltiu	a1,a0,62
90002778:	24b12423          	sw	a1,584(sp)

9000277c <inst_677>:
9000277c:	0000b537          	lui	a0,0xb
90002780:	50350513          	addi	a0,a0,1283 # b503 <offset+0xb25f>
90002784:	55653593          	sltiu	a1,a0,1366
90002788:	24b12623          	sw	a1,588(sp)

9000278c <inst_678>:
9000278c:	0000b537          	lui	a0,0xb
90002790:	50350513          	addi	a0,a0,1283 # b503 <offset+0xb25f>
90002794:	aab53593          	sltiu	a1,a0,-1365
90002798:	24b12823          	sw	a1,592(sp)

9000279c <inst_679>:
9000279c:	0000b537          	lui	a0,0xb
900027a0:	50350513          	addi	a0,a0,1283 # b503 <offset+0xb25f>
900027a4:	00653593          	sltiu	a1,a0,6
900027a8:	24b12a23          	sw	a1,596(sp)

900027ac <inst_680>:
900027ac:	0000b537          	lui	a0,0xb
900027b0:	50350513          	addi	a0,a0,1283 # b503 <offset+0xb25f>
900027b4:	33453593          	sltiu	a1,a0,820
900027b8:	24b12c23          	sw	a1,600(sp)

900027bc <inst_681>:
900027bc:	0000b537          	lui	a0,0xb
900027c0:	50350513          	addi	a0,a0,1283 # b503 <offset+0xb25f>
900027c4:	66753593          	sltiu	a1,a0,1639
900027c8:	24b12e23          	sw	a1,604(sp)

900027cc <inst_682>:
900027cc:	0000b537          	lui	a0,0xb
900027d0:	50350513          	addi	a0,a0,1283 # b503 <offset+0xb25f>
900027d4:	02e53593          	sltiu	a1,a0,46
900027d8:	26b12023          	sw	a1,608(sp)

900027dc <inst_683>:
900027dc:	0000b537          	lui	a0,0xb
900027e0:	50350513          	addi	a0,a0,1283 # b503 <offset+0xb25f>
900027e4:	00153593          	seqz	a1,a0
900027e8:	26b12223          	sw	a1,612(sp)

900027ec <inst_684>:
900027ec:	0000b537          	lui	a0,0xb
900027f0:	50350513          	addi	a0,a0,1283 # b503 <offset+0xb25f>
900027f4:	04053593          	sltiu	a1,a0,64
900027f8:	26b12423          	sw	a1,616(sp)

900027fc <inst_685>:
900027fc:	00010537          	lui	a0,0x10
90002800:	ffe50513          	addi	a0,a0,-2 # fffe <offset+0xfd5a>
90002804:	00353593          	sltiu	a1,a0,3
90002808:	26b12623          	sw	a1,620(sp)

9000280c <inst_686>:
9000280c:	00010537          	lui	a0,0x10
90002810:	ffe50513          	addi	a0,a0,-2 # fffe <offset+0xfd5a>
90002814:	55553593          	sltiu	a1,a0,1365
90002818:	26b12823          	sw	a1,624(sp)

9000281c <inst_687>:
9000281c:	00010537          	lui	a0,0x10
90002820:	ffe50513          	addi	a0,a0,-2 # fffe <offset+0xfd5a>
90002824:	aaa53593          	sltiu	a1,a0,-1366
90002828:	26b12a23          	sw	a1,628(sp)

9000282c <inst_688>:
9000282c:	00010537          	lui	a0,0x10
90002830:	ffe50513          	addi	a0,a0,-2 # fffe <offset+0xfd5a>
90002834:	00553593          	sltiu	a1,a0,5
90002838:	26b12c23          	sw	a1,632(sp)

9000283c <inst_689>:
9000283c:	00010537          	lui	a0,0x10
90002840:	ffe50513          	addi	a0,a0,-2 # fffe <offset+0xfd5a>
90002844:	33353593          	sltiu	a1,a0,819
90002848:	26b12e23          	sw	a1,636(sp)

9000284c <inst_690>:
9000284c:	00010537          	lui	a0,0x10
90002850:	ffe50513          	addi	a0,a0,-2 # fffe <offset+0xfd5a>
90002854:	02d53593          	sltiu	a1,a0,45
90002858:	28b12023          	sw	a1,640(sp)

9000285c <inst_691>:
9000285c:	00010537          	lui	a0,0x10
90002860:	ffe50513          	addi	a0,a0,-2 # fffe <offset+0xfd5a>
90002864:	00053593          	sltiu	a1,a0,0
90002868:	28b12223          	sw	a1,644(sp)

9000286c <inst_692>:
9000286c:	00010537          	lui	a0,0x10
90002870:	ffe50513          	addi	a0,a0,-2 # fffe <offset+0xfd5a>
90002874:	03f53593          	sltiu	a1,a0,63
90002878:	28b12423          	sw	a1,648(sp)

9000287c <inst_693>:
9000287c:	00010537          	lui	a0,0x10
90002880:	ffe50513          	addi	a0,a0,-2 # fffe <offset+0xfd5a>
90002884:	00253593          	sltiu	a1,a0,2
90002888:	28b12623          	sw	a1,652(sp)

9000288c <inst_694>:
9000288c:	00010537          	lui	a0,0x10
90002890:	ffe50513          	addi	a0,a0,-2 # fffe <offset+0xfd5a>
90002894:	55453593          	sltiu	a1,a0,1364
90002898:	28b12823          	sw	a1,656(sp)

9000289c <inst_695>:
9000289c:	00010537          	lui	a0,0x10
900028a0:	ffe50513          	addi	a0,a0,-2 # fffe <offset+0xfd5a>
900028a4:	aa953593          	sltiu	a1,a0,-1367
900028a8:	28b12a23          	sw	a1,660(sp)

900028ac <inst_696>:
900028ac:	00010537          	lui	a0,0x10
900028b0:	ffe50513          	addi	a0,a0,-2 # fffe <offset+0xfd5a>
900028b4:	00453593          	sltiu	a1,a0,4
900028b8:	28b12c23          	sw	a1,664(sp)

900028bc <inst_697>:
900028bc:	00010537          	lui	a0,0x10
900028c0:	ffe50513          	addi	a0,a0,-2 # fffe <offset+0xfd5a>
900028c4:	33253593          	sltiu	a1,a0,818
900028c8:	28b12e23          	sw	a1,668(sp)

900028cc <inst_698>:
900028cc:	01000513          	li	a0,16
900028d0:	ffe53593          	sltiu	a1,a0,-2
900028d4:	2ab12023          	sw	a1,672(sp)
900028d8:	00000013          	nop
900028dc:	00000013          	nop

900028e0 <rvtest_code_end>:
900028e0:	00408093          	addi	ra,ra,4
900028e4:	00100093          	li	ra,1

900028e8 <write_tohost>:
900028e8:	00000f17          	auipc	t5,0x0
900028ec:	701f2c23          	sw	ra,1816(t5) # 90003000 <tohost>

900028f0 <self_loop>:
900028f0:	0000006f          	j	900028f0 <self_loop>
	...

Disassembly of section .tohost:

90003000 <tohost>:
	...

90003100 <fromhost>:
	...

Disassembly of section .data:

90004000 <rvtest_data_begin>:
90004000:	cafe                	sw	t6,84(sp)
90004002:	babe                	fsd	fa5,368(sp)

90004004 <rvtest_data_end>:
	...

90004010 <begin_signature>:
90004010:	deadbeef          	jal	t4,8ffdf5fa <offset+0x8ffdf356>
90004014:	deadbeef          	jal	t4,8ffdf5fe <offset+0x8ffdf35a>
90004018:	deadbeef          	jal	t4,8ffdf602 <offset+0x8ffdf35e>
9000401c:	deadbeef          	jal	t4,8ffdf606 <offset+0x8ffdf362>
90004020:	deadbeef          	jal	t4,8ffdf60a <offset+0x8ffdf366>
90004024:	deadbeef          	jal	t4,8ffdf60e <offset+0x8ffdf36a>
90004028:	deadbeef          	jal	t4,8ffdf612 <offset+0x8ffdf36e>
9000402c:	deadbeef          	jal	t4,8ffdf616 <offset+0x8ffdf372>
90004030:	deadbeef          	jal	t4,8ffdf61a <offset+0x8ffdf376>
90004034:	deadbeef          	jal	t4,8ffdf61e <offset+0x8ffdf37a>
90004038:	deadbeef          	jal	t4,8ffdf622 <offset+0x8ffdf37e>
9000403c:	deadbeef          	jal	t4,8ffdf626 <offset+0x8ffdf382>
90004040:	deadbeef          	jal	t4,8ffdf62a <offset+0x8ffdf386>
90004044:	deadbeef          	jal	t4,8ffdf62e <offset+0x8ffdf38a>
90004048:	deadbeef          	jal	t4,8ffdf632 <offset+0x8ffdf38e>
9000404c:	deadbeef          	jal	t4,8ffdf636 <offset+0x8ffdf392>
90004050:	deadbeef          	jal	t4,8ffdf63a <offset+0x8ffdf396>
90004054:	deadbeef          	jal	t4,8ffdf63e <offset+0x8ffdf39a>

90004058 <signature_x2_0>:
90004058:	deadbeef          	jal	t4,8ffdf642 <offset+0x8ffdf39e>
9000405c:	deadbeef          	jal	t4,8ffdf646 <offset+0x8ffdf3a2>
90004060:	deadbeef          	jal	t4,8ffdf64a <offset+0x8ffdf3a6>
90004064:	deadbeef          	jal	t4,8ffdf64e <offset+0x8ffdf3aa>
90004068:	deadbeef          	jal	t4,8ffdf652 <offset+0x8ffdf3ae>
9000406c:	deadbeef          	jal	t4,8ffdf656 <offset+0x8ffdf3b2>
90004070:	deadbeef          	jal	t4,8ffdf65a <offset+0x8ffdf3b6>
90004074:	deadbeef          	jal	t4,8ffdf65e <offset+0x8ffdf3ba>
90004078:	deadbeef          	jal	t4,8ffdf662 <offset+0x8ffdf3be>
9000407c:	deadbeef          	jal	t4,8ffdf666 <offset+0x8ffdf3c2>
90004080:	deadbeef          	jal	t4,8ffdf66a <offset+0x8ffdf3c6>
90004084:	deadbeef          	jal	t4,8ffdf66e <offset+0x8ffdf3ca>
90004088:	deadbeef          	jal	t4,8ffdf672 <offset+0x8ffdf3ce>
9000408c:	deadbeef          	jal	t4,8ffdf676 <offset+0x8ffdf3d2>
90004090:	deadbeef          	jal	t4,8ffdf67a <offset+0x8ffdf3d6>
90004094:	deadbeef          	jal	t4,8ffdf67e <offset+0x8ffdf3da>
90004098:	deadbeef          	jal	t4,8ffdf682 <offset+0x8ffdf3de>
9000409c:	deadbeef          	jal	t4,8ffdf686 <offset+0x8ffdf3e2>
900040a0:	deadbeef          	jal	t4,8ffdf68a <offset+0x8ffdf3e6>
900040a4:	deadbeef          	jal	t4,8ffdf68e <offset+0x8ffdf3ea>
900040a8:	deadbeef          	jal	t4,8ffdf692 <offset+0x8ffdf3ee>
900040ac:	deadbeef          	jal	t4,8ffdf696 <offset+0x8ffdf3f2>
900040b0:	deadbeef          	jal	t4,8ffdf69a <offset+0x8ffdf3f6>
900040b4:	deadbeef          	jal	t4,8ffdf69e <offset+0x8ffdf3fa>
900040b8:	deadbeef          	jal	t4,8ffdf6a2 <offset+0x8ffdf3fe>
900040bc:	deadbeef          	jal	t4,8ffdf6a6 <offset+0x8ffdf402>
900040c0:	deadbeef          	jal	t4,8ffdf6aa <offset+0x8ffdf406>
900040c4:	deadbeef          	jal	t4,8ffdf6ae <offset+0x8ffdf40a>
900040c8:	deadbeef          	jal	t4,8ffdf6b2 <offset+0x8ffdf40e>
900040cc:	deadbeef          	jal	t4,8ffdf6b6 <offset+0x8ffdf412>
900040d0:	deadbeef          	jal	t4,8ffdf6ba <offset+0x8ffdf416>
900040d4:	deadbeef          	jal	t4,8ffdf6be <offset+0x8ffdf41a>
900040d8:	deadbeef          	jal	t4,8ffdf6c2 <offset+0x8ffdf41e>
900040dc:	deadbeef          	jal	t4,8ffdf6c6 <offset+0x8ffdf422>
900040e0:	deadbeef          	jal	t4,8ffdf6ca <offset+0x8ffdf426>
900040e4:	deadbeef          	jal	t4,8ffdf6ce <offset+0x8ffdf42a>
900040e8:	deadbeef          	jal	t4,8ffdf6d2 <offset+0x8ffdf42e>
900040ec:	deadbeef          	jal	t4,8ffdf6d6 <offset+0x8ffdf432>
900040f0:	deadbeef          	jal	t4,8ffdf6da <offset+0x8ffdf436>
900040f4:	deadbeef          	jal	t4,8ffdf6de <offset+0x8ffdf43a>
900040f8:	deadbeef          	jal	t4,8ffdf6e2 <offset+0x8ffdf43e>
900040fc:	deadbeef          	jal	t4,8ffdf6e6 <offset+0x8ffdf442>
90004100:	deadbeef          	jal	t4,8ffdf6ea <offset+0x8ffdf446>
90004104:	deadbeef          	jal	t4,8ffdf6ee <offset+0x8ffdf44a>
90004108:	deadbeef          	jal	t4,8ffdf6f2 <offset+0x8ffdf44e>
9000410c:	deadbeef          	jal	t4,8ffdf6f6 <offset+0x8ffdf452>
90004110:	deadbeef          	jal	t4,8ffdf6fa <offset+0x8ffdf456>
90004114:	deadbeef          	jal	t4,8ffdf6fe <offset+0x8ffdf45a>
90004118:	deadbeef          	jal	t4,8ffdf702 <offset+0x8ffdf45e>
9000411c:	deadbeef          	jal	t4,8ffdf706 <offset+0x8ffdf462>
90004120:	deadbeef          	jal	t4,8ffdf70a <offset+0x8ffdf466>
90004124:	deadbeef          	jal	t4,8ffdf70e <offset+0x8ffdf46a>
90004128:	deadbeef          	jal	t4,8ffdf712 <offset+0x8ffdf46e>
9000412c:	deadbeef          	jal	t4,8ffdf716 <offset+0x8ffdf472>
90004130:	deadbeef          	jal	t4,8ffdf71a <offset+0x8ffdf476>
90004134:	deadbeef          	jal	t4,8ffdf71e <offset+0x8ffdf47a>
90004138:	deadbeef          	jal	t4,8ffdf722 <offset+0x8ffdf47e>
9000413c:	deadbeef          	jal	t4,8ffdf726 <offset+0x8ffdf482>
90004140:	deadbeef          	jal	t4,8ffdf72a <offset+0x8ffdf486>
90004144:	deadbeef          	jal	t4,8ffdf72e <offset+0x8ffdf48a>
90004148:	deadbeef          	jal	t4,8ffdf732 <offset+0x8ffdf48e>
9000414c:	deadbeef          	jal	t4,8ffdf736 <offset+0x8ffdf492>
90004150:	deadbeef          	jal	t4,8ffdf73a <offset+0x8ffdf496>
90004154:	deadbeef          	jal	t4,8ffdf73e <offset+0x8ffdf49a>
90004158:	deadbeef          	jal	t4,8ffdf742 <offset+0x8ffdf49e>
9000415c:	deadbeef          	jal	t4,8ffdf746 <offset+0x8ffdf4a2>
90004160:	deadbeef          	jal	t4,8ffdf74a <offset+0x8ffdf4a6>
90004164:	deadbeef          	jal	t4,8ffdf74e <offset+0x8ffdf4aa>
90004168:	deadbeef          	jal	t4,8ffdf752 <offset+0x8ffdf4ae>
9000416c:	deadbeef          	jal	t4,8ffdf756 <offset+0x8ffdf4b2>
90004170:	deadbeef          	jal	t4,8ffdf75a <offset+0x8ffdf4b6>
90004174:	deadbeef          	jal	t4,8ffdf75e <offset+0x8ffdf4ba>
90004178:	deadbeef          	jal	t4,8ffdf762 <offset+0x8ffdf4be>
9000417c:	deadbeef          	jal	t4,8ffdf766 <offset+0x8ffdf4c2>
90004180:	deadbeef          	jal	t4,8ffdf76a <offset+0x8ffdf4c6>
90004184:	deadbeef          	jal	t4,8ffdf76e <offset+0x8ffdf4ca>
90004188:	deadbeef          	jal	t4,8ffdf772 <offset+0x8ffdf4ce>
9000418c:	deadbeef          	jal	t4,8ffdf776 <offset+0x8ffdf4d2>
90004190:	deadbeef          	jal	t4,8ffdf77a <offset+0x8ffdf4d6>
90004194:	deadbeef          	jal	t4,8ffdf77e <offset+0x8ffdf4da>
90004198:	deadbeef          	jal	t4,8ffdf782 <offset+0x8ffdf4de>
9000419c:	deadbeef          	jal	t4,8ffdf786 <offset+0x8ffdf4e2>
900041a0:	deadbeef          	jal	t4,8ffdf78a <offset+0x8ffdf4e6>
900041a4:	deadbeef          	jal	t4,8ffdf78e <offset+0x8ffdf4ea>
900041a8:	deadbeef          	jal	t4,8ffdf792 <offset+0x8ffdf4ee>
900041ac:	deadbeef          	jal	t4,8ffdf796 <offset+0x8ffdf4f2>
900041b0:	deadbeef          	jal	t4,8ffdf79a <offset+0x8ffdf4f6>
900041b4:	deadbeef          	jal	t4,8ffdf79e <offset+0x8ffdf4fa>
900041b8:	deadbeef          	jal	t4,8ffdf7a2 <offset+0x8ffdf4fe>
900041bc:	deadbeef          	jal	t4,8ffdf7a6 <offset+0x8ffdf502>
900041c0:	deadbeef          	jal	t4,8ffdf7aa <offset+0x8ffdf506>
900041c4:	deadbeef          	jal	t4,8ffdf7ae <offset+0x8ffdf50a>
900041c8:	deadbeef          	jal	t4,8ffdf7b2 <offset+0x8ffdf50e>
900041cc:	deadbeef          	jal	t4,8ffdf7b6 <offset+0x8ffdf512>
900041d0:	deadbeef          	jal	t4,8ffdf7ba <offset+0x8ffdf516>
900041d4:	deadbeef          	jal	t4,8ffdf7be <offset+0x8ffdf51a>
900041d8:	deadbeef          	jal	t4,8ffdf7c2 <offset+0x8ffdf51e>
900041dc:	deadbeef          	jal	t4,8ffdf7c6 <offset+0x8ffdf522>
900041e0:	deadbeef          	jal	t4,8ffdf7ca <offset+0x8ffdf526>
900041e4:	deadbeef          	jal	t4,8ffdf7ce <offset+0x8ffdf52a>
900041e8:	deadbeef          	jal	t4,8ffdf7d2 <offset+0x8ffdf52e>
900041ec:	deadbeef          	jal	t4,8ffdf7d6 <offset+0x8ffdf532>
900041f0:	deadbeef          	jal	t4,8ffdf7da <offset+0x8ffdf536>
900041f4:	deadbeef          	jal	t4,8ffdf7de <offset+0x8ffdf53a>
900041f8:	deadbeef          	jal	t4,8ffdf7e2 <offset+0x8ffdf53e>
900041fc:	deadbeef          	jal	t4,8ffdf7e6 <offset+0x8ffdf542>
90004200:	deadbeef          	jal	t4,8ffdf7ea <offset+0x8ffdf546>
90004204:	deadbeef          	jal	t4,8ffdf7ee <offset+0x8ffdf54a>
90004208:	deadbeef          	jal	t4,8ffdf7f2 <offset+0x8ffdf54e>
9000420c:	deadbeef          	jal	t4,8ffdf7f6 <offset+0x8ffdf552>
90004210:	deadbeef          	jal	t4,8ffdf7fa <offset+0x8ffdf556>
90004214:	deadbeef          	jal	t4,8ffdf7fe <offset+0x8ffdf55a>
90004218:	deadbeef          	jal	t4,8ffdf802 <offset+0x8ffdf55e>
9000421c:	deadbeef          	jal	t4,8ffdf806 <offset+0x8ffdf562>
90004220:	deadbeef          	jal	t4,8ffdf80a <offset+0x8ffdf566>
90004224:	deadbeef          	jal	t4,8ffdf80e <offset+0x8ffdf56a>
90004228:	deadbeef          	jal	t4,8ffdf812 <offset+0x8ffdf56e>
9000422c:	deadbeef          	jal	t4,8ffdf816 <offset+0x8ffdf572>
90004230:	deadbeef          	jal	t4,8ffdf81a <offset+0x8ffdf576>
90004234:	deadbeef          	jal	t4,8ffdf81e <offset+0x8ffdf57a>
90004238:	deadbeef          	jal	t4,8ffdf822 <offset+0x8ffdf57e>
9000423c:	deadbeef          	jal	t4,8ffdf826 <offset+0x8ffdf582>
90004240:	deadbeef          	jal	t4,8ffdf82a <offset+0x8ffdf586>
90004244:	deadbeef          	jal	t4,8ffdf82e <offset+0x8ffdf58a>
90004248:	deadbeef          	jal	t4,8ffdf832 <offset+0x8ffdf58e>
9000424c:	deadbeef          	jal	t4,8ffdf836 <offset+0x8ffdf592>
90004250:	deadbeef          	jal	t4,8ffdf83a <offset+0x8ffdf596>
90004254:	deadbeef          	jal	t4,8ffdf83e <offset+0x8ffdf59a>
90004258:	deadbeef          	jal	t4,8ffdf842 <offset+0x8ffdf59e>
9000425c:	deadbeef          	jal	t4,8ffdf846 <offset+0x8ffdf5a2>
90004260:	deadbeef          	jal	t4,8ffdf84a <offset+0x8ffdf5a6>
90004264:	deadbeef          	jal	t4,8ffdf84e <offset+0x8ffdf5aa>
90004268:	deadbeef          	jal	t4,8ffdf852 <offset+0x8ffdf5ae>
9000426c:	deadbeef          	jal	t4,8ffdf856 <offset+0x8ffdf5b2>
90004270:	deadbeef          	jal	t4,8ffdf85a <offset+0x8ffdf5b6>
90004274:	deadbeef          	jal	t4,8ffdf85e <offset+0x8ffdf5ba>
90004278:	deadbeef          	jal	t4,8ffdf862 <offset+0x8ffdf5be>
9000427c:	deadbeef          	jal	t4,8ffdf866 <offset+0x8ffdf5c2>
90004280:	deadbeef          	jal	t4,8ffdf86a <offset+0x8ffdf5c6>
90004284:	deadbeef          	jal	t4,8ffdf86e <offset+0x8ffdf5ca>
90004288:	deadbeef          	jal	t4,8ffdf872 <offset+0x8ffdf5ce>
9000428c:	deadbeef          	jal	t4,8ffdf876 <offset+0x8ffdf5d2>
90004290:	deadbeef          	jal	t4,8ffdf87a <offset+0x8ffdf5d6>
90004294:	deadbeef          	jal	t4,8ffdf87e <offset+0x8ffdf5da>
90004298:	deadbeef          	jal	t4,8ffdf882 <offset+0x8ffdf5de>
9000429c:	deadbeef          	jal	t4,8ffdf886 <offset+0x8ffdf5e2>
900042a0:	deadbeef          	jal	t4,8ffdf88a <offset+0x8ffdf5e6>
900042a4:	deadbeef          	jal	t4,8ffdf88e <offset+0x8ffdf5ea>
900042a8:	deadbeef          	jal	t4,8ffdf892 <offset+0x8ffdf5ee>
900042ac:	deadbeef          	jal	t4,8ffdf896 <offset+0x8ffdf5f2>
900042b0:	deadbeef          	jal	t4,8ffdf89a <offset+0x8ffdf5f6>
900042b4:	deadbeef          	jal	t4,8ffdf89e <offset+0x8ffdf5fa>
900042b8:	deadbeef          	jal	t4,8ffdf8a2 <offset+0x8ffdf5fe>
900042bc:	deadbeef          	jal	t4,8ffdf8a6 <offset+0x8ffdf602>
900042c0:	deadbeef          	jal	t4,8ffdf8aa <offset+0x8ffdf606>
900042c4:	deadbeef          	jal	t4,8ffdf8ae <offset+0x8ffdf60a>
900042c8:	deadbeef          	jal	t4,8ffdf8b2 <offset+0x8ffdf60e>
900042cc:	deadbeef          	jal	t4,8ffdf8b6 <offset+0x8ffdf612>
900042d0:	deadbeef          	jal	t4,8ffdf8ba <offset+0x8ffdf616>
900042d4:	deadbeef          	jal	t4,8ffdf8be <offset+0x8ffdf61a>
900042d8:	deadbeef          	jal	t4,8ffdf8c2 <offset+0x8ffdf61e>
900042dc:	deadbeef          	jal	t4,8ffdf8c6 <offset+0x8ffdf622>
900042e0:	deadbeef          	jal	t4,8ffdf8ca <offset+0x8ffdf626>
900042e4:	deadbeef          	jal	t4,8ffdf8ce <offset+0x8ffdf62a>
900042e8:	deadbeef          	jal	t4,8ffdf8d2 <offset+0x8ffdf62e>
900042ec:	deadbeef          	jal	t4,8ffdf8d6 <offset+0x8ffdf632>
900042f0:	deadbeef          	jal	t4,8ffdf8da <offset+0x8ffdf636>
900042f4:	deadbeef          	jal	t4,8ffdf8de <offset+0x8ffdf63a>
900042f8:	deadbeef          	jal	t4,8ffdf8e2 <offset+0x8ffdf63e>
900042fc:	deadbeef          	jal	t4,8ffdf8e6 <offset+0x8ffdf642>
90004300:	deadbeef          	jal	t4,8ffdf8ea <offset+0x8ffdf646>
90004304:	deadbeef          	jal	t4,8ffdf8ee <offset+0x8ffdf64a>
90004308:	deadbeef          	jal	t4,8ffdf8f2 <offset+0x8ffdf64e>
9000430c:	deadbeef          	jal	t4,8ffdf8f6 <offset+0x8ffdf652>
90004310:	deadbeef          	jal	t4,8ffdf8fa <offset+0x8ffdf656>
90004314:	deadbeef          	jal	t4,8ffdf8fe <offset+0x8ffdf65a>
90004318:	deadbeef          	jal	t4,8ffdf902 <offset+0x8ffdf65e>
9000431c:	deadbeef          	jal	t4,8ffdf906 <offset+0x8ffdf662>
90004320:	deadbeef          	jal	t4,8ffdf90a <offset+0x8ffdf666>
90004324:	deadbeef          	jal	t4,8ffdf90e <offset+0x8ffdf66a>
90004328:	deadbeef          	jal	t4,8ffdf912 <offset+0x8ffdf66e>
9000432c:	deadbeef          	jal	t4,8ffdf916 <offset+0x8ffdf672>
90004330:	deadbeef          	jal	t4,8ffdf91a <offset+0x8ffdf676>
90004334:	deadbeef          	jal	t4,8ffdf91e <offset+0x8ffdf67a>
90004338:	deadbeef          	jal	t4,8ffdf922 <offset+0x8ffdf67e>
9000433c:	deadbeef          	jal	t4,8ffdf926 <offset+0x8ffdf682>
90004340:	deadbeef          	jal	t4,8ffdf92a <offset+0x8ffdf686>
90004344:	deadbeef          	jal	t4,8ffdf92e <offset+0x8ffdf68a>
90004348:	deadbeef          	jal	t4,8ffdf932 <offset+0x8ffdf68e>
9000434c:	deadbeef          	jal	t4,8ffdf936 <offset+0x8ffdf692>
90004350:	deadbeef          	jal	t4,8ffdf93a <offset+0x8ffdf696>
90004354:	deadbeef          	jal	t4,8ffdf93e <offset+0x8ffdf69a>
90004358:	deadbeef          	jal	t4,8ffdf942 <offset+0x8ffdf69e>
9000435c:	deadbeef          	jal	t4,8ffdf946 <offset+0x8ffdf6a2>
90004360:	deadbeef          	jal	t4,8ffdf94a <offset+0x8ffdf6a6>
90004364:	deadbeef          	jal	t4,8ffdf94e <offset+0x8ffdf6aa>
90004368:	deadbeef          	jal	t4,8ffdf952 <offset+0x8ffdf6ae>
9000436c:	deadbeef          	jal	t4,8ffdf956 <offset+0x8ffdf6b2>
90004370:	deadbeef          	jal	t4,8ffdf95a <offset+0x8ffdf6b6>
90004374:	deadbeef          	jal	t4,8ffdf95e <offset+0x8ffdf6ba>
90004378:	deadbeef          	jal	t4,8ffdf962 <offset+0x8ffdf6be>
9000437c:	deadbeef          	jal	t4,8ffdf966 <offset+0x8ffdf6c2>
90004380:	deadbeef          	jal	t4,8ffdf96a <offset+0x8ffdf6c6>
90004384:	deadbeef          	jal	t4,8ffdf96e <offset+0x8ffdf6ca>
90004388:	deadbeef          	jal	t4,8ffdf972 <offset+0x8ffdf6ce>
9000438c:	deadbeef          	jal	t4,8ffdf976 <offset+0x8ffdf6d2>
90004390:	deadbeef          	jal	t4,8ffdf97a <offset+0x8ffdf6d6>
90004394:	deadbeef          	jal	t4,8ffdf97e <offset+0x8ffdf6da>
90004398:	deadbeef          	jal	t4,8ffdf982 <offset+0x8ffdf6de>
9000439c:	deadbeef          	jal	t4,8ffdf986 <offset+0x8ffdf6e2>
900043a0:	deadbeef          	jal	t4,8ffdf98a <offset+0x8ffdf6e6>
900043a4:	deadbeef          	jal	t4,8ffdf98e <offset+0x8ffdf6ea>
900043a8:	deadbeef          	jal	t4,8ffdf992 <offset+0x8ffdf6ee>
900043ac:	deadbeef          	jal	t4,8ffdf996 <offset+0x8ffdf6f2>
900043b0:	deadbeef          	jal	t4,8ffdf99a <offset+0x8ffdf6f6>
900043b4:	deadbeef          	jal	t4,8ffdf99e <offset+0x8ffdf6fa>
900043b8:	deadbeef          	jal	t4,8ffdf9a2 <offset+0x8ffdf6fe>
900043bc:	deadbeef          	jal	t4,8ffdf9a6 <offset+0x8ffdf702>
900043c0:	deadbeef          	jal	t4,8ffdf9aa <offset+0x8ffdf706>
900043c4:	deadbeef          	jal	t4,8ffdf9ae <offset+0x8ffdf70a>
900043c8:	deadbeef          	jal	t4,8ffdf9b2 <offset+0x8ffdf70e>
900043cc:	deadbeef          	jal	t4,8ffdf9b6 <offset+0x8ffdf712>
900043d0:	deadbeef          	jal	t4,8ffdf9ba <offset+0x8ffdf716>
900043d4:	deadbeef          	jal	t4,8ffdf9be <offset+0x8ffdf71a>
900043d8:	deadbeef          	jal	t4,8ffdf9c2 <offset+0x8ffdf71e>
900043dc:	deadbeef          	jal	t4,8ffdf9c6 <offset+0x8ffdf722>
900043e0:	deadbeef          	jal	t4,8ffdf9ca <offset+0x8ffdf726>
900043e4:	deadbeef          	jal	t4,8ffdf9ce <offset+0x8ffdf72a>
900043e8:	deadbeef          	jal	t4,8ffdf9d2 <offset+0x8ffdf72e>
900043ec:	deadbeef          	jal	t4,8ffdf9d6 <offset+0x8ffdf732>
900043f0:	deadbeef          	jal	t4,8ffdf9da <offset+0x8ffdf736>
900043f4:	deadbeef          	jal	t4,8ffdf9de <offset+0x8ffdf73a>
900043f8:	deadbeef          	jal	t4,8ffdf9e2 <offset+0x8ffdf73e>
900043fc:	deadbeef          	jal	t4,8ffdf9e6 <offset+0x8ffdf742>
90004400:	deadbeef          	jal	t4,8ffdf9ea <offset+0x8ffdf746>
90004404:	deadbeef          	jal	t4,8ffdf9ee <offset+0x8ffdf74a>
90004408:	deadbeef          	jal	t4,8ffdf9f2 <offset+0x8ffdf74e>
9000440c:	deadbeef          	jal	t4,8ffdf9f6 <offset+0x8ffdf752>
90004410:	deadbeef          	jal	t4,8ffdf9fa <offset+0x8ffdf756>
90004414:	deadbeef          	jal	t4,8ffdf9fe <offset+0x8ffdf75a>
90004418:	deadbeef          	jal	t4,8ffdfa02 <offset+0x8ffdf75e>
9000441c:	deadbeef          	jal	t4,8ffdfa06 <offset+0x8ffdf762>
90004420:	deadbeef          	jal	t4,8ffdfa0a <offset+0x8ffdf766>
90004424:	deadbeef          	jal	t4,8ffdfa0e <offset+0x8ffdf76a>
90004428:	deadbeef          	jal	t4,8ffdfa12 <offset+0x8ffdf76e>
9000442c:	deadbeef          	jal	t4,8ffdfa16 <offset+0x8ffdf772>
90004430:	deadbeef          	jal	t4,8ffdfa1a <offset+0x8ffdf776>
90004434:	deadbeef          	jal	t4,8ffdfa1e <offset+0x8ffdf77a>
90004438:	deadbeef          	jal	t4,8ffdfa22 <offset+0x8ffdf77e>
9000443c:	deadbeef          	jal	t4,8ffdfa26 <offset+0x8ffdf782>
90004440:	deadbeef          	jal	t4,8ffdfa2a <offset+0x8ffdf786>
90004444:	deadbeef          	jal	t4,8ffdfa2e <offset+0x8ffdf78a>
90004448:	deadbeef          	jal	t4,8ffdfa32 <offset+0x8ffdf78e>
9000444c:	deadbeef          	jal	t4,8ffdfa36 <offset+0x8ffdf792>
90004450:	deadbeef          	jal	t4,8ffdfa3a <offset+0x8ffdf796>
90004454:	deadbeef          	jal	t4,8ffdfa3e <offset+0x8ffdf79a>
90004458:	deadbeef          	jal	t4,8ffdfa42 <offset+0x8ffdf79e>
9000445c:	deadbeef          	jal	t4,8ffdfa46 <offset+0x8ffdf7a2>
90004460:	deadbeef          	jal	t4,8ffdfa4a <offset+0x8ffdf7a6>
90004464:	deadbeef          	jal	t4,8ffdfa4e <offset+0x8ffdf7aa>
90004468:	deadbeef          	jal	t4,8ffdfa52 <offset+0x8ffdf7ae>
9000446c:	deadbeef          	jal	t4,8ffdfa56 <offset+0x8ffdf7b2>
90004470:	deadbeef          	jal	t4,8ffdfa5a <offset+0x8ffdf7b6>
90004474:	deadbeef          	jal	t4,8ffdfa5e <offset+0x8ffdf7ba>
90004478:	deadbeef          	jal	t4,8ffdfa62 <offset+0x8ffdf7be>
9000447c:	deadbeef          	jal	t4,8ffdfa66 <offset+0x8ffdf7c2>
90004480:	deadbeef          	jal	t4,8ffdfa6a <offset+0x8ffdf7c6>
90004484:	deadbeef          	jal	t4,8ffdfa6e <offset+0x8ffdf7ca>
90004488:	deadbeef          	jal	t4,8ffdfa72 <offset+0x8ffdf7ce>
9000448c:	deadbeef          	jal	t4,8ffdfa76 <offset+0x8ffdf7d2>
90004490:	deadbeef          	jal	t4,8ffdfa7a <offset+0x8ffdf7d6>
90004494:	deadbeef          	jal	t4,8ffdfa7e <offset+0x8ffdf7da>
90004498:	deadbeef          	jal	t4,8ffdfa82 <offset+0x8ffdf7de>
9000449c:	deadbeef          	jal	t4,8ffdfa86 <offset+0x8ffdf7e2>
900044a0:	deadbeef          	jal	t4,8ffdfa8a <offset+0x8ffdf7e6>
900044a4:	deadbeef          	jal	t4,8ffdfa8e <offset+0x8ffdf7ea>
900044a8:	deadbeef          	jal	t4,8ffdfa92 <offset+0x8ffdf7ee>
900044ac:	deadbeef          	jal	t4,8ffdfa96 <offset+0x8ffdf7f2>
900044b0:	deadbeef          	jal	t4,8ffdfa9a <offset+0x8ffdf7f6>
900044b4:	deadbeef          	jal	t4,8ffdfa9e <offset+0x8ffdf7fa>
900044b8:	deadbeef          	jal	t4,8ffdfaa2 <offset+0x8ffdf7fe>
900044bc:	deadbeef          	jal	t4,8ffdfaa6 <offset+0x8ffdf802>
900044c0:	deadbeef          	jal	t4,8ffdfaaa <offset+0x8ffdf806>
900044c4:	deadbeef          	jal	t4,8ffdfaae <offset+0x8ffdf80a>
900044c8:	deadbeef          	jal	t4,8ffdfab2 <offset+0x8ffdf80e>
900044cc:	deadbeef          	jal	t4,8ffdfab6 <offset+0x8ffdf812>
900044d0:	deadbeef          	jal	t4,8ffdfaba <offset+0x8ffdf816>
900044d4:	deadbeef          	jal	t4,8ffdfabe <offset+0x8ffdf81a>
900044d8:	deadbeef          	jal	t4,8ffdfac2 <offset+0x8ffdf81e>
900044dc:	deadbeef          	jal	t4,8ffdfac6 <offset+0x8ffdf822>
900044e0:	deadbeef          	jal	t4,8ffdfaca <offset+0x8ffdf826>
900044e4:	deadbeef          	jal	t4,8ffdface <offset+0x8ffdf82a>
900044e8:	deadbeef          	jal	t4,8ffdfad2 <offset+0x8ffdf82e>
900044ec:	deadbeef          	jal	t4,8ffdfad6 <offset+0x8ffdf832>
900044f0:	deadbeef          	jal	t4,8ffdfada <offset+0x8ffdf836>
900044f4:	deadbeef          	jal	t4,8ffdfade <offset+0x8ffdf83a>
900044f8:	deadbeef          	jal	t4,8ffdfae2 <offset+0x8ffdf83e>
900044fc:	deadbeef          	jal	t4,8ffdfae6 <offset+0x8ffdf842>
90004500:	deadbeef          	jal	t4,8ffdfaea <offset+0x8ffdf846>
90004504:	deadbeef          	jal	t4,8ffdfaee <offset+0x8ffdf84a>
90004508:	deadbeef          	jal	t4,8ffdfaf2 <offset+0x8ffdf84e>
9000450c:	deadbeef          	jal	t4,8ffdfaf6 <offset+0x8ffdf852>
90004510:	deadbeef          	jal	t4,8ffdfafa <offset+0x8ffdf856>
90004514:	deadbeef          	jal	t4,8ffdfafe <offset+0x8ffdf85a>
90004518:	deadbeef          	jal	t4,8ffdfb02 <offset+0x8ffdf85e>
9000451c:	deadbeef          	jal	t4,8ffdfb06 <offset+0x8ffdf862>
90004520:	deadbeef          	jal	t4,8ffdfb0a <offset+0x8ffdf866>
90004524:	deadbeef          	jal	t4,8ffdfb0e <offset+0x8ffdf86a>
90004528:	deadbeef          	jal	t4,8ffdfb12 <offset+0x8ffdf86e>
9000452c:	deadbeef          	jal	t4,8ffdfb16 <offset+0x8ffdf872>
90004530:	deadbeef          	jal	t4,8ffdfb1a <offset+0x8ffdf876>
90004534:	deadbeef          	jal	t4,8ffdfb1e <offset+0x8ffdf87a>
90004538:	deadbeef          	jal	t4,8ffdfb22 <offset+0x8ffdf87e>
9000453c:	deadbeef          	jal	t4,8ffdfb26 <offset+0x8ffdf882>
90004540:	deadbeef          	jal	t4,8ffdfb2a <offset+0x8ffdf886>
90004544:	deadbeef          	jal	t4,8ffdfb2e <offset+0x8ffdf88a>
90004548:	deadbeef          	jal	t4,8ffdfb32 <offset+0x8ffdf88e>
9000454c:	deadbeef          	jal	t4,8ffdfb36 <offset+0x8ffdf892>
90004550:	deadbeef          	jal	t4,8ffdfb3a <offset+0x8ffdf896>
90004554:	deadbeef          	jal	t4,8ffdfb3e <offset+0x8ffdf89a>
90004558:	deadbeef          	jal	t4,8ffdfb42 <offset+0x8ffdf89e>
9000455c:	deadbeef          	jal	t4,8ffdfb46 <offset+0x8ffdf8a2>
90004560:	deadbeef          	jal	t4,8ffdfb4a <offset+0x8ffdf8a6>
90004564:	deadbeef          	jal	t4,8ffdfb4e <offset+0x8ffdf8aa>
90004568:	deadbeef          	jal	t4,8ffdfb52 <offset+0x8ffdf8ae>
9000456c:	deadbeef          	jal	t4,8ffdfb56 <offset+0x8ffdf8b2>
90004570:	deadbeef          	jal	t4,8ffdfb5a <offset+0x8ffdf8b6>
90004574:	deadbeef          	jal	t4,8ffdfb5e <offset+0x8ffdf8ba>
90004578:	deadbeef          	jal	t4,8ffdfb62 <offset+0x8ffdf8be>
9000457c:	deadbeef          	jal	t4,8ffdfb66 <offset+0x8ffdf8c2>
90004580:	deadbeef          	jal	t4,8ffdfb6a <offset+0x8ffdf8c6>
90004584:	deadbeef          	jal	t4,8ffdfb6e <offset+0x8ffdf8ca>
90004588:	deadbeef          	jal	t4,8ffdfb72 <offset+0x8ffdf8ce>
9000458c:	deadbeef          	jal	t4,8ffdfb76 <offset+0x8ffdf8d2>
90004590:	deadbeef          	jal	t4,8ffdfb7a <offset+0x8ffdf8d6>
90004594:	deadbeef          	jal	t4,8ffdfb7e <offset+0x8ffdf8da>
90004598:	deadbeef          	jal	t4,8ffdfb82 <offset+0x8ffdf8de>
9000459c:	deadbeef          	jal	t4,8ffdfb86 <offset+0x8ffdf8e2>
900045a0:	deadbeef          	jal	t4,8ffdfb8a <offset+0x8ffdf8e6>
900045a4:	deadbeef          	jal	t4,8ffdfb8e <offset+0x8ffdf8ea>
900045a8:	deadbeef          	jal	t4,8ffdfb92 <offset+0x8ffdf8ee>
900045ac:	deadbeef          	jal	t4,8ffdfb96 <offset+0x8ffdf8f2>
900045b0:	deadbeef          	jal	t4,8ffdfb9a <offset+0x8ffdf8f6>
900045b4:	deadbeef          	jal	t4,8ffdfb9e <offset+0x8ffdf8fa>
900045b8:	deadbeef          	jal	t4,8ffdfba2 <offset+0x8ffdf8fe>
900045bc:	deadbeef          	jal	t4,8ffdfba6 <offset+0x8ffdf902>
900045c0:	deadbeef          	jal	t4,8ffdfbaa <offset+0x8ffdf906>
900045c4:	deadbeef          	jal	t4,8ffdfbae <offset+0x8ffdf90a>
900045c8:	deadbeef          	jal	t4,8ffdfbb2 <offset+0x8ffdf90e>
900045cc:	deadbeef          	jal	t4,8ffdfbb6 <offset+0x8ffdf912>
900045d0:	deadbeef          	jal	t4,8ffdfbba <offset+0x8ffdf916>
900045d4:	deadbeef          	jal	t4,8ffdfbbe <offset+0x8ffdf91a>
900045d8:	deadbeef          	jal	t4,8ffdfbc2 <offset+0x8ffdf91e>
900045dc:	deadbeef          	jal	t4,8ffdfbc6 <offset+0x8ffdf922>
900045e0:	deadbeef          	jal	t4,8ffdfbca <offset+0x8ffdf926>
900045e4:	deadbeef          	jal	t4,8ffdfbce <offset+0x8ffdf92a>
900045e8:	deadbeef          	jal	t4,8ffdfbd2 <offset+0x8ffdf92e>
900045ec:	deadbeef          	jal	t4,8ffdfbd6 <offset+0x8ffdf932>
900045f0:	deadbeef          	jal	t4,8ffdfbda <offset+0x8ffdf936>
900045f4:	deadbeef          	jal	t4,8ffdfbde <offset+0x8ffdf93a>
900045f8:	deadbeef          	jal	t4,8ffdfbe2 <offset+0x8ffdf93e>
900045fc:	deadbeef          	jal	t4,8ffdfbe6 <offset+0x8ffdf942>
90004600:	deadbeef          	jal	t4,8ffdfbea <offset+0x8ffdf946>
90004604:	deadbeef          	jal	t4,8ffdfbee <offset+0x8ffdf94a>
90004608:	deadbeef          	jal	t4,8ffdfbf2 <offset+0x8ffdf94e>
9000460c:	deadbeef          	jal	t4,8ffdfbf6 <offset+0x8ffdf952>
90004610:	deadbeef          	jal	t4,8ffdfbfa <offset+0x8ffdf956>
90004614:	deadbeef          	jal	t4,8ffdfbfe <offset+0x8ffdf95a>
90004618:	deadbeef          	jal	t4,8ffdfc02 <offset+0x8ffdf95e>
9000461c:	deadbeef          	jal	t4,8ffdfc06 <offset+0x8ffdf962>
90004620:	deadbeef          	jal	t4,8ffdfc0a <offset+0x8ffdf966>
90004624:	deadbeef          	jal	t4,8ffdfc0e <offset+0x8ffdf96a>
90004628:	deadbeef          	jal	t4,8ffdfc12 <offset+0x8ffdf96e>
9000462c:	deadbeef          	jal	t4,8ffdfc16 <offset+0x8ffdf972>
90004630:	deadbeef          	jal	t4,8ffdfc1a <offset+0x8ffdf976>
90004634:	deadbeef          	jal	t4,8ffdfc1e <offset+0x8ffdf97a>
90004638:	deadbeef          	jal	t4,8ffdfc22 <offset+0x8ffdf97e>
9000463c:	deadbeef          	jal	t4,8ffdfc26 <offset+0x8ffdf982>
90004640:	deadbeef          	jal	t4,8ffdfc2a <offset+0x8ffdf986>
90004644:	deadbeef          	jal	t4,8ffdfc2e <offset+0x8ffdf98a>
90004648:	deadbeef          	jal	t4,8ffdfc32 <offset+0x8ffdf98e>
9000464c:	deadbeef          	jal	t4,8ffdfc36 <offset+0x8ffdf992>
90004650:	deadbeef          	jal	t4,8ffdfc3a <offset+0x8ffdf996>
90004654:	deadbeef          	jal	t4,8ffdfc3e <offset+0x8ffdf99a>
90004658:	deadbeef          	jal	t4,8ffdfc42 <offset+0x8ffdf99e>
9000465c:	deadbeef          	jal	t4,8ffdfc46 <offset+0x8ffdf9a2>
90004660:	deadbeef          	jal	t4,8ffdfc4a <offset+0x8ffdf9a6>
90004664:	deadbeef          	jal	t4,8ffdfc4e <offset+0x8ffdf9aa>
90004668:	deadbeef          	jal	t4,8ffdfc52 <offset+0x8ffdf9ae>
9000466c:	deadbeef          	jal	t4,8ffdfc56 <offset+0x8ffdf9b2>
90004670:	deadbeef          	jal	t4,8ffdfc5a <offset+0x8ffdf9b6>
90004674:	deadbeef          	jal	t4,8ffdfc5e <offset+0x8ffdf9ba>
90004678:	deadbeef          	jal	t4,8ffdfc62 <offset+0x8ffdf9be>
9000467c:	deadbeef          	jal	t4,8ffdfc66 <offset+0x8ffdf9c2>
90004680:	deadbeef          	jal	t4,8ffdfc6a <offset+0x8ffdf9c6>
90004684:	deadbeef          	jal	t4,8ffdfc6e <offset+0x8ffdf9ca>
90004688:	deadbeef          	jal	t4,8ffdfc72 <offset+0x8ffdf9ce>
9000468c:	deadbeef          	jal	t4,8ffdfc76 <offset+0x8ffdf9d2>
90004690:	deadbeef          	jal	t4,8ffdfc7a <offset+0x8ffdf9d6>
90004694:	deadbeef          	jal	t4,8ffdfc7e <offset+0x8ffdf9da>
90004698:	deadbeef          	jal	t4,8ffdfc82 <offset+0x8ffdf9de>
9000469c:	deadbeef          	jal	t4,8ffdfc86 <offset+0x8ffdf9e2>
900046a0:	deadbeef          	jal	t4,8ffdfc8a <offset+0x8ffdf9e6>
900046a4:	deadbeef          	jal	t4,8ffdfc8e <offset+0x8ffdf9ea>
900046a8:	deadbeef          	jal	t4,8ffdfc92 <offset+0x8ffdf9ee>
900046ac:	deadbeef          	jal	t4,8ffdfc96 <offset+0x8ffdf9f2>
900046b0:	deadbeef          	jal	t4,8ffdfc9a <offset+0x8ffdf9f6>
900046b4:	deadbeef          	jal	t4,8ffdfc9e <offset+0x8ffdf9fa>
900046b8:	deadbeef          	jal	t4,8ffdfca2 <offset+0x8ffdf9fe>
900046bc:	deadbeef          	jal	t4,8ffdfca6 <offset+0x8ffdfa02>
900046c0:	deadbeef          	jal	t4,8ffdfcaa <offset+0x8ffdfa06>
900046c4:	deadbeef          	jal	t4,8ffdfcae <offset+0x8ffdfa0a>
900046c8:	deadbeef          	jal	t4,8ffdfcb2 <offset+0x8ffdfa0e>
900046cc:	deadbeef          	jal	t4,8ffdfcb6 <offset+0x8ffdfa12>
900046d0:	deadbeef          	jal	t4,8ffdfcba <offset+0x8ffdfa16>
900046d4:	deadbeef          	jal	t4,8ffdfcbe <offset+0x8ffdfa1a>
900046d8:	deadbeef          	jal	t4,8ffdfcc2 <offset+0x8ffdfa1e>
900046dc:	deadbeef          	jal	t4,8ffdfcc6 <offset+0x8ffdfa22>
900046e0:	deadbeef          	jal	t4,8ffdfcca <offset+0x8ffdfa26>
900046e4:	deadbeef          	jal	t4,8ffdfcce <offset+0x8ffdfa2a>
900046e8:	deadbeef          	jal	t4,8ffdfcd2 <offset+0x8ffdfa2e>
900046ec:	deadbeef          	jal	t4,8ffdfcd6 <offset+0x8ffdfa32>
900046f0:	deadbeef          	jal	t4,8ffdfcda <offset+0x8ffdfa36>
900046f4:	deadbeef          	jal	t4,8ffdfcde <offset+0x8ffdfa3a>
900046f8:	deadbeef          	jal	t4,8ffdfce2 <offset+0x8ffdfa3e>
900046fc:	deadbeef          	jal	t4,8ffdfce6 <offset+0x8ffdfa42>
90004700:	deadbeef          	jal	t4,8ffdfcea <offset+0x8ffdfa46>
90004704:	deadbeef          	jal	t4,8ffdfcee <offset+0x8ffdfa4a>
90004708:	deadbeef          	jal	t4,8ffdfcf2 <offset+0x8ffdfa4e>
9000470c:	deadbeef          	jal	t4,8ffdfcf6 <offset+0x8ffdfa52>
90004710:	deadbeef          	jal	t4,8ffdfcfa <offset+0x8ffdfa56>
90004714:	deadbeef          	jal	t4,8ffdfcfe <offset+0x8ffdfa5a>
90004718:	deadbeef          	jal	t4,8ffdfd02 <offset+0x8ffdfa5e>
9000471c:	deadbeef          	jal	t4,8ffdfd06 <offset+0x8ffdfa62>
90004720:	deadbeef          	jal	t4,8ffdfd0a <offset+0x8ffdfa66>
90004724:	deadbeef          	jal	t4,8ffdfd0e <offset+0x8ffdfa6a>
90004728:	deadbeef          	jal	t4,8ffdfd12 <offset+0x8ffdfa6e>
9000472c:	deadbeef          	jal	t4,8ffdfd16 <offset+0x8ffdfa72>
90004730:	deadbeef          	jal	t4,8ffdfd1a <offset+0x8ffdfa76>
90004734:	deadbeef          	jal	t4,8ffdfd1e <offset+0x8ffdfa7a>
90004738:	deadbeef          	jal	t4,8ffdfd22 <offset+0x8ffdfa7e>
9000473c:	deadbeef          	jal	t4,8ffdfd26 <offset+0x8ffdfa82>
90004740:	deadbeef          	jal	t4,8ffdfd2a <offset+0x8ffdfa86>
90004744:	deadbeef          	jal	t4,8ffdfd2e <offset+0x8ffdfa8a>
90004748:	deadbeef          	jal	t4,8ffdfd32 <offset+0x8ffdfa8e>
9000474c:	deadbeef          	jal	t4,8ffdfd36 <offset+0x8ffdfa92>
90004750:	deadbeef          	jal	t4,8ffdfd3a <offset+0x8ffdfa96>
90004754:	deadbeef          	jal	t4,8ffdfd3e <offset+0x8ffdfa9a>
90004758:	deadbeef          	jal	t4,8ffdfd42 <offset+0x8ffdfa9e>
9000475c:	deadbeef          	jal	t4,8ffdfd46 <offset+0x8ffdfaa2>
90004760:	deadbeef          	jal	t4,8ffdfd4a <offset+0x8ffdfaa6>
90004764:	deadbeef          	jal	t4,8ffdfd4e <offset+0x8ffdfaaa>
90004768:	deadbeef          	jal	t4,8ffdfd52 <offset+0x8ffdfaae>
9000476c:	deadbeef          	jal	t4,8ffdfd56 <offset+0x8ffdfab2>
90004770:	deadbeef          	jal	t4,8ffdfd5a <offset+0x8ffdfab6>
90004774:	deadbeef          	jal	t4,8ffdfd5e <offset+0x8ffdfaba>
90004778:	deadbeef          	jal	t4,8ffdfd62 <offset+0x8ffdfabe>
9000477c:	deadbeef          	jal	t4,8ffdfd66 <offset+0x8ffdfac2>
90004780:	deadbeef          	jal	t4,8ffdfd6a <offset+0x8ffdfac6>
90004784:	deadbeef          	jal	t4,8ffdfd6e <offset+0x8ffdfaca>
90004788:	deadbeef          	jal	t4,8ffdfd72 <offset+0x8ffdface>
9000478c:	deadbeef          	jal	t4,8ffdfd76 <offset+0x8ffdfad2>
90004790:	deadbeef          	jal	t4,8ffdfd7a <offset+0x8ffdfad6>
90004794:	deadbeef          	jal	t4,8ffdfd7e <offset+0x8ffdfada>
90004798:	deadbeef          	jal	t4,8ffdfd82 <offset+0x8ffdfade>
9000479c:	deadbeef          	jal	t4,8ffdfd86 <offset+0x8ffdfae2>
900047a0:	deadbeef          	jal	t4,8ffdfd8a <offset+0x8ffdfae6>
900047a4:	deadbeef          	jal	t4,8ffdfd8e <offset+0x8ffdfaea>
900047a8:	deadbeef          	jal	t4,8ffdfd92 <offset+0x8ffdfaee>
900047ac:	deadbeef          	jal	t4,8ffdfd96 <offset+0x8ffdfaf2>
900047b0:	deadbeef          	jal	t4,8ffdfd9a <offset+0x8ffdfaf6>
900047b4:	deadbeef          	jal	t4,8ffdfd9e <offset+0x8ffdfafa>
900047b8:	deadbeef          	jal	t4,8ffdfda2 <offset+0x8ffdfafe>
900047bc:	deadbeef          	jal	t4,8ffdfda6 <offset+0x8ffdfb02>
900047c0:	deadbeef          	jal	t4,8ffdfdaa <offset+0x8ffdfb06>
900047c4:	deadbeef          	jal	t4,8ffdfdae <offset+0x8ffdfb0a>
900047c8:	deadbeef          	jal	t4,8ffdfdb2 <offset+0x8ffdfb0e>
900047cc:	deadbeef          	jal	t4,8ffdfdb6 <offset+0x8ffdfb12>
900047d0:	deadbeef          	jal	t4,8ffdfdba <offset+0x8ffdfb16>
900047d4:	deadbeef          	jal	t4,8ffdfdbe <offset+0x8ffdfb1a>
900047d8:	deadbeef          	jal	t4,8ffdfdc2 <offset+0x8ffdfb1e>
900047dc:	deadbeef          	jal	t4,8ffdfdc6 <offset+0x8ffdfb22>
900047e0:	deadbeef          	jal	t4,8ffdfdca <offset+0x8ffdfb26>
900047e4:	deadbeef          	jal	t4,8ffdfdce <offset+0x8ffdfb2a>
900047e8:	deadbeef          	jal	t4,8ffdfdd2 <offset+0x8ffdfb2e>
900047ec:	deadbeef          	jal	t4,8ffdfdd6 <offset+0x8ffdfb32>
900047f0:	deadbeef          	jal	t4,8ffdfdda <offset+0x8ffdfb36>
900047f4:	deadbeef          	jal	t4,8ffdfdde <offset+0x8ffdfb3a>
900047f8:	deadbeef          	jal	t4,8ffdfde2 <offset+0x8ffdfb3e>
900047fc:	deadbeef          	jal	t4,8ffdfde6 <offset+0x8ffdfb42>
90004800:	deadbeef          	jal	t4,8ffdfdea <offset+0x8ffdfb46>
90004804:	deadbeef          	jal	t4,8ffdfdee <offset+0x8ffdfb4a>
90004808:	deadbeef          	jal	t4,8ffdfdf2 <offset+0x8ffdfb4e>
9000480c:	deadbeef          	jal	t4,8ffdfdf6 <offset+0x8ffdfb52>
90004810:	deadbeef          	jal	t4,8ffdfdfa <offset+0x8ffdfb56>
90004814:	deadbeef          	jal	t4,8ffdfdfe <offset+0x8ffdfb5a>
90004818:	deadbeef          	jal	t4,8ffdfe02 <offset+0x8ffdfb5e>
9000481c:	deadbeef          	jal	t4,8ffdfe06 <offset+0x8ffdfb62>
90004820:	deadbeef          	jal	t4,8ffdfe0a <offset+0x8ffdfb66>
90004824:	deadbeef          	jal	t4,8ffdfe0e <offset+0x8ffdfb6a>
90004828:	deadbeef          	jal	t4,8ffdfe12 <offset+0x8ffdfb6e>
9000482c:	deadbeef          	jal	t4,8ffdfe16 <offset+0x8ffdfb72>
90004830:	deadbeef          	jal	t4,8ffdfe1a <offset+0x8ffdfb76>
90004834:	deadbeef          	jal	t4,8ffdfe1e <offset+0x8ffdfb7a>
90004838:	deadbeef          	jal	t4,8ffdfe22 <offset+0x8ffdfb7e>
9000483c:	deadbeef          	jal	t4,8ffdfe26 <offset+0x8ffdfb82>
90004840:	deadbeef          	jal	t4,8ffdfe2a <offset+0x8ffdfb86>
90004844:	deadbeef          	jal	t4,8ffdfe2e <offset+0x8ffdfb8a>
90004848:	deadbeef          	jal	t4,8ffdfe32 <offset+0x8ffdfb8e>
9000484c:	deadbeef          	jal	t4,8ffdfe36 <offset+0x8ffdfb92>
90004850:	deadbeef          	jal	t4,8ffdfe3a <offset+0x8ffdfb96>
90004854:	deadbeef          	jal	t4,8ffdfe3e <offset+0x8ffdfb9a>

90004858 <signature_x2_1>:
90004858:	deadbeef          	jal	t4,8ffdfe42 <offset+0x8ffdfb9e>
9000485c:	deadbeef          	jal	t4,8ffdfe46 <offset+0x8ffdfba2>
90004860:	deadbeef          	jal	t4,8ffdfe4a <offset+0x8ffdfba6>
90004864:	deadbeef          	jal	t4,8ffdfe4e <offset+0x8ffdfbaa>
90004868:	deadbeef          	jal	t4,8ffdfe52 <offset+0x8ffdfbae>
9000486c:	deadbeef          	jal	t4,8ffdfe56 <offset+0x8ffdfbb2>
90004870:	deadbeef          	jal	t4,8ffdfe5a <offset+0x8ffdfbb6>
90004874:	deadbeef          	jal	t4,8ffdfe5e <offset+0x8ffdfbba>
90004878:	deadbeef          	jal	t4,8ffdfe62 <offset+0x8ffdfbbe>
9000487c:	deadbeef          	jal	t4,8ffdfe66 <offset+0x8ffdfbc2>
90004880:	deadbeef          	jal	t4,8ffdfe6a <offset+0x8ffdfbc6>
90004884:	deadbeef          	jal	t4,8ffdfe6e <offset+0x8ffdfbca>
90004888:	deadbeef          	jal	t4,8ffdfe72 <offset+0x8ffdfbce>
9000488c:	deadbeef          	jal	t4,8ffdfe76 <offset+0x8ffdfbd2>
90004890:	deadbeef          	jal	t4,8ffdfe7a <offset+0x8ffdfbd6>
90004894:	deadbeef          	jal	t4,8ffdfe7e <offset+0x8ffdfbda>
90004898:	deadbeef          	jal	t4,8ffdfe82 <offset+0x8ffdfbde>
9000489c:	deadbeef          	jal	t4,8ffdfe86 <offset+0x8ffdfbe2>
900048a0:	deadbeef          	jal	t4,8ffdfe8a <offset+0x8ffdfbe6>
900048a4:	deadbeef          	jal	t4,8ffdfe8e <offset+0x8ffdfbea>
900048a8:	deadbeef          	jal	t4,8ffdfe92 <offset+0x8ffdfbee>
900048ac:	deadbeef          	jal	t4,8ffdfe96 <offset+0x8ffdfbf2>
900048b0:	deadbeef          	jal	t4,8ffdfe9a <offset+0x8ffdfbf6>
900048b4:	deadbeef          	jal	t4,8ffdfe9e <offset+0x8ffdfbfa>
900048b8:	deadbeef          	jal	t4,8ffdfea2 <offset+0x8ffdfbfe>
900048bc:	deadbeef          	jal	t4,8ffdfea6 <offset+0x8ffdfc02>
900048c0:	deadbeef          	jal	t4,8ffdfeaa <offset+0x8ffdfc06>
900048c4:	deadbeef          	jal	t4,8ffdfeae <offset+0x8ffdfc0a>
900048c8:	deadbeef          	jal	t4,8ffdfeb2 <offset+0x8ffdfc0e>
900048cc:	deadbeef          	jal	t4,8ffdfeb6 <offset+0x8ffdfc12>
900048d0:	deadbeef          	jal	t4,8ffdfeba <offset+0x8ffdfc16>
900048d4:	deadbeef          	jal	t4,8ffdfebe <offset+0x8ffdfc1a>
900048d8:	deadbeef          	jal	t4,8ffdfec2 <offset+0x8ffdfc1e>
900048dc:	deadbeef          	jal	t4,8ffdfec6 <offset+0x8ffdfc22>
900048e0:	deadbeef          	jal	t4,8ffdfeca <offset+0x8ffdfc26>
900048e4:	deadbeef          	jal	t4,8ffdfece <offset+0x8ffdfc2a>
900048e8:	deadbeef          	jal	t4,8ffdfed2 <offset+0x8ffdfc2e>
900048ec:	deadbeef          	jal	t4,8ffdfed6 <offset+0x8ffdfc32>
900048f0:	deadbeef          	jal	t4,8ffdfeda <offset+0x8ffdfc36>
900048f4:	deadbeef          	jal	t4,8ffdfede <offset+0x8ffdfc3a>
900048f8:	deadbeef          	jal	t4,8ffdfee2 <offset+0x8ffdfc3e>
900048fc:	deadbeef          	jal	t4,8ffdfee6 <offset+0x8ffdfc42>
90004900:	deadbeef          	jal	t4,8ffdfeea <offset+0x8ffdfc46>
90004904:	deadbeef          	jal	t4,8ffdfeee <offset+0x8ffdfc4a>
90004908:	deadbeef          	jal	t4,8ffdfef2 <offset+0x8ffdfc4e>
9000490c:	deadbeef          	jal	t4,8ffdfef6 <offset+0x8ffdfc52>
90004910:	deadbeef          	jal	t4,8ffdfefa <offset+0x8ffdfc56>
90004914:	deadbeef          	jal	t4,8ffdfefe <offset+0x8ffdfc5a>
90004918:	deadbeef          	jal	t4,8ffdff02 <offset+0x8ffdfc5e>
9000491c:	deadbeef          	jal	t4,8ffdff06 <offset+0x8ffdfc62>
90004920:	deadbeef          	jal	t4,8ffdff0a <offset+0x8ffdfc66>
90004924:	deadbeef          	jal	t4,8ffdff0e <offset+0x8ffdfc6a>
90004928:	deadbeef          	jal	t4,8ffdff12 <offset+0x8ffdfc6e>
9000492c:	deadbeef          	jal	t4,8ffdff16 <offset+0x8ffdfc72>
90004930:	deadbeef          	jal	t4,8ffdff1a <offset+0x8ffdfc76>
90004934:	deadbeef          	jal	t4,8ffdff1e <offset+0x8ffdfc7a>
90004938:	deadbeef          	jal	t4,8ffdff22 <offset+0x8ffdfc7e>
9000493c:	deadbeef          	jal	t4,8ffdff26 <offset+0x8ffdfc82>
90004940:	deadbeef          	jal	t4,8ffdff2a <offset+0x8ffdfc86>
90004944:	deadbeef          	jal	t4,8ffdff2e <offset+0x8ffdfc8a>
90004948:	deadbeef          	jal	t4,8ffdff32 <offset+0x8ffdfc8e>
9000494c:	deadbeef          	jal	t4,8ffdff36 <offset+0x8ffdfc92>
90004950:	deadbeef          	jal	t4,8ffdff3a <offset+0x8ffdfc96>
90004954:	deadbeef          	jal	t4,8ffdff3e <offset+0x8ffdfc9a>
90004958:	deadbeef          	jal	t4,8ffdff42 <offset+0x8ffdfc9e>
9000495c:	deadbeef          	jal	t4,8ffdff46 <offset+0x8ffdfca2>
90004960:	deadbeef          	jal	t4,8ffdff4a <offset+0x8ffdfca6>
90004964:	deadbeef          	jal	t4,8ffdff4e <offset+0x8ffdfcaa>
90004968:	deadbeef          	jal	t4,8ffdff52 <offset+0x8ffdfcae>
9000496c:	deadbeef          	jal	t4,8ffdff56 <offset+0x8ffdfcb2>
90004970:	deadbeef          	jal	t4,8ffdff5a <offset+0x8ffdfcb6>
90004974:	deadbeef          	jal	t4,8ffdff5e <offset+0x8ffdfcba>
90004978:	deadbeef          	jal	t4,8ffdff62 <offset+0x8ffdfcbe>
9000497c:	deadbeef          	jal	t4,8ffdff66 <offset+0x8ffdfcc2>
90004980:	deadbeef          	jal	t4,8ffdff6a <offset+0x8ffdfcc6>
90004984:	deadbeef          	jal	t4,8ffdff6e <offset+0x8ffdfcca>
90004988:	deadbeef          	jal	t4,8ffdff72 <offset+0x8ffdfcce>
9000498c:	deadbeef          	jal	t4,8ffdff76 <offset+0x8ffdfcd2>
90004990:	deadbeef          	jal	t4,8ffdff7a <offset+0x8ffdfcd6>
90004994:	deadbeef          	jal	t4,8ffdff7e <offset+0x8ffdfcda>
90004998:	deadbeef          	jal	t4,8ffdff82 <offset+0x8ffdfcde>
9000499c:	deadbeef          	jal	t4,8ffdff86 <offset+0x8ffdfce2>
900049a0:	deadbeef          	jal	t4,8ffdff8a <offset+0x8ffdfce6>
900049a4:	deadbeef          	jal	t4,8ffdff8e <offset+0x8ffdfcea>
900049a8:	deadbeef          	jal	t4,8ffdff92 <offset+0x8ffdfcee>
900049ac:	deadbeef          	jal	t4,8ffdff96 <offset+0x8ffdfcf2>
900049b0:	deadbeef          	jal	t4,8ffdff9a <offset+0x8ffdfcf6>
900049b4:	deadbeef          	jal	t4,8ffdff9e <offset+0x8ffdfcfa>
900049b8:	deadbeef          	jal	t4,8ffdffa2 <offset+0x8ffdfcfe>
900049bc:	deadbeef          	jal	t4,8ffdffa6 <offset+0x8ffdfd02>
900049c0:	deadbeef          	jal	t4,8ffdffaa <offset+0x8ffdfd06>
900049c4:	deadbeef          	jal	t4,8ffdffae <offset+0x8ffdfd0a>
900049c8:	deadbeef          	jal	t4,8ffdffb2 <offset+0x8ffdfd0e>
900049cc:	deadbeef          	jal	t4,8ffdffb6 <offset+0x8ffdfd12>
900049d0:	deadbeef          	jal	t4,8ffdffba <offset+0x8ffdfd16>
900049d4:	deadbeef          	jal	t4,8ffdffbe <offset+0x8ffdfd1a>
900049d8:	deadbeef          	jal	t4,8ffdffc2 <offset+0x8ffdfd1e>
900049dc:	deadbeef          	jal	t4,8ffdffc6 <offset+0x8ffdfd22>
900049e0:	deadbeef          	jal	t4,8ffdffca <offset+0x8ffdfd26>
900049e4:	deadbeef          	jal	t4,8ffdffce <offset+0x8ffdfd2a>
900049e8:	deadbeef          	jal	t4,8ffdffd2 <offset+0x8ffdfd2e>
900049ec:	deadbeef          	jal	t4,8ffdffd6 <offset+0x8ffdfd32>
900049f0:	deadbeef          	jal	t4,8ffdffda <offset+0x8ffdfd36>
900049f4:	deadbeef          	jal	t4,8ffdffde <offset+0x8ffdfd3a>
900049f8:	deadbeef          	jal	t4,8ffdffe2 <offset+0x8ffdfd3e>
900049fc:	deadbeef          	jal	t4,8ffdffe6 <offset+0x8ffdfd42>
90004a00:	deadbeef          	jal	t4,8ffdffea <offset+0x8ffdfd46>
90004a04:	deadbeef          	jal	t4,8ffdffee <offset+0x8ffdfd4a>
90004a08:	deadbeef          	jal	t4,8ffdfff2 <offset+0x8ffdfd4e>
90004a0c:	deadbeef          	jal	t4,8ffdfff6 <offset+0x8ffdfd52>
90004a10:	deadbeef          	jal	t4,8ffdfffa <offset+0x8ffdfd56>
90004a14:	deadbeef          	jal	t4,8ffdfffe <offset+0x8ffdfd5a>
90004a18:	deadbeef          	jal	t4,8ffe0002 <offset+0x8ffdfd5e>
90004a1c:	deadbeef          	jal	t4,8ffe0006 <offset+0x8ffdfd62>
90004a20:	deadbeef          	jal	t4,8ffe000a <offset+0x8ffdfd66>
90004a24:	deadbeef          	jal	t4,8ffe000e <offset+0x8ffdfd6a>
90004a28:	deadbeef          	jal	t4,8ffe0012 <offset+0x8ffdfd6e>
90004a2c:	deadbeef          	jal	t4,8ffe0016 <offset+0x8ffdfd72>
90004a30:	deadbeef          	jal	t4,8ffe001a <offset+0x8ffdfd76>
90004a34:	deadbeef          	jal	t4,8ffe001e <offset+0x8ffdfd7a>
90004a38:	deadbeef          	jal	t4,8ffe0022 <offset+0x8ffdfd7e>
90004a3c:	deadbeef          	jal	t4,8ffe0026 <offset+0x8ffdfd82>
90004a40:	deadbeef          	jal	t4,8ffe002a <offset+0x8ffdfd86>
90004a44:	deadbeef          	jal	t4,8ffe002e <offset+0x8ffdfd8a>
90004a48:	deadbeef          	jal	t4,8ffe0032 <offset+0x8ffdfd8e>
90004a4c:	deadbeef          	jal	t4,8ffe0036 <offset+0x8ffdfd92>
90004a50:	deadbeef          	jal	t4,8ffe003a <offset+0x8ffdfd96>
90004a54:	deadbeef          	jal	t4,8ffe003e <offset+0x8ffdfd9a>
90004a58:	deadbeef          	jal	t4,8ffe0042 <offset+0x8ffdfd9e>
90004a5c:	deadbeef          	jal	t4,8ffe0046 <offset+0x8ffdfda2>
90004a60:	deadbeef          	jal	t4,8ffe004a <offset+0x8ffdfda6>
90004a64:	deadbeef          	jal	t4,8ffe004e <offset+0x8ffdfdaa>
90004a68:	deadbeef          	jal	t4,8ffe0052 <offset+0x8ffdfdae>
90004a6c:	deadbeef          	jal	t4,8ffe0056 <offset+0x8ffdfdb2>
90004a70:	deadbeef          	jal	t4,8ffe005a <offset+0x8ffdfdb6>
90004a74:	deadbeef          	jal	t4,8ffe005e <offset+0x8ffdfdba>
90004a78:	deadbeef          	jal	t4,8ffe0062 <offset+0x8ffdfdbe>
90004a7c:	deadbeef          	jal	t4,8ffe0066 <offset+0x8ffdfdc2>
90004a80:	deadbeef          	jal	t4,8ffe006a <offset+0x8ffdfdc6>
90004a84:	deadbeef          	jal	t4,8ffe006e <offset+0x8ffdfdca>
90004a88:	deadbeef          	jal	t4,8ffe0072 <offset+0x8ffdfdce>
90004a8c:	deadbeef          	jal	t4,8ffe0076 <offset+0x8ffdfdd2>
90004a90:	deadbeef          	jal	t4,8ffe007a <offset+0x8ffdfdd6>
90004a94:	deadbeef          	jal	t4,8ffe007e <offset+0x8ffdfdda>
90004a98:	deadbeef          	jal	t4,8ffe0082 <offset+0x8ffdfdde>
90004a9c:	deadbeef          	jal	t4,8ffe0086 <offset+0x8ffdfde2>
90004aa0:	deadbeef          	jal	t4,8ffe008a <offset+0x8ffdfde6>
90004aa4:	deadbeef          	jal	t4,8ffe008e <offset+0x8ffdfdea>
90004aa8:	deadbeef          	jal	t4,8ffe0092 <offset+0x8ffdfdee>
90004aac:	deadbeef          	jal	t4,8ffe0096 <offset+0x8ffdfdf2>
90004ab0:	deadbeef          	jal	t4,8ffe009a <offset+0x8ffdfdf6>
90004ab4:	deadbeef          	jal	t4,8ffe009e <offset+0x8ffdfdfa>
90004ab8:	deadbeef          	jal	t4,8ffe00a2 <offset+0x8ffdfdfe>
90004abc:	deadbeef          	jal	t4,8ffe00a6 <offset+0x8ffdfe02>
90004ac0:	deadbeef          	jal	t4,8ffe00aa <offset+0x8ffdfe06>
90004ac4:	deadbeef          	jal	t4,8ffe00ae <offset+0x8ffdfe0a>
90004ac8:	deadbeef          	jal	t4,8ffe00b2 <offset+0x8ffdfe0e>
90004acc:	deadbeef          	jal	t4,8ffe00b6 <offset+0x8ffdfe12>
90004ad0:	deadbeef          	jal	t4,8ffe00ba <offset+0x8ffdfe16>
90004ad4:	deadbeef          	jal	t4,8ffe00be <offset+0x8ffdfe1a>
90004ad8:	deadbeef          	jal	t4,8ffe00c2 <offset+0x8ffdfe1e>
90004adc:	deadbeef          	jal	t4,8ffe00c6 <offset+0x8ffdfe22>
90004ae0:	deadbeef          	jal	t4,8ffe00ca <offset+0x8ffdfe26>
90004ae4:	deadbeef          	jal	t4,8ffe00ce <offset+0x8ffdfe2a>
90004ae8:	deadbeef          	jal	t4,8ffe00d2 <offset+0x8ffdfe2e>
90004aec:	deadbeef          	jal	t4,8ffe00d6 <offset+0x8ffdfe32>
90004af0:	deadbeef          	jal	t4,8ffe00da <offset+0x8ffdfe36>
90004af4:	deadbeef          	jal	t4,8ffe00de <offset+0x8ffdfe3a>
90004af8:	deadbeef          	jal	t4,8ffe00e2 <offset+0x8ffdfe3e>
90004afc:	0000                	unimp
	...

90004b00 <begin_regstate>:
90004b00:	0080                	addi	s0,sp,64
	...

90004c00 <end_regstate>:
90004c00:	0004                	0x4
	...

Disassembly of section .riscv.attributes:

00000000 <.riscv.attributes>:
   0:	1941                	addi	s2,s2,-16
   2:	0000                	unimp
   4:	7200                	flw	fs0,32(a2)
   6:	7369                	lui	t1,0xffffa
   8:	01007663          	bgeu	zero,a6,14 <offset-0x290>
   c:	0000000f          	fence	unknown,unknown
  10:	7205                	lui	tp,0xfffe1
  12:	3376                	fld	ft6,376(sp)
  14:	6932                	flw	fs2,12(sp)
  16:	7032                	flw	ft0,44(sp)
  18:	0030                	addi	a2,sp,8

Disassembly of section .debug_line:

00000000 <.debug_line>:
       0:	10b5                	addi	ra,ra,-19
       2:	0000                	unimp
       4:	00250003          	lb	zero,2(a0)
       8:	0000                	unimp
       a:	0101                	addi	sp,sp,0
       c:	000d0efb          	0xd0efb
      10:	0101                	addi	sp,sp,0
      12:	0101                	addi	sp,sp,0
      14:	0000                	unimp
      16:	0100                	addi	s0,sp,128
      18:	0000                	unimp
      1a:	7301                	lui	t1,0xfffe0
      1c:	6372                	flw	ft6,28(sp)
      1e:	0000                	unimp
      20:	69746c73          	csrrsi	s8,0x697,8
      24:	2d75                	jal	6e0 <offset+0x43c>
      26:	3130                	fld	fa2,96(a0)
      28:	532e                	lw	t1,232(sp)
      2a:	0100                	addi	s0,sp,128
      2c:	0000                	unimp
      2e:	0000                	unimp
      30:	0205                	addi	tp,tp,1
      32:	0000                	unimp
      34:	9000                	0x9000
      36:	03011903          	lh	s2,48(sp)
      3a:	0906                	slli	s2,s2,0x1
      3c:	00f8                	addi	a4,sp,76
      3e:	0301                	addi	t1,t1,0
      40:	0905                	addi	s2,s2,1
      42:	0008                	0x8
      44:	0301                	addi	t1,t1,0
      46:	0905                	addi	s2,s2,1
      48:	000c                	0xc
      4a:	0301                	addi	t1,t1,0
      4c:	0905                	addi	s2,s2,1
      4e:	0010                	0x10
      50:	0301                	addi	t1,t1,0
      52:	0905                	addi	s2,s2,1
      54:	000c                	0xc
      56:	0301                	addi	t1,t1,0
      58:	0905                	addi	s2,s2,1
      5a:	000c                	0xc
      5c:	0301                	addi	t1,t1,0
      5e:	0905                	addi	s2,s2,1
      60:	000c                	0xc
      62:	0301                	addi	t1,t1,0
      64:	0905                	addi	s2,s2,1
      66:	000c                	0xc
      68:	0301                	addi	t1,t1,0
      6a:	0905                	addi	s2,s2,1
      6c:	000c                	0xc
      6e:	0301                	addi	t1,t1,0
      70:	0905                	addi	s2,s2,1
      72:	0010                	0x10
      74:	0301                	addi	t1,t1,0
      76:	0905                	addi	s2,s2,1
      78:	0010                	0x10
      7a:	0301                	addi	t1,t1,0
      7c:	0905                	addi	s2,s2,1
      7e:	0010                	0x10
      80:	0301                	addi	t1,t1,0
      82:	0905                	addi	s2,s2,1
      84:	0010                	0x10
      86:	0301                	addi	t1,t1,0
      88:	0905                	addi	s2,s2,1
      8a:	000c                	0xc
      8c:	0301                	addi	t1,t1,0
      8e:	0905                	addi	s2,s2,1
      90:	0010                	0x10
      92:	0301                	addi	t1,t1,0
      94:	0905                	addi	s2,s2,1
      96:	000c                	0xc
      98:	0301                	addi	t1,t1,0
      9a:	0905                	addi	s2,s2,1
      9c:	000c                	0xc
      9e:	0301                	addi	t1,t1,0
      a0:	0905                	addi	s2,s2,1
      a2:	000c                	0xc
      a4:	0301                	addi	t1,t1,0
      a6:	0905                	addi	s2,s2,1
      a8:	0010                	0x10
      aa:	0301                	addi	t1,t1,0
      ac:	0901                	addi	s2,s2,0
      ae:	000c                	0xc
      b0:	0301                	addi	t1,t1,0
      b2:	0905                	addi	s2,s2,1
      b4:	0008                	0x8
      b6:	0301                	addi	t1,t1,0
      b8:	0905                	addi	s2,s2,1
      ba:	000c                	0xc
      bc:	0301                	addi	t1,t1,0
      be:	0905                	addi	s2,s2,1
      c0:	000c                	0xc
      c2:	0301                	addi	t1,t1,0
      c4:	0905                	addi	s2,s2,1
      c6:	000c                	0xc
      c8:	0301                	addi	t1,t1,0
      ca:	0905                	addi	s2,s2,1
      cc:	000c                	0xc
      ce:	0301                	addi	t1,t1,0
      d0:	0905                	addi	s2,s2,1
      d2:	000c                	0xc
      d4:	0301                	addi	t1,t1,0
      d6:	0905                	addi	s2,s2,1
      d8:	000c                	0xc
      da:	0301                	addi	t1,t1,0
      dc:	0905                	addi	s2,s2,1
      de:	000c                	0xc
      e0:	0301                	addi	t1,t1,0
      e2:	0905                	addi	s2,s2,1
      e4:	000c                	0xc
      e6:	0301                	addi	t1,t1,0
      e8:	0905                	addi	s2,s2,1
      ea:	000c                	0xc
      ec:	0301                	addi	t1,t1,0
      ee:	0905                	addi	s2,s2,1
      f0:	000c                	0xc
      f2:	0301                	addi	t1,t1,0
      f4:	0905                	addi	s2,s2,1
      f6:	0010                	0x10
      f8:	0301                	addi	t1,t1,0
      fa:	0905                	addi	s2,s2,1
      fc:	000c                	0xc
      fe:	0301                	addi	t1,t1,0
     100:	0905                	addi	s2,s2,1
     102:	0010                	0x10
     104:	0301                	addi	t1,t1,0
     106:	0905                	addi	s2,s2,1
     108:	0010                	0x10
     10a:	0301                	addi	t1,t1,0
     10c:	0905                	addi	s2,s2,1
     10e:	000c                	0xc
     110:	0301                	addi	t1,t1,0
     112:	0905                	addi	s2,s2,1
     114:	000c                	0xc
     116:	0301                	addi	t1,t1,0
     118:	0905                	addi	s2,s2,1
     11a:	000c                	0xc
     11c:	0301                	addi	t1,t1,0
     11e:	0905                	addi	s2,s2,1
     120:	000c                	0xc
     122:	0301                	addi	t1,t1,0
     124:	0905                	addi	s2,s2,1
     126:	000c                	0xc
     128:	0301                	addi	t1,t1,0
     12a:	0905                	addi	s2,s2,1
     12c:	000c                	0xc
     12e:	0301                	addi	t1,t1,0
     130:	0905                	addi	s2,s2,1
     132:	000c                	0xc
     134:	0301                	addi	t1,t1,0
     136:	0905                	addi	s2,s2,1
     138:	000c                	0xc
     13a:	0301                	addi	t1,t1,0
     13c:	0905                	addi	s2,s2,1
     13e:	000c                	0xc
     140:	0301                	addi	t1,t1,0
     142:	0905                	addi	s2,s2,1
     144:	000c                	0xc
     146:	0301                	addi	t1,t1,0
     148:	0905                	addi	s2,s2,1
     14a:	000c                	0xc
     14c:	0301                	addi	t1,t1,0
     14e:	0905                	addi	s2,s2,1
     150:	000c                	0xc
     152:	0301                	addi	t1,t1,0
     154:	0905                	addi	s2,s2,1
     156:	000c                	0xc
     158:	0301                	addi	t1,t1,0
     15a:	0905                	addi	s2,s2,1
     15c:	000c                	0xc
     15e:	0301                	addi	t1,t1,0
     160:	0905                	addi	s2,s2,1
     162:	000c                	0xc
     164:	0301                	addi	t1,t1,0
     166:	0905                	addi	s2,s2,1
     168:	000c                	0xc
     16a:	0301                	addi	t1,t1,0
     16c:	0905                	addi	s2,s2,1
     16e:	000c                	0xc
     170:	0301                	addi	t1,t1,0
     172:	0905                	addi	s2,s2,1
     174:	000c                	0xc
     176:	0301                	addi	t1,t1,0
     178:	0905                	addi	s2,s2,1
     17a:	000c                	0xc
     17c:	0301                	addi	t1,t1,0
     17e:	0905                	addi	s2,s2,1
     180:	000c                	0xc
     182:	0301                	addi	t1,t1,0
     184:	0905                	addi	s2,s2,1
     186:	000c                	0xc
     188:	0301                	addi	t1,t1,0
     18a:	0905                	addi	s2,s2,1
     18c:	000c                	0xc
     18e:	0301                	addi	t1,t1,0
     190:	0905                	addi	s2,s2,1
     192:	000c                	0xc
     194:	0301                	addi	t1,t1,0
     196:	0905                	addi	s2,s2,1
     198:	000c                	0xc
     19a:	0301                	addi	t1,t1,0
     19c:	0905                	addi	s2,s2,1
     19e:	000c                	0xc
     1a0:	0301                	addi	t1,t1,0
     1a2:	0905                	addi	s2,s2,1
     1a4:	000c                	0xc
     1a6:	0301                	addi	t1,t1,0
     1a8:	0905                	addi	s2,s2,1
     1aa:	000c                	0xc
     1ac:	0301                	addi	t1,t1,0
     1ae:	0905                	addi	s2,s2,1
     1b0:	000c                	0xc
     1b2:	0301                	addi	t1,t1,0
     1b4:	0905                	addi	s2,s2,1
     1b6:	000c                	0xc
     1b8:	0301                	addi	t1,t1,0
     1ba:	0905                	addi	s2,s2,1
     1bc:	000c                	0xc
     1be:	0301                	addi	t1,t1,0
     1c0:	0905                	addi	s2,s2,1
     1c2:	000c                	0xc
     1c4:	0301                	addi	t1,t1,0
     1c6:	0905                	addi	s2,s2,1
     1c8:	0010                	0x10
     1ca:	0301                	addi	t1,t1,0
     1cc:	0905                	addi	s2,s2,1
     1ce:	0010                	0x10
     1d0:	0301                	addi	t1,t1,0
     1d2:	0905                	addi	s2,s2,1
     1d4:	0010                	0x10
     1d6:	0301                	addi	t1,t1,0
     1d8:	0905                	addi	s2,s2,1
     1da:	0010                	0x10
     1dc:	0301                	addi	t1,t1,0
     1de:	0905                	addi	s2,s2,1
     1e0:	0010                	0x10
     1e2:	0301                	addi	t1,t1,0
     1e4:	0905                	addi	s2,s2,1
     1e6:	0010                	0x10
     1e8:	0301                	addi	t1,t1,0
     1ea:	0905                	addi	s2,s2,1
     1ec:	0010                	0x10
     1ee:	0301                	addi	t1,t1,0
     1f0:	0905                	addi	s2,s2,1
     1f2:	0010                	0x10
     1f4:	0301                	addi	t1,t1,0
     1f6:	0905                	addi	s2,s2,1
     1f8:	0010                	0x10
     1fa:	0301                	addi	t1,t1,0
     1fc:	0905                	addi	s2,s2,1
     1fe:	0010                	0x10
     200:	0301                	addi	t1,t1,0
     202:	0905                	addi	s2,s2,1
     204:	0010                	0x10
     206:	0301                	addi	t1,t1,0
     208:	0905                	addi	s2,s2,1
     20a:	0010                	0x10
     20c:	0301                	addi	t1,t1,0
     20e:	0905                	addi	s2,s2,1
     210:	0010                	0x10
     212:	0301                	addi	t1,t1,0
     214:	0905                	addi	s2,s2,1
     216:	0010                	0x10
     218:	0301                	addi	t1,t1,0
     21a:	0905                	addi	s2,s2,1
     21c:	0010                	0x10
     21e:	0301                	addi	t1,t1,0
     220:	0905                	addi	s2,s2,1
     222:	0010                	0x10
     224:	0301                	addi	t1,t1,0
     226:	0905                	addi	s2,s2,1
     228:	000c                	0xc
     22a:	0301                	addi	t1,t1,0
     22c:	0905                	addi	s2,s2,1
     22e:	000c                	0xc
     230:	0301                	addi	t1,t1,0
     232:	0905                	addi	s2,s2,1
     234:	000c                	0xc
     236:	0301                	addi	t1,t1,0
     238:	0905                	addi	s2,s2,1
     23a:	000c                	0xc
     23c:	0301                	addi	t1,t1,0
     23e:	0905                	addi	s2,s2,1
     240:	000c                	0xc
     242:	0301                	addi	t1,t1,0
     244:	0905                	addi	s2,s2,1
     246:	000c                	0xc
     248:	0301                	addi	t1,t1,0
     24a:	0905                	addi	s2,s2,1
     24c:	000c                	0xc
     24e:	0301                	addi	t1,t1,0
     250:	0905                	addi	s2,s2,1
     252:	000c                	0xc
     254:	0301                	addi	t1,t1,0
     256:	0905                	addi	s2,s2,1
     258:	000c                	0xc
     25a:	0301                	addi	t1,t1,0
     25c:	0905                	addi	s2,s2,1
     25e:	000c                	0xc
     260:	0301                	addi	t1,t1,0
     262:	0905                	addi	s2,s2,1
     264:	000c                	0xc
     266:	0301                	addi	t1,t1,0
     268:	0905                	addi	s2,s2,1
     26a:	000c                	0xc
     26c:	0301                	addi	t1,t1,0
     26e:	0905                	addi	s2,s2,1
     270:	000c                	0xc
     272:	0301                	addi	t1,t1,0
     274:	0905                	addi	s2,s2,1
     276:	000c                	0xc
     278:	0301                	addi	t1,t1,0
     27a:	0905                	addi	s2,s2,1
     27c:	000c                	0xc
     27e:	0301                	addi	t1,t1,0
     280:	0905                	addi	s2,s2,1
     282:	000c                	0xc
     284:	0301                	addi	t1,t1,0
     286:	0905                	addi	s2,s2,1
     288:	000c                	0xc
     28a:	0301                	addi	t1,t1,0
     28c:	0905                	addi	s2,s2,1
     28e:	000c                	0xc
     290:	0301                	addi	t1,t1,0
     292:	0905                	addi	s2,s2,1
     294:	000c                	0xc
     296:	0301                	addi	t1,t1,0
     298:	0905                	addi	s2,s2,1
     29a:	000c                	0xc
     29c:	0301                	addi	t1,t1,0
     29e:	0905                	addi	s2,s2,1
     2a0:	000c                	0xc
     2a2:	0301                	addi	t1,t1,0
     2a4:	0905                	addi	s2,s2,1
     2a6:	000c                	0xc
     2a8:	0301                	addi	t1,t1,0
     2aa:	0905                	addi	s2,s2,1
     2ac:	000c                	0xc
     2ae:	0301                	addi	t1,t1,0
     2b0:	0905                	addi	s2,s2,1
     2b2:	000c                	0xc
     2b4:	0301                	addi	t1,t1,0
     2b6:	0905                	addi	s2,s2,1
     2b8:	000c                	0xc
     2ba:	0301                	addi	t1,t1,0
     2bc:	0905                	addi	s2,s2,1
     2be:	0010                	0x10
     2c0:	0301                	addi	t1,t1,0
     2c2:	0905                	addi	s2,s2,1
     2c4:	0010                	0x10
     2c6:	0301                	addi	t1,t1,0
     2c8:	0905                	addi	s2,s2,1
     2ca:	0010                	0x10
     2cc:	0301                	addi	t1,t1,0
     2ce:	0905                	addi	s2,s2,1
     2d0:	0010                	0x10
     2d2:	0301                	addi	t1,t1,0
     2d4:	0905                	addi	s2,s2,1
     2d6:	0010                	0x10
     2d8:	0301                	addi	t1,t1,0
     2da:	0905                	addi	s2,s2,1
     2dc:	0010                	0x10
     2de:	0301                	addi	t1,t1,0
     2e0:	0905                	addi	s2,s2,1
     2e2:	0010                	0x10
     2e4:	0301                	addi	t1,t1,0
     2e6:	0905                	addi	s2,s2,1
     2e8:	0010                	0x10
     2ea:	0301                	addi	t1,t1,0
     2ec:	0905                	addi	s2,s2,1
     2ee:	0010                	0x10
     2f0:	0301                	addi	t1,t1,0
     2f2:	0905                	addi	s2,s2,1
     2f4:	0010                	0x10
     2f6:	0301                	addi	t1,t1,0
     2f8:	0905                	addi	s2,s2,1
     2fa:	0010                	0x10
     2fc:	0301                	addi	t1,t1,0
     2fe:	0905                	addi	s2,s2,1
     300:	0010                	0x10
     302:	0301                	addi	t1,t1,0
     304:	0905                	addi	s2,s2,1
     306:	0010                	0x10
     308:	0301                	addi	t1,t1,0
     30a:	0905                	addi	s2,s2,1
     30c:	0010                	0x10
     30e:	0301                	addi	t1,t1,0
     310:	0905                	addi	s2,s2,1
     312:	0010                	0x10
     314:	0301                	addi	t1,t1,0
     316:	0905                	addi	s2,s2,1
     318:	0010                	0x10
     31a:	0301                	addi	t1,t1,0
     31c:	0905                	addi	s2,s2,1
     31e:	0010                	0x10
     320:	0301                	addi	t1,t1,0
     322:	0905                	addi	s2,s2,1
     324:	0010                	0x10
     326:	0301                	addi	t1,t1,0
     328:	0905                	addi	s2,s2,1
     32a:	0010                	0x10
     32c:	0301                	addi	t1,t1,0
     32e:	0905                	addi	s2,s2,1
     330:	0010                	0x10
     332:	0301                	addi	t1,t1,0
     334:	0905                	addi	s2,s2,1
     336:	0010                	0x10
     338:	0301                	addi	t1,t1,0
     33a:	0905                	addi	s2,s2,1
     33c:	0010                	0x10
     33e:	0301                	addi	t1,t1,0
     340:	0905                	addi	s2,s2,1
     342:	0010                	0x10
     344:	0301                	addi	t1,t1,0
     346:	0905                	addi	s2,s2,1
     348:	0010                	0x10
     34a:	0301                	addi	t1,t1,0
     34c:	0905                	addi	s2,s2,1
     34e:	0010                	0x10
     350:	0301                	addi	t1,t1,0
     352:	0905                	addi	s2,s2,1
     354:	0010                	0x10
     356:	0301                	addi	t1,t1,0
     358:	0905                	addi	s2,s2,1
     35a:	0010                	0x10
     35c:	0301                	addi	t1,t1,0
     35e:	0905                	addi	s2,s2,1
     360:	0010                	0x10
     362:	0301                	addi	t1,t1,0
     364:	0905                	addi	s2,s2,1
     366:	0010                	0x10
     368:	0301                	addi	t1,t1,0
     36a:	0905                	addi	s2,s2,1
     36c:	0010                	0x10
     36e:	0301                	addi	t1,t1,0
     370:	0905                	addi	s2,s2,1
     372:	0010                	0x10
     374:	0301                	addi	t1,t1,0
     376:	0905                	addi	s2,s2,1
     378:	0010                	0x10
     37a:	0301                	addi	t1,t1,0
     37c:	0905                	addi	s2,s2,1
     37e:	0010                	0x10
     380:	0301                	addi	t1,t1,0
     382:	0905                	addi	s2,s2,1
     384:	0010                	0x10
     386:	0301                	addi	t1,t1,0
     388:	0905                	addi	s2,s2,1
     38a:	0010                	0x10
     38c:	0301                	addi	t1,t1,0
     38e:	0905                	addi	s2,s2,1
     390:	0010                	0x10
     392:	0301                	addi	t1,t1,0
     394:	0905                	addi	s2,s2,1
     396:	0010                	0x10
     398:	0301                	addi	t1,t1,0
     39a:	0905                	addi	s2,s2,1
     39c:	0010                	0x10
     39e:	0301                	addi	t1,t1,0
     3a0:	0905                	addi	s2,s2,1
     3a2:	0010                	0x10
     3a4:	0301                	addi	t1,t1,0
     3a6:	0905                	addi	s2,s2,1
     3a8:	0010                	0x10
     3aa:	0301                	addi	t1,t1,0
     3ac:	0905                	addi	s2,s2,1
     3ae:	0010                	0x10
     3b0:	0301                	addi	t1,t1,0
     3b2:	0905                	addi	s2,s2,1
     3b4:	0010                	0x10
     3b6:	0301                	addi	t1,t1,0
     3b8:	0905                	addi	s2,s2,1
     3ba:	0010                	0x10
     3bc:	0301                	addi	t1,t1,0
     3be:	0905                	addi	s2,s2,1
     3c0:	0010                	0x10
     3c2:	0301                	addi	t1,t1,0
     3c4:	0905                	addi	s2,s2,1
     3c6:	0010                	0x10
     3c8:	0301                	addi	t1,t1,0
     3ca:	0905                	addi	s2,s2,1
     3cc:	0010                	0x10
     3ce:	0301                	addi	t1,t1,0
     3d0:	0905                	addi	s2,s2,1
     3d2:	0010                	0x10
     3d4:	0301                	addi	t1,t1,0
     3d6:	0905                	addi	s2,s2,1
     3d8:	0010                	0x10
     3da:	0301                	addi	t1,t1,0
     3dc:	0905                	addi	s2,s2,1
     3de:	000c                	0xc
     3e0:	0301                	addi	t1,t1,0
     3e2:	0905                	addi	s2,s2,1
     3e4:	000c                	0xc
     3e6:	0301                	addi	t1,t1,0
     3e8:	0905                	addi	s2,s2,1
     3ea:	000c                	0xc
     3ec:	0301                	addi	t1,t1,0
     3ee:	0905                	addi	s2,s2,1
     3f0:	000c                	0xc
     3f2:	0301                	addi	t1,t1,0
     3f4:	0905                	addi	s2,s2,1
     3f6:	000c                	0xc
     3f8:	0301                	addi	t1,t1,0
     3fa:	0905                	addi	s2,s2,1
     3fc:	000c                	0xc
     3fe:	0301                	addi	t1,t1,0
     400:	0905                	addi	s2,s2,1
     402:	000c                	0xc
     404:	0301                	addi	t1,t1,0
     406:	0905                	addi	s2,s2,1
     408:	000c                	0xc
     40a:	0301                	addi	t1,t1,0
     40c:	0905                	addi	s2,s2,1
     40e:	000c                	0xc
     410:	0301                	addi	t1,t1,0
     412:	0905                	addi	s2,s2,1
     414:	000c                	0xc
     416:	0301                	addi	t1,t1,0
     418:	0905                	addi	s2,s2,1
     41a:	000c                	0xc
     41c:	0301                	addi	t1,t1,0
     41e:	0905                	addi	s2,s2,1
     420:	000c                	0xc
     422:	0301                	addi	t1,t1,0
     424:	0905                	addi	s2,s2,1
     426:	000c                	0xc
     428:	0301                	addi	t1,t1,0
     42a:	0905                	addi	s2,s2,1
     42c:	000c                	0xc
     42e:	0301                	addi	t1,t1,0
     430:	0905                	addi	s2,s2,1
     432:	000c                	0xc
     434:	0301                	addi	t1,t1,0
     436:	0905                	addi	s2,s2,1
     438:	000c                	0xc
     43a:	0301                	addi	t1,t1,0
     43c:	0905                	addi	s2,s2,1
     43e:	000c                	0xc
     440:	0301                	addi	t1,t1,0
     442:	0905                	addi	s2,s2,1
     444:	000c                	0xc
     446:	0301                	addi	t1,t1,0
     448:	0905                	addi	s2,s2,1
     44a:	000c                	0xc
     44c:	0301                	addi	t1,t1,0
     44e:	0905                	addi	s2,s2,1
     450:	000c                	0xc
     452:	0301                	addi	t1,t1,0
     454:	0905                	addi	s2,s2,1
     456:	000c                	0xc
     458:	0301                	addi	t1,t1,0
     45a:	0905                	addi	s2,s2,1
     45c:	000c                	0xc
     45e:	0301                	addi	t1,t1,0
     460:	0905                	addi	s2,s2,1
     462:	000c                	0xc
     464:	0301                	addi	t1,t1,0
     466:	0905                	addi	s2,s2,1
     468:	000c                	0xc
     46a:	0301                	addi	t1,t1,0
     46c:	0905                	addi	s2,s2,1
     46e:	000c                	0xc
     470:	0301                	addi	t1,t1,0
     472:	0905                	addi	s2,s2,1
     474:	0010                	0x10
     476:	0301                	addi	t1,t1,0
     478:	0905                	addi	s2,s2,1
     47a:	0010                	0x10
     47c:	0301                	addi	t1,t1,0
     47e:	0905                	addi	s2,s2,1
     480:	0010                	0x10
     482:	0301                	addi	t1,t1,0
     484:	0905                	addi	s2,s2,1
     486:	0010                	0x10
     488:	0301                	addi	t1,t1,0
     48a:	0905                	addi	s2,s2,1
     48c:	0010                	0x10
     48e:	0301                	addi	t1,t1,0
     490:	0905                	addi	s2,s2,1
     492:	0010                	0x10
     494:	0301                	addi	t1,t1,0
     496:	0905                	addi	s2,s2,1
     498:	0010                	0x10
     49a:	0301                	addi	t1,t1,0
     49c:	0905                	addi	s2,s2,1
     49e:	0010                	0x10
     4a0:	0301                	addi	t1,t1,0
     4a2:	0905                	addi	s2,s2,1
     4a4:	0010                	0x10
     4a6:	0301                	addi	t1,t1,0
     4a8:	0905                	addi	s2,s2,1
     4aa:	0010                	0x10
     4ac:	0301                	addi	t1,t1,0
     4ae:	0905                	addi	s2,s2,1
     4b0:	0010                	0x10
     4b2:	0301                	addi	t1,t1,0
     4b4:	0905                	addi	s2,s2,1
     4b6:	0010                	0x10
     4b8:	0301                	addi	t1,t1,0
     4ba:	0905                	addi	s2,s2,1
     4bc:	0010                	0x10
     4be:	0301                	addi	t1,t1,0
     4c0:	0905                	addi	s2,s2,1
     4c2:	0010                	0x10
     4c4:	0301                	addi	t1,t1,0
     4c6:	0905                	addi	s2,s2,1
     4c8:	0010                	0x10
     4ca:	0301                	addi	t1,t1,0
     4cc:	0905                	addi	s2,s2,1
     4ce:	0010                	0x10
     4d0:	0301                	addi	t1,t1,0
     4d2:	0905                	addi	s2,s2,1
     4d4:	0010                	0x10
     4d6:	0301                	addi	t1,t1,0
     4d8:	0905                	addi	s2,s2,1
     4da:	0010                	0x10
     4dc:	0301                	addi	t1,t1,0
     4de:	0905                	addi	s2,s2,1
     4e0:	0010                	0x10
     4e2:	0301                	addi	t1,t1,0
     4e4:	0905                	addi	s2,s2,1
     4e6:	0010                	0x10
     4e8:	0301                	addi	t1,t1,0
     4ea:	0905                	addi	s2,s2,1
     4ec:	0010                	0x10
     4ee:	0301                	addi	t1,t1,0
     4f0:	0905                	addi	s2,s2,1
     4f2:	0010                	0x10
     4f4:	0301                	addi	t1,t1,0
     4f6:	0905                	addi	s2,s2,1
     4f8:	0010                	0x10
     4fa:	0301                	addi	t1,t1,0
     4fc:	0905                	addi	s2,s2,1
     4fe:	0010                	0x10
     500:	0301                	addi	t1,t1,0
     502:	0905                	addi	s2,s2,1
     504:	0010                	0x10
     506:	0301                	addi	t1,t1,0
     508:	0905                	addi	s2,s2,1
     50a:	0010                	0x10
     50c:	0301                	addi	t1,t1,0
     50e:	0905                	addi	s2,s2,1
     510:	0010                	0x10
     512:	0301                	addi	t1,t1,0
     514:	0905                	addi	s2,s2,1
     516:	0010                	0x10
     518:	0301                	addi	t1,t1,0
     51a:	0905                	addi	s2,s2,1
     51c:	0010                	0x10
     51e:	0301                	addi	t1,t1,0
     520:	0905                	addi	s2,s2,1
     522:	0010                	0x10
     524:	0301                	addi	t1,t1,0
     526:	0905                	addi	s2,s2,1
     528:	0010                	0x10
     52a:	0301                	addi	t1,t1,0
     52c:	0905                	addi	s2,s2,1
     52e:	0010                	0x10
     530:	0301                	addi	t1,t1,0
     532:	0905                	addi	s2,s2,1
     534:	0010                	0x10
     536:	0301                	addi	t1,t1,0
     538:	0905                	addi	s2,s2,1
     53a:	0010                	0x10
     53c:	0301                	addi	t1,t1,0
     53e:	0905                	addi	s2,s2,1
     540:	0010                	0x10
     542:	0301                	addi	t1,t1,0
     544:	0905                	addi	s2,s2,1
     546:	0010                	0x10
     548:	0301                	addi	t1,t1,0
     54a:	0905                	addi	s2,s2,1
     54c:	0010                	0x10
     54e:	0301                	addi	t1,t1,0
     550:	0905                	addi	s2,s2,1
     552:	0010                	0x10
     554:	0301                	addi	t1,t1,0
     556:	0905                	addi	s2,s2,1
     558:	0010                	0x10
     55a:	0301                	addi	t1,t1,0
     55c:	0905                	addi	s2,s2,1
     55e:	0010                	0x10
     560:	0301                	addi	t1,t1,0
     562:	0905                	addi	s2,s2,1
     564:	0010                	0x10
     566:	0301                	addi	t1,t1,0
     568:	0905                	addi	s2,s2,1
     56a:	0010                	0x10
     56c:	0301                	addi	t1,t1,0
     56e:	0905                	addi	s2,s2,1
     570:	0010                	0x10
     572:	0301                	addi	t1,t1,0
     574:	0905                	addi	s2,s2,1
     576:	0010                	0x10
     578:	0301                	addi	t1,t1,0
     57a:	0905                	addi	s2,s2,1
     57c:	0010                	0x10
     57e:	0301                	addi	t1,t1,0
     580:	0905                	addi	s2,s2,1
     582:	0010                	0x10
     584:	0301                	addi	t1,t1,0
     586:	0905                	addi	s2,s2,1
     588:	0010                	0x10
     58a:	0301                	addi	t1,t1,0
     58c:	0905                	addi	s2,s2,1
     58e:	0010                	0x10
     590:	0301                	addi	t1,t1,0
     592:	0905                	addi	s2,s2,1
     594:	0010                	0x10
     596:	0301                	addi	t1,t1,0
     598:	0905                	addi	s2,s2,1
     59a:	0010                	0x10
     59c:	0301                	addi	t1,t1,0
     59e:	0905                	addi	s2,s2,1
     5a0:	0010                	0x10
     5a2:	0301                	addi	t1,t1,0
     5a4:	0905                	addi	s2,s2,1
     5a6:	0010                	0x10
     5a8:	0301                	addi	t1,t1,0
     5aa:	0905                	addi	s2,s2,1
     5ac:	0010                	0x10
     5ae:	0301                	addi	t1,t1,0
     5b0:	0905                	addi	s2,s2,1
     5b2:	0010                	0x10
     5b4:	0301                	addi	t1,t1,0
     5b6:	0905                	addi	s2,s2,1
     5b8:	0010                	0x10
     5ba:	0301                	addi	t1,t1,0
     5bc:	0905                	addi	s2,s2,1
     5be:	0010                	0x10
     5c0:	0301                	addi	t1,t1,0
     5c2:	0905                	addi	s2,s2,1
     5c4:	0010                	0x10
     5c6:	0301                	addi	t1,t1,0
     5c8:	0905                	addi	s2,s2,1
     5ca:	0010                	0x10
     5cc:	0301                	addi	t1,t1,0
     5ce:	0905                	addi	s2,s2,1
     5d0:	0010                	0x10
     5d2:	0301                	addi	t1,t1,0
     5d4:	0905                	addi	s2,s2,1
     5d6:	0010                	0x10
     5d8:	0301                	addi	t1,t1,0
     5da:	0905                	addi	s2,s2,1
     5dc:	0010                	0x10
     5de:	0301                	addi	t1,t1,0
     5e0:	0905                	addi	s2,s2,1
     5e2:	0010                	0x10
     5e4:	0301                	addi	t1,t1,0
     5e6:	0905                	addi	s2,s2,1
     5e8:	0010                	0x10
     5ea:	0301                	addi	t1,t1,0
     5ec:	0905                	addi	s2,s2,1
     5ee:	0010                	0x10
     5f0:	0301                	addi	t1,t1,0
     5f2:	0905                	addi	s2,s2,1
     5f4:	0010                	0x10
     5f6:	0301                	addi	t1,t1,0
     5f8:	0905                	addi	s2,s2,1
     5fa:	0010                	0x10
     5fc:	0301                	addi	t1,t1,0
     5fe:	0905                	addi	s2,s2,1
     600:	0010                	0x10
     602:	0301                	addi	t1,t1,0
     604:	0905                	addi	s2,s2,1
     606:	0010                	0x10
     608:	0301                	addi	t1,t1,0
     60a:	0905                	addi	s2,s2,1
     60c:	0010                	0x10
     60e:	0301                	addi	t1,t1,0
     610:	0905                	addi	s2,s2,1
     612:	0010                	0x10
     614:	0301                	addi	t1,t1,0
     616:	0905                	addi	s2,s2,1
     618:	0010                	0x10
     61a:	0301                	addi	t1,t1,0
     61c:	0905                	addi	s2,s2,1
     61e:	0010                	0x10
     620:	0301                	addi	t1,t1,0
     622:	0905                	addi	s2,s2,1
     624:	0010                	0x10
     626:	0301                	addi	t1,t1,0
     628:	0905                	addi	s2,s2,1
     62a:	0010                	0x10
     62c:	0301                	addi	t1,t1,0
     62e:	0905                	addi	s2,s2,1
     630:	0010                	0x10
     632:	0301                	addi	t1,t1,0
     634:	0905                	addi	s2,s2,1
     636:	000c                	0xc
     638:	0301                	addi	t1,t1,0
     63a:	0905                	addi	s2,s2,1
     63c:	000c                	0xc
     63e:	0301                	addi	t1,t1,0
     640:	0905                	addi	s2,s2,1
     642:	000c                	0xc
     644:	0301                	addi	t1,t1,0
     646:	0905                	addi	s2,s2,1
     648:	000c                	0xc
     64a:	0301                	addi	t1,t1,0
     64c:	0905                	addi	s2,s2,1
     64e:	000c                	0xc
     650:	0301                	addi	t1,t1,0
     652:	0905                	addi	s2,s2,1
     654:	000c                	0xc
     656:	0301                	addi	t1,t1,0
     658:	0905                	addi	s2,s2,1
     65a:	000c                	0xc
     65c:	0301                	addi	t1,t1,0
     65e:	0905                	addi	s2,s2,1
     660:	000c                	0xc
     662:	0301                	addi	t1,t1,0
     664:	0905                	addi	s2,s2,1
     666:	000c                	0xc
     668:	0301                	addi	t1,t1,0
     66a:	0905                	addi	s2,s2,1
     66c:	000c                	0xc
     66e:	0301                	addi	t1,t1,0
     670:	0905                	addi	s2,s2,1
     672:	000c                	0xc
     674:	0301                	addi	t1,t1,0
     676:	0905                	addi	s2,s2,1
     678:	000c                	0xc
     67a:	0301                	addi	t1,t1,0
     67c:	0905                	addi	s2,s2,1
     67e:	000c                	0xc
     680:	0301                	addi	t1,t1,0
     682:	0905                	addi	s2,s2,1
     684:	000c                	0xc
     686:	0301                	addi	t1,t1,0
     688:	0905                	addi	s2,s2,1
     68a:	000c                	0xc
     68c:	0301                	addi	t1,t1,0
     68e:	0905                	addi	s2,s2,1
     690:	000c                	0xc
     692:	0301                	addi	t1,t1,0
     694:	0905                	addi	s2,s2,1
     696:	000c                	0xc
     698:	0301                	addi	t1,t1,0
     69a:	0905                	addi	s2,s2,1
     69c:	000c                	0xc
     69e:	0301                	addi	t1,t1,0
     6a0:	0905                	addi	s2,s2,1
     6a2:	000c                	0xc
     6a4:	0301                	addi	t1,t1,0
     6a6:	0905                	addi	s2,s2,1
     6a8:	000c                	0xc
     6aa:	0301                	addi	t1,t1,0
     6ac:	0905                	addi	s2,s2,1
     6ae:	000c                	0xc
     6b0:	0301                	addi	t1,t1,0
     6b2:	0905                	addi	s2,s2,1
     6b4:	000c                	0xc
     6b6:	0301                	addi	t1,t1,0
     6b8:	0905                	addi	s2,s2,1
     6ba:	000c                	0xc
     6bc:	0301                	addi	t1,t1,0
     6be:	0905                	addi	s2,s2,1
     6c0:	000c                	0xc
     6c2:	0301                	addi	t1,t1,0
     6c4:	0905                	addi	s2,s2,1
     6c6:	0010                	0x10
     6c8:	0301                	addi	t1,t1,0
     6ca:	0905                	addi	s2,s2,1
     6cc:	0010                	0x10
     6ce:	0301                	addi	t1,t1,0
     6d0:	0905                	addi	s2,s2,1
     6d2:	0010                	0x10
     6d4:	0301                	addi	t1,t1,0
     6d6:	0905                	addi	s2,s2,1
     6d8:	0010                	0x10
     6da:	0301                	addi	t1,t1,0
     6dc:	0905                	addi	s2,s2,1
     6de:	0010                	0x10
     6e0:	0301                	addi	t1,t1,0
     6e2:	0905                	addi	s2,s2,1
     6e4:	0010                	0x10
     6e6:	0301                	addi	t1,t1,0
     6e8:	0905                	addi	s2,s2,1
     6ea:	0010                	0x10
     6ec:	0301                	addi	t1,t1,0
     6ee:	0905                	addi	s2,s2,1
     6f0:	0010                	0x10
     6f2:	0301                	addi	t1,t1,0
     6f4:	0905                	addi	s2,s2,1
     6f6:	0010                	0x10
     6f8:	0301                	addi	t1,t1,0
     6fa:	0905                	addi	s2,s2,1
     6fc:	0010                	0x10
     6fe:	0301                	addi	t1,t1,0
     700:	0905                	addi	s2,s2,1
     702:	0010                	0x10
     704:	0301                	addi	t1,t1,0
     706:	0905                	addi	s2,s2,1
     708:	0010                	0x10
     70a:	0301                	addi	t1,t1,0
     70c:	0905                	addi	s2,s2,1
     70e:	0010                	0x10
     710:	0301                	addi	t1,t1,0
     712:	0905                	addi	s2,s2,1
     714:	0010                	0x10
     716:	0301                	addi	t1,t1,0
     718:	0905                	addi	s2,s2,1
     71a:	0010                	0x10
     71c:	0301                	addi	t1,t1,0
     71e:	0905                	addi	s2,s2,1
     720:	0010                	0x10
     722:	0301                	addi	t1,t1,0
     724:	0905                	addi	s2,s2,1
     726:	0010                	0x10
     728:	0301                	addi	t1,t1,0
     72a:	0905                	addi	s2,s2,1
     72c:	0010                	0x10
     72e:	0301                	addi	t1,t1,0
     730:	0905                	addi	s2,s2,1
     732:	0010                	0x10
     734:	0301                	addi	t1,t1,0
     736:	0905                	addi	s2,s2,1
     738:	0010                	0x10
     73a:	0301                	addi	t1,t1,0
     73c:	0905                	addi	s2,s2,1
     73e:	0010                	0x10
     740:	0301                	addi	t1,t1,0
     742:	0905                	addi	s2,s2,1
     744:	0010                	0x10
     746:	0301                	addi	t1,t1,0
     748:	0905                	addi	s2,s2,1
     74a:	0010                	0x10
     74c:	0301                	addi	t1,t1,0
     74e:	0905                	addi	s2,s2,1
     750:	0010                	0x10
     752:	0301                	addi	t1,t1,0
     754:	0905                	addi	s2,s2,1
     756:	0010                	0x10
     758:	0301                	addi	t1,t1,0
     75a:	0905                	addi	s2,s2,1
     75c:	000c                	0xc
     75e:	0301                	addi	t1,t1,0
     760:	0905                	addi	s2,s2,1
     762:	000c                	0xc
     764:	0301                	addi	t1,t1,0
     766:	0905                	addi	s2,s2,1
     768:	000c                	0xc
     76a:	0301                	addi	t1,t1,0
     76c:	0905                	addi	s2,s2,1
     76e:	000c                	0xc
     770:	0301                	addi	t1,t1,0
     772:	0905                	addi	s2,s2,1
     774:	000c                	0xc
     776:	0301                	addi	t1,t1,0
     778:	0905                	addi	s2,s2,1
     77a:	000c                	0xc
     77c:	0301                	addi	t1,t1,0
     77e:	0905                	addi	s2,s2,1
     780:	000c                	0xc
     782:	0301                	addi	t1,t1,0
     784:	0905                	addi	s2,s2,1
     786:	000c                	0xc
     788:	0301                	addi	t1,t1,0
     78a:	0905                	addi	s2,s2,1
     78c:	000c                	0xc
     78e:	0301                	addi	t1,t1,0
     790:	0905                	addi	s2,s2,1
     792:	000c                	0xc
     794:	0301                	addi	t1,t1,0
     796:	0905                	addi	s2,s2,1
     798:	000c                	0xc
     79a:	0301                	addi	t1,t1,0
     79c:	0905                	addi	s2,s2,1
     79e:	000c                	0xc
     7a0:	0301                	addi	t1,t1,0
     7a2:	0905                	addi	s2,s2,1
     7a4:	000c                	0xc
     7a6:	0301                	addi	t1,t1,0
     7a8:	0905                	addi	s2,s2,1
     7aa:	000c                	0xc
     7ac:	0301                	addi	t1,t1,0
     7ae:	0905                	addi	s2,s2,1
     7b0:	000c                	0xc
     7b2:	0301                	addi	t1,t1,0
     7b4:	0905                	addi	s2,s2,1
     7b6:	000c                	0xc
     7b8:	0301                	addi	t1,t1,0
     7ba:	0905                	addi	s2,s2,1
     7bc:	000c                	0xc
     7be:	0301                	addi	t1,t1,0
     7c0:	0905                	addi	s2,s2,1
     7c2:	000c                	0xc
     7c4:	0301                	addi	t1,t1,0
     7c6:	0905                	addi	s2,s2,1
     7c8:	000c                	0xc
     7ca:	0301                	addi	t1,t1,0
     7cc:	0905                	addi	s2,s2,1
     7ce:	000c                	0xc
     7d0:	0301                	addi	t1,t1,0
     7d2:	0905                	addi	s2,s2,1
     7d4:	000c                	0xc
     7d6:	0301                	addi	t1,t1,0
     7d8:	0905                	addi	s2,s2,1
     7da:	000c                	0xc
     7dc:	0301                	addi	t1,t1,0
     7de:	0905                	addi	s2,s2,1
     7e0:	000c                	0xc
     7e2:	0301                	addi	t1,t1,0
     7e4:	0905                	addi	s2,s2,1
     7e6:	000c                	0xc
     7e8:	0301                	addi	t1,t1,0
     7ea:	0905                	addi	s2,s2,1
     7ec:	000c                	0xc
     7ee:	0301                	addi	t1,t1,0
     7f0:	0905                	addi	s2,s2,1
     7f2:	0010                	0x10
     7f4:	0301                	addi	t1,t1,0
     7f6:	0905                	addi	s2,s2,1
     7f8:	0010                	0x10
     7fa:	0301                	addi	t1,t1,0
     7fc:	0905                	addi	s2,s2,1
     7fe:	0010                	0x10
     800:	0301                	addi	t1,t1,0
     802:	0905                	addi	s2,s2,1
     804:	0010                	0x10
     806:	0301                	addi	t1,t1,0
     808:	0905                	addi	s2,s2,1
     80a:	0010                	0x10
     80c:	0301                	addi	t1,t1,0
     80e:	0905                	addi	s2,s2,1
     810:	0010                	0x10
     812:	0301                	addi	t1,t1,0
     814:	0905                	addi	s2,s2,1
     816:	0010                	0x10
     818:	0301                	addi	t1,t1,0
     81a:	0905                	addi	s2,s2,1
     81c:	0010                	0x10
     81e:	0301                	addi	t1,t1,0
     820:	0905                	addi	s2,s2,1
     822:	0010                	0x10
     824:	0301                	addi	t1,t1,0
     826:	0905                	addi	s2,s2,1
     828:	0010                	0x10
     82a:	0301                	addi	t1,t1,0
     82c:	0905                	addi	s2,s2,1
     82e:	0010                	0x10
     830:	0301                	addi	t1,t1,0
     832:	0905                	addi	s2,s2,1
     834:	0010                	0x10
     836:	0301                	addi	t1,t1,0
     838:	0905                	addi	s2,s2,1
     83a:	0010                	0x10
     83c:	0301                	addi	t1,t1,0
     83e:	0905                	addi	s2,s2,1
     840:	0010                	0x10
     842:	0301                	addi	t1,t1,0
     844:	0905                	addi	s2,s2,1
     846:	0010                	0x10
     848:	0301                	addi	t1,t1,0
     84a:	0905                	addi	s2,s2,1
     84c:	0010                	0x10
     84e:	0301                	addi	t1,t1,0
     850:	0905                	addi	s2,s2,1
     852:	0010                	0x10
     854:	0301                	addi	t1,t1,0
     856:	0905                	addi	s2,s2,1
     858:	0010                	0x10
     85a:	0301                	addi	t1,t1,0
     85c:	0905                	addi	s2,s2,1
     85e:	0010                	0x10
     860:	0301                	addi	t1,t1,0
     862:	0905                	addi	s2,s2,1
     864:	0010                	0x10
     866:	0301                	addi	t1,t1,0
     868:	0905                	addi	s2,s2,1
     86a:	0010                	0x10
     86c:	0301                	addi	t1,t1,0
     86e:	0905                	addi	s2,s2,1
     870:	0010                	0x10
     872:	0301                	addi	t1,t1,0
     874:	0905                	addi	s2,s2,1
     876:	0010                	0x10
     878:	0301                	addi	t1,t1,0
     87a:	0905                	addi	s2,s2,1
     87c:	0010                	0x10
     87e:	0301                	addi	t1,t1,0
     880:	0905                	addi	s2,s2,1
     882:	0010                	0x10
     884:	0301                	addi	t1,t1,0
     886:	0905                	addi	s2,s2,1
     888:	0010                	0x10
     88a:	0301                	addi	t1,t1,0
     88c:	0905                	addi	s2,s2,1
     88e:	0010                	0x10
     890:	0301                	addi	t1,t1,0
     892:	0905                	addi	s2,s2,1
     894:	0010                	0x10
     896:	0301                	addi	t1,t1,0
     898:	0905                	addi	s2,s2,1
     89a:	0010                	0x10
     89c:	0301                	addi	t1,t1,0
     89e:	0905                	addi	s2,s2,1
     8a0:	0010                	0x10
     8a2:	0301                	addi	t1,t1,0
     8a4:	0905                	addi	s2,s2,1
     8a6:	0010                	0x10
     8a8:	0301                	addi	t1,t1,0
     8aa:	0905                	addi	s2,s2,1
     8ac:	0010                	0x10
     8ae:	0301                	addi	t1,t1,0
     8b0:	0905                	addi	s2,s2,1
     8b2:	0010                	0x10
     8b4:	0301                	addi	t1,t1,0
     8b6:	0905                	addi	s2,s2,1
     8b8:	0010                	0x10
     8ba:	0301                	addi	t1,t1,0
     8bc:	0905                	addi	s2,s2,1
     8be:	0010                	0x10
     8c0:	0301                	addi	t1,t1,0
     8c2:	0905                	addi	s2,s2,1
     8c4:	0010                	0x10
     8c6:	0301                	addi	t1,t1,0
     8c8:	0905                	addi	s2,s2,1
     8ca:	0010                	0x10
     8cc:	0301                	addi	t1,t1,0
     8ce:	0905                	addi	s2,s2,1
     8d0:	0010                	0x10
     8d2:	0301                	addi	t1,t1,0
     8d4:	0905                	addi	s2,s2,1
     8d6:	0010                	0x10
     8d8:	0301                	addi	t1,t1,0
     8da:	0905                	addi	s2,s2,1
     8dc:	0010                	0x10
     8de:	0301                	addi	t1,t1,0
     8e0:	0905                	addi	s2,s2,1
     8e2:	0010                	0x10
     8e4:	0301                	addi	t1,t1,0
     8e6:	0905                	addi	s2,s2,1
     8e8:	0010                	0x10
     8ea:	0301                	addi	t1,t1,0
     8ec:	0905                	addi	s2,s2,1
     8ee:	0010                	0x10
     8f0:	0301                	addi	t1,t1,0
     8f2:	0905                	addi	s2,s2,1
     8f4:	0010                	0x10
     8f6:	0301                	addi	t1,t1,0
     8f8:	0905                	addi	s2,s2,1
     8fa:	0010                	0x10
     8fc:	0301                	addi	t1,t1,0
     8fe:	0905                	addi	s2,s2,1
     900:	0010                	0x10
     902:	0301                	addi	t1,t1,0
     904:	0905                	addi	s2,s2,1
     906:	0010                	0x10
     908:	0301                	addi	t1,t1,0
     90a:	0905                	addi	s2,s2,1
     90c:	0010                	0x10
     90e:	0301                	addi	t1,t1,0
     910:	0905                	addi	s2,s2,1
     912:	0010                	0x10
     914:	0301                	addi	t1,t1,0
     916:	0905                	addi	s2,s2,1
     918:	0010                	0x10
     91a:	0301                	addi	t1,t1,0
     91c:	0905                	addi	s2,s2,1
     91e:	000c                	0xc
     920:	0301                	addi	t1,t1,0
     922:	0905                	addi	s2,s2,1
     924:	000c                	0xc
     926:	0301                	addi	t1,t1,0
     928:	0905                	addi	s2,s2,1
     92a:	000c                	0xc
     92c:	0301                	addi	t1,t1,0
     92e:	0905                	addi	s2,s2,1
     930:	000c                	0xc
     932:	0301                	addi	t1,t1,0
     934:	0905                	addi	s2,s2,1
     936:	000c                	0xc
     938:	0301                	addi	t1,t1,0
     93a:	0905                	addi	s2,s2,1
     93c:	000c                	0xc
     93e:	0301                	addi	t1,t1,0
     940:	0905                	addi	s2,s2,1
     942:	000c                	0xc
     944:	0301                	addi	t1,t1,0
     946:	0905                	addi	s2,s2,1
     948:	000c                	0xc
     94a:	0301                	addi	t1,t1,0
     94c:	0905                	addi	s2,s2,1
     94e:	000c                	0xc
     950:	0301                	addi	t1,t1,0
     952:	0905                	addi	s2,s2,1
     954:	000c                	0xc
     956:	0301                	addi	t1,t1,0
     958:	0905                	addi	s2,s2,1
     95a:	000c                	0xc
     95c:	0301                	addi	t1,t1,0
     95e:	0905                	addi	s2,s2,1
     960:	000c                	0xc
     962:	0301                	addi	t1,t1,0
     964:	0905                	addi	s2,s2,1
     966:	000c                	0xc
     968:	0301                	addi	t1,t1,0
     96a:	0905                	addi	s2,s2,1
     96c:	000c                	0xc
     96e:	0301                	addi	t1,t1,0
     970:	0905                	addi	s2,s2,1
     972:	000c                	0xc
     974:	0301                	addi	t1,t1,0
     976:	0905                	addi	s2,s2,1
     978:	000c                	0xc
     97a:	0301                	addi	t1,t1,0
     97c:	0905                	addi	s2,s2,1
     97e:	000c                	0xc
     980:	0301                	addi	t1,t1,0
     982:	0905                	addi	s2,s2,1
     984:	000c                	0xc
     986:	0301                	addi	t1,t1,0
     988:	0905                	addi	s2,s2,1
     98a:	000c                	0xc
     98c:	0301                	addi	t1,t1,0
     98e:	0905                	addi	s2,s2,1
     990:	000c                	0xc
     992:	0301                	addi	t1,t1,0
     994:	0905                	addi	s2,s2,1
     996:	000c                	0xc
     998:	0301                	addi	t1,t1,0
     99a:	0905                	addi	s2,s2,1
     99c:	000c                	0xc
     99e:	0301                	addi	t1,t1,0
     9a0:	0905                	addi	s2,s2,1
     9a2:	000c                	0xc
     9a4:	0301                	addi	t1,t1,0
     9a6:	0905                	addi	s2,s2,1
     9a8:	000c                	0xc
     9aa:	0301                	addi	t1,t1,0
     9ac:	0905                	addi	s2,s2,1
     9ae:	0010                	0x10
     9b0:	0301                	addi	t1,t1,0
     9b2:	0905                	addi	s2,s2,1
     9b4:	0010                	0x10
     9b6:	0301                	addi	t1,t1,0
     9b8:	0905                	addi	s2,s2,1
     9ba:	0010                	0x10
     9bc:	0301                	addi	t1,t1,0
     9be:	0905                	addi	s2,s2,1
     9c0:	0010                	0x10
     9c2:	0301                	addi	t1,t1,0
     9c4:	0905                	addi	s2,s2,1
     9c6:	0010                	0x10
     9c8:	0301                	addi	t1,t1,0
     9ca:	0905                	addi	s2,s2,1
     9cc:	0010                	0x10
     9ce:	0301                	addi	t1,t1,0
     9d0:	0905                	addi	s2,s2,1
     9d2:	0010                	0x10
     9d4:	0301                	addi	t1,t1,0
     9d6:	0905                	addi	s2,s2,1
     9d8:	0010                	0x10
     9da:	0301                	addi	t1,t1,0
     9dc:	0905                	addi	s2,s2,1
     9de:	0010                	0x10
     9e0:	0301                	addi	t1,t1,0
     9e2:	0905                	addi	s2,s2,1
     9e4:	0010                	0x10
     9e6:	0301                	addi	t1,t1,0
     9e8:	0905                	addi	s2,s2,1
     9ea:	0010                	0x10
     9ec:	0301                	addi	t1,t1,0
     9ee:	0905                	addi	s2,s2,1
     9f0:	0010                	0x10
     9f2:	0301                	addi	t1,t1,0
     9f4:	0905                	addi	s2,s2,1
     9f6:	0010                	0x10
     9f8:	0301                	addi	t1,t1,0
     9fa:	0905                	addi	s2,s2,1
     9fc:	0010                	0x10
     9fe:	0301                	addi	t1,t1,0
     a00:	0905                	addi	s2,s2,1
     a02:	0010                	0x10
     a04:	0301                	addi	t1,t1,0
     a06:	0905                	addi	s2,s2,1
     a08:	0010                	0x10
     a0a:	0301                	addi	t1,t1,0
     a0c:	0905                	addi	s2,s2,1
     a0e:	0010                	0x10
     a10:	0301                	addi	t1,t1,0
     a12:	0905                	addi	s2,s2,1
     a14:	0010                	0x10
     a16:	0301                	addi	t1,t1,0
     a18:	0905                	addi	s2,s2,1
     a1a:	0010                	0x10
     a1c:	0301                	addi	t1,t1,0
     a1e:	0905                	addi	s2,s2,1
     a20:	0010                	0x10
     a22:	0301                	addi	t1,t1,0
     a24:	0905                	addi	s2,s2,1
     a26:	0010                	0x10
     a28:	0301                	addi	t1,t1,0
     a2a:	0905                	addi	s2,s2,1
     a2c:	0010                	0x10
     a2e:	0301                	addi	t1,t1,0
     a30:	0905                	addi	s2,s2,1
     a32:	0010                	0x10
     a34:	0301                	addi	t1,t1,0
     a36:	0905                	addi	s2,s2,1
     a38:	0010                	0x10
     a3a:	0301                	addi	t1,t1,0
     a3c:	0905                	addi	s2,s2,1
     a3e:	0010                	0x10
     a40:	0301                	addi	t1,t1,0
     a42:	0905                	addi	s2,s2,1
     a44:	0010                	0x10
     a46:	0301                	addi	t1,t1,0
     a48:	0905                	addi	s2,s2,1
     a4a:	0010                	0x10
     a4c:	0301                	addi	t1,t1,0
     a4e:	0905                	addi	s2,s2,1
     a50:	0010                	0x10
     a52:	0301                	addi	t1,t1,0
     a54:	0905                	addi	s2,s2,1
     a56:	0010                	0x10
     a58:	0301                	addi	t1,t1,0
     a5a:	0905                	addi	s2,s2,1
     a5c:	0010                	0x10
     a5e:	0301                	addi	t1,t1,0
     a60:	0905                	addi	s2,s2,1
     a62:	0010                	0x10
     a64:	0301                	addi	t1,t1,0
     a66:	0905                	addi	s2,s2,1
     a68:	0010                	0x10
     a6a:	0301                	addi	t1,t1,0
     a6c:	0905                	addi	s2,s2,1
     a6e:	0010                	0x10
     a70:	0301                	addi	t1,t1,0
     a72:	0905                	addi	s2,s2,1
     a74:	0010                	0x10
     a76:	0301                	addi	t1,t1,0
     a78:	0905                	addi	s2,s2,1
     a7a:	0010                	0x10
     a7c:	0301                	addi	t1,t1,0
     a7e:	0905                	addi	s2,s2,1
     a80:	0010                	0x10
     a82:	0301                	addi	t1,t1,0
     a84:	0905                	addi	s2,s2,1
     a86:	0010                	0x10
     a88:	0301                	addi	t1,t1,0
     a8a:	0905                	addi	s2,s2,1
     a8c:	0010                	0x10
     a8e:	0301                	addi	t1,t1,0
     a90:	0905                	addi	s2,s2,1
     a92:	0010                	0x10
     a94:	0301                	addi	t1,t1,0
     a96:	0905                	addi	s2,s2,1
     a98:	0010                	0x10
     a9a:	0301                	addi	t1,t1,0
     a9c:	0905                	addi	s2,s2,1
     a9e:	0010                	0x10
     aa0:	0301                	addi	t1,t1,0
     aa2:	0905                	addi	s2,s2,1
     aa4:	0010                	0x10
     aa6:	0301                	addi	t1,t1,0
     aa8:	0905                	addi	s2,s2,1
     aaa:	0010                	0x10
     aac:	0301                	addi	t1,t1,0
     aae:	0905                	addi	s2,s2,1
     ab0:	0010                	0x10
     ab2:	0301                	addi	t1,t1,0
     ab4:	0905                	addi	s2,s2,1
     ab6:	0010                	0x10
     ab8:	0301                	addi	t1,t1,0
     aba:	0905                	addi	s2,s2,1
     abc:	0010                	0x10
     abe:	0301                	addi	t1,t1,0
     ac0:	0905                	addi	s2,s2,1
     ac2:	0010                	0x10
     ac4:	0301                	addi	t1,t1,0
     ac6:	0905                	addi	s2,s2,1
     ac8:	0010                	0x10
     aca:	0301                	addi	t1,t1,0
     acc:	0905                	addi	s2,s2,1
     ace:	0010                	0x10
     ad0:	0301                	addi	t1,t1,0
     ad2:	0905                	addi	s2,s2,1
     ad4:	0010                	0x10
     ad6:	0301                	addi	t1,t1,0
     ad8:	0905                	addi	s2,s2,1
     ada:	0010                	0x10
     adc:	0301                	addi	t1,t1,0
     ade:	0905                	addi	s2,s2,1
     ae0:	0010                	0x10
     ae2:	0301                	addi	t1,t1,0
     ae4:	0905                	addi	s2,s2,1
     ae6:	0010                	0x10
     ae8:	0301                	addi	t1,t1,0
     aea:	0905                	addi	s2,s2,1
     aec:	0010                	0x10
     aee:	0301                	addi	t1,t1,0
     af0:	0905                	addi	s2,s2,1
     af2:	0010                	0x10
     af4:	0301                	addi	t1,t1,0
     af6:	0905                	addi	s2,s2,1
     af8:	0010                	0x10
     afa:	0301                	addi	t1,t1,0
     afc:	0905                	addi	s2,s2,1
     afe:	0010                	0x10
     b00:	0301                	addi	t1,t1,0
     b02:	0905                	addi	s2,s2,1
     b04:	0010                	0x10
     b06:	0301                	addi	t1,t1,0
     b08:	0905                	addi	s2,s2,1
     b0a:	0010                	0x10
     b0c:	0301                	addi	t1,t1,0
     b0e:	0905                	addi	s2,s2,1
     b10:	0010                	0x10
     b12:	0301                	addi	t1,t1,0
     b14:	0905                	addi	s2,s2,1
     b16:	0010                	0x10
     b18:	0301                	addi	t1,t1,0
     b1a:	0905                	addi	s2,s2,1
     b1c:	0010                	0x10
     b1e:	0301                	addi	t1,t1,0
     b20:	0905                	addi	s2,s2,1
     b22:	0010                	0x10
     b24:	0301                	addi	t1,t1,0
     b26:	0905                	addi	s2,s2,1
     b28:	0010                	0x10
     b2a:	0301                	addi	t1,t1,0
     b2c:	0905                	addi	s2,s2,1
     b2e:	0010                	0x10
     b30:	0301                	addi	t1,t1,0
     b32:	0905                	addi	s2,s2,1
     b34:	0010                	0x10
     b36:	0301                	addi	t1,t1,0
     b38:	0905                	addi	s2,s2,1
     b3a:	0010                	0x10
     b3c:	0301                	addi	t1,t1,0
     b3e:	0905                	addi	s2,s2,1
     b40:	0010                	0x10
     b42:	0301                	addi	t1,t1,0
     b44:	0905                	addi	s2,s2,1
     b46:	0010                	0x10
     b48:	0301                	addi	t1,t1,0
     b4a:	0905                	addi	s2,s2,1
     b4c:	0010                	0x10
     b4e:	0301                	addi	t1,t1,0
     b50:	0905                	addi	s2,s2,1
     b52:	0010                	0x10
     b54:	0301                	addi	t1,t1,0
     b56:	0905                	addi	s2,s2,1
     b58:	0010                	0x10
     b5a:	0301                	addi	t1,t1,0
     b5c:	0905                	addi	s2,s2,1
     b5e:	0010                	0x10
     b60:	0301                	addi	t1,t1,0
     b62:	0905                	addi	s2,s2,1
     b64:	0010                	0x10
     b66:	0301                	addi	t1,t1,0
     b68:	0905                	addi	s2,s2,1
     b6a:	0010                	0x10
     b6c:	0301                	addi	t1,t1,0
     b6e:	0905                	addi	s2,s2,1
     b70:	0010                	0x10
     b72:	0301                	addi	t1,t1,0
     b74:	0905                	addi	s2,s2,1
     b76:	0010                	0x10
     b78:	0301                	addi	t1,t1,0
     b7a:	0905                	addi	s2,s2,1
     b7c:	0010                	0x10
     b7e:	0301                	addi	t1,t1,0
     b80:	0905                	addi	s2,s2,1
     b82:	0010                	0x10
     b84:	0301                	addi	t1,t1,0
     b86:	0905                	addi	s2,s2,1
     b88:	0010                	0x10
     b8a:	0301                	addi	t1,t1,0
     b8c:	0905                	addi	s2,s2,1
     b8e:	0010                	0x10
     b90:	0301                	addi	t1,t1,0
     b92:	0905                	addi	s2,s2,1
     b94:	0010                	0x10
     b96:	0301                	addi	t1,t1,0
     b98:	0905                	addi	s2,s2,1
     b9a:	0010                	0x10
     b9c:	0301                	addi	t1,t1,0
     b9e:	0905                	addi	s2,s2,1
     ba0:	0010                	0x10
     ba2:	0301                	addi	t1,t1,0
     ba4:	0905                	addi	s2,s2,1
     ba6:	0010                	0x10
     ba8:	0301                	addi	t1,t1,0
     baa:	0905                	addi	s2,s2,1
     bac:	0010                	0x10
     bae:	0301                	addi	t1,t1,0
     bb0:	0905                	addi	s2,s2,1
     bb2:	0010                	0x10
     bb4:	0301                	addi	t1,t1,0
     bb6:	0905                	addi	s2,s2,1
     bb8:	0010                	0x10
     bba:	0301                	addi	t1,t1,0
     bbc:	0905                	addi	s2,s2,1
     bbe:	0010                	0x10
     bc0:	0301                	addi	t1,t1,0
     bc2:	0905                	addi	s2,s2,1
     bc4:	0010                	0x10
     bc6:	0301                	addi	t1,t1,0
     bc8:	0905                	addi	s2,s2,1
     bca:	0010                	0x10
     bcc:	0301                	addi	t1,t1,0
     bce:	0905                	addi	s2,s2,1
     bd0:	0010                	0x10
     bd2:	0301                	addi	t1,t1,0
     bd4:	0905                	addi	s2,s2,1
     bd6:	0010                	0x10
     bd8:	0301                	addi	t1,t1,0
     bda:	0905                	addi	s2,s2,1
     bdc:	0010                	0x10
     bde:	0301                	addi	t1,t1,0
     be0:	0905                	addi	s2,s2,1
     be2:	0010                	0x10
     be4:	0301                	addi	t1,t1,0
     be6:	0905                	addi	s2,s2,1
     be8:	0010                	0x10
     bea:	0301                	addi	t1,t1,0
     bec:	0905                	addi	s2,s2,1
     bee:	0010                	0x10
     bf0:	0301                	addi	t1,t1,0
     bf2:	0905                	addi	s2,s2,1
     bf4:	0010                	0x10
     bf6:	0301                	addi	t1,t1,0
     bf8:	0905                	addi	s2,s2,1
     bfa:	0010                	0x10
     bfc:	0301                	addi	t1,t1,0
     bfe:	0905                	addi	s2,s2,1
     c00:	0010                	0x10
     c02:	0301                	addi	t1,t1,0
     c04:	0905                	addi	s2,s2,1
     c06:	0010                	0x10
     c08:	0301                	addi	t1,t1,0
     c0a:	0905                	addi	s2,s2,1
     c0c:	0010                	0x10
     c0e:	0301                	addi	t1,t1,0
     c10:	0905                	addi	s2,s2,1
     c12:	0010                	0x10
     c14:	0301                	addi	t1,t1,0
     c16:	0905                	addi	s2,s2,1
     c18:	0010                	0x10
     c1a:	0301                	addi	t1,t1,0
     c1c:	0905                	addi	s2,s2,1
     c1e:	000c                	0xc
     c20:	0301                	addi	t1,t1,0
     c22:	0905                	addi	s2,s2,1
     c24:	000c                	0xc
     c26:	0301                	addi	t1,t1,0
     c28:	0905                	addi	s2,s2,1
     c2a:	000c                	0xc
     c2c:	0301                	addi	t1,t1,0
     c2e:	0905                	addi	s2,s2,1
     c30:	000c                	0xc
     c32:	0301                	addi	t1,t1,0
     c34:	0905                	addi	s2,s2,1
     c36:	000c                	0xc
     c38:	0301                	addi	t1,t1,0
     c3a:	0905                	addi	s2,s2,1
     c3c:	000c                	0xc
     c3e:	0301                	addi	t1,t1,0
     c40:	0905                	addi	s2,s2,1
     c42:	000c                	0xc
     c44:	0301                	addi	t1,t1,0
     c46:	0905                	addi	s2,s2,1
     c48:	000c                	0xc
     c4a:	0301                	addi	t1,t1,0
     c4c:	0905                	addi	s2,s2,1
     c4e:	000c                	0xc
     c50:	0301                	addi	t1,t1,0
     c52:	0905                	addi	s2,s2,1
     c54:	000c                	0xc
     c56:	0301                	addi	t1,t1,0
     c58:	0905                	addi	s2,s2,1
     c5a:	000c                	0xc
     c5c:	0301                	addi	t1,t1,0
     c5e:	0905                	addi	s2,s2,1
     c60:	000c                	0xc
     c62:	0301                	addi	t1,t1,0
     c64:	0905                	addi	s2,s2,1
     c66:	000c                	0xc
     c68:	0301                	addi	t1,t1,0
     c6a:	0905                	addi	s2,s2,1
     c6c:	000c                	0xc
     c6e:	0301                	addi	t1,t1,0
     c70:	0905                	addi	s2,s2,1
     c72:	000c                	0xc
     c74:	0301                	addi	t1,t1,0
     c76:	0905                	addi	s2,s2,1
     c78:	000c                	0xc
     c7a:	0301                	addi	t1,t1,0
     c7c:	0905                	addi	s2,s2,1
     c7e:	000c                	0xc
     c80:	0301                	addi	t1,t1,0
     c82:	0905                	addi	s2,s2,1
     c84:	000c                	0xc
     c86:	0301                	addi	t1,t1,0
     c88:	0905                	addi	s2,s2,1
     c8a:	000c                	0xc
     c8c:	0301                	addi	t1,t1,0
     c8e:	0905                	addi	s2,s2,1
     c90:	000c                	0xc
     c92:	0301                	addi	t1,t1,0
     c94:	0905                	addi	s2,s2,1
     c96:	000c                	0xc
     c98:	0301                	addi	t1,t1,0
     c9a:	0905                	addi	s2,s2,1
     c9c:	000c                	0xc
     c9e:	0301                	addi	t1,t1,0
     ca0:	0905                	addi	s2,s2,1
     ca2:	000c                	0xc
     ca4:	0301                	addi	t1,t1,0
     ca6:	0905                	addi	s2,s2,1
     ca8:	000c                	0xc
     caa:	0301                	addi	t1,t1,0
     cac:	0905                	addi	s2,s2,1
     cae:	000c                	0xc
     cb0:	0301                	addi	t1,t1,0
     cb2:	0901                	addi	s2,s2,0
     cb4:	0010                	0x10
     cb6:	0301                	addi	t1,t1,0
     cb8:	0905                	addi	s2,s2,1
     cba:	0008                	0x8
     cbc:	0301                	addi	t1,t1,0
     cbe:	0905                	addi	s2,s2,1
     cc0:	0010                	0x10
     cc2:	0301                	addi	t1,t1,0
     cc4:	0905                	addi	s2,s2,1
     cc6:	0010                	0x10
     cc8:	0301                	addi	t1,t1,0
     cca:	0905                	addi	s2,s2,1
     ccc:	0010                	0x10
     cce:	0301                	addi	t1,t1,0
     cd0:	0905                	addi	s2,s2,1
     cd2:	0010                	0x10
     cd4:	0301                	addi	t1,t1,0
     cd6:	0905                	addi	s2,s2,1
     cd8:	0010                	0x10
     cda:	0301                	addi	t1,t1,0
     cdc:	0905                	addi	s2,s2,1
     cde:	0010                	0x10
     ce0:	0301                	addi	t1,t1,0
     ce2:	0905                	addi	s2,s2,1
     ce4:	0010                	0x10
     ce6:	0301                	addi	t1,t1,0
     ce8:	0905                	addi	s2,s2,1
     cea:	0010                	0x10
     cec:	0301                	addi	t1,t1,0
     cee:	0905                	addi	s2,s2,1
     cf0:	0010                	0x10
     cf2:	0301                	addi	t1,t1,0
     cf4:	0905                	addi	s2,s2,1
     cf6:	0010                	0x10
     cf8:	0301                	addi	t1,t1,0
     cfa:	0905                	addi	s2,s2,1
     cfc:	0010                	0x10
     cfe:	0301                	addi	t1,t1,0
     d00:	0905                	addi	s2,s2,1
     d02:	0010                	0x10
     d04:	0301                	addi	t1,t1,0
     d06:	0905                	addi	s2,s2,1
     d08:	0010                	0x10
     d0a:	0301                	addi	t1,t1,0
     d0c:	0905                	addi	s2,s2,1
     d0e:	0010                	0x10
     d10:	0301                	addi	t1,t1,0
     d12:	0905                	addi	s2,s2,1
     d14:	0010                	0x10
     d16:	0301                	addi	t1,t1,0
     d18:	0905                	addi	s2,s2,1
     d1a:	0010                	0x10
     d1c:	0301                	addi	t1,t1,0
     d1e:	0905                	addi	s2,s2,1
     d20:	0010                	0x10
     d22:	0301                	addi	t1,t1,0
     d24:	0905                	addi	s2,s2,1
     d26:	0010                	0x10
     d28:	0301                	addi	t1,t1,0
     d2a:	0905                	addi	s2,s2,1
     d2c:	0010                	0x10
     d2e:	0301                	addi	t1,t1,0
     d30:	0905                	addi	s2,s2,1
     d32:	0010                	0x10
     d34:	0301                	addi	t1,t1,0
     d36:	0905                	addi	s2,s2,1
     d38:	0010                	0x10
     d3a:	0301                	addi	t1,t1,0
     d3c:	0905                	addi	s2,s2,1
     d3e:	0010                	0x10
     d40:	0301                	addi	t1,t1,0
     d42:	0905                	addi	s2,s2,1
     d44:	0010                	0x10
     d46:	0301                	addi	t1,t1,0
     d48:	0905                	addi	s2,s2,1
     d4a:	0010                	0x10
     d4c:	0301                	addi	t1,t1,0
     d4e:	0905                	addi	s2,s2,1
     d50:	0010                	0x10
     d52:	0301                	addi	t1,t1,0
     d54:	0905                	addi	s2,s2,1
     d56:	0010                	0x10
     d58:	0301                	addi	t1,t1,0
     d5a:	0905                	addi	s2,s2,1
     d5c:	0010                	0x10
     d5e:	0301                	addi	t1,t1,0
     d60:	0905                	addi	s2,s2,1
     d62:	0010                	0x10
     d64:	0301                	addi	t1,t1,0
     d66:	0905                	addi	s2,s2,1
     d68:	0010                	0x10
     d6a:	0301                	addi	t1,t1,0
     d6c:	0905                	addi	s2,s2,1
     d6e:	0010                	0x10
     d70:	0301                	addi	t1,t1,0
     d72:	0905                	addi	s2,s2,1
     d74:	0010                	0x10
     d76:	0301                	addi	t1,t1,0
     d78:	0905                	addi	s2,s2,1
     d7a:	0010                	0x10
     d7c:	0301                	addi	t1,t1,0
     d7e:	0905                	addi	s2,s2,1
     d80:	0010                	0x10
     d82:	0301                	addi	t1,t1,0
     d84:	0905                	addi	s2,s2,1
     d86:	0010                	0x10
     d88:	0301                	addi	t1,t1,0
     d8a:	0905                	addi	s2,s2,1
     d8c:	0010                	0x10
     d8e:	0301                	addi	t1,t1,0
     d90:	0905                	addi	s2,s2,1
     d92:	0010                	0x10
     d94:	0301                	addi	t1,t1,0
     d96:	0905                	addi	s2,s2,1
     d98:	0010                	0x10
     d9a:	0301                	addi	t1,t1,0
     d9c:	0905                	addi	s2,s2,1
     d9e:	0010                	0x10
     da0:	0301                	addi	t1,t1,0
     da2:	0905                	addi	s2,s2,1
     da4:	0010                	0x10
     da6:	0301                	addi	t1,t1,0
     da8:	0905                	addi	s2,s2,1
     daa:	0010                	0x10
     dac:	0301                	addi	t1,t1,0
     dae:	0905                	addi	s2,s2,1
     db0:	0010                	0x10
     db2:	0301                	addi	t1,t1,0
     db4:	0905                	addi	s2,s2,1
     db6:	0010                	0x10
     db8:	0301                	addi	t1,t1,0
     dba:	0905                	addi	s2,s2,1
     dbc:	0010                	0x10
     dbe:	0301                	addi	t1,t1,0
     dc0:	0905                	addi	s2,s2,1
     dc2:	0010                	0x10
     dc4:	0301                	addi	t1,t1,0
     dc6:	0905                	addi	s2,s2,1
     dc8:	0010                	0x10
     dca:	0301                	addi	t1,t1,0
     dcc:	0905                	addi	s2,s2,1
     dce:	0010                	0x10
     dd0:	0301                	addi	t1,t1,0
     dd2:	0905                	addi	s2,s2,1
     dd4:	0010                	0x10
     dd6:	0301                	addi	t1,t1,0
     dd8:	0905                	addi	s2,s2,1
     dda:	0010                	0x10
     ddc:	0301                	addi	t1,t1,0
     dde:	0905                	addi	s2,s2,1
     de0:	0010                	0x10
     de2:	0301                	addi	t1,t1,0
     de4:	0905                	addi	s2,s2,1
     de6:	0010                	0x10
     de8:	0301                	addi	t1,t1,0
     dea:	0905                	addi	s2,s2,1
     dec:	0010                	0x10
     dee:	0301                	addi	t1,t1,0
     df0:	0905                	addi	s2,s2,1
     df2:	0010                	0x10
     df4:	0301                	addi	t1,t1,0
     df6:	0905                	addi	s2,s2,1
     df8:	0010                	0x10
     dfa:	0301                	addi	t1,t1,0
     dfc:	0905                	addi	s2,s2,1
     dfe:	0010                	0x10
     e00:	0301                	addi	t1,t1,0
     e02:	0905                	addi	s2,s2,1
     e04:	0010                	0x10
     e06:	0301                	addi	t1,t1,0
     e08:	0905                	addi	s2,s2,1
     e0a:	0010                	0x10
     e0c:	0301                	addi	t1,t1,0
     e0e:	0905                	addi	s2,s2,1
     e10:	0010                	0x10
     e12:	0301                	addi	t1,t1,0
     e14:	0905                	addi	s2,s2,1
     e16:	0010                	0x10
     e18:	0301                	addi	t1,t1,0
     e1a:	0905                	addi	s2,s2,1
     e1c:	0010                	0x10
     e1e:	0301                	addi	t1,t1,0
     e20:	0905                	addi	s2,s2,1
     e22:	0010                	0x10
     e24:	0301                	addi	t1,t1,0
     e26:	0905                	addi	s2,s2,1
     e28:	0010                	0x10
     e2a:	0301                	addi	t1,t1,0
     e2c:	0905                	addi	s2,s2,1
     e2e:	0010                	0x10
     e30:	0301                	addi	t1,t1,0
     e32:	0905                	addi	s2,s2,1
     e34:	0010                	0x10
     e36:	0301                	addi	t1,t1,0
     e38:	0905                	addi	s2,s2,1
     e3a:	0010                	0x10
     e3c:	0301                	addi	t1,t1,0
     e3e:	0905                	addi	s2,s2,1
     e40:	0010                	0x10
     e42:	0301                	addi	t1,t1,0
     e44:	0905                	addi	s2,s2,1
     e46:	0010                	0x10
     e48:	0301                	addi	t1,t1,0
     e4a:	0905                	addi	s2,s2,1
     e4c:	0010                	0x10
     e4e:	0301                	addi	t1,t1,0
     e50:	0905                	addi	s2,s2,1
     e52:	0010                	0x10
     e54:	0301                	addi	t1,t1,0
     e56:	0905                	addi	s2,s2,1
     e58:	0010                	0x10
     e5a:	0301                	addi	t1,t1,0
     e5c:	0905                	addi	s2,s2,1
     e5e:	0010                	0x10
     e60:	0301                	addi	t1,t1,0
     e62:	0905                	addi	s2,s2,1
     e64:	0010                	0x10
     e66:	0301                	addi	t1,t1,0
     e68:	0905                	addi	s2,s2,1
     e6a:	0010                	0x10
     e6c:	0301                	addi	t1,t1,0
     e6e:	0905                	addi	s2,s2,1
     e70:	0010                	0x10
     e72:	0301                	addi	t1,t1,0
     e74:	0905                	addi	s2,s2,1
     e76:	0010                	0x10
     e78:	0301                	addi	t1,t1,0
     e7a:	0905                	addi	s2,s2,1
     e7c:	0010                	0x10
     e7e:	0301                	addi	t1,t1,0
     e80:	0905                	addi	s2,s2,1
     e82:	000c                	0xc
     e84:	0301                	addi	t1,t1,0
     e86:	0905                	addi	s2,s2,1
     e88:	000c                	0xc
     e8a:	0301                	addi	t1,t1,0
     e8c:	0905                	addi	s2,s2,1
     e8e:	000c                	0xc
     e90:	0301                	addi	t1,t1,0
     e92:	0905                	addi	s2,s2,1
     e94:	000c                	0xc
     e96:	0301                	addi	t1,t1,0
     e98:	0905                	addi	s2,s2,1
     e9a:	000c                	0xc
     e9c:	0301                	addi	t1,t1,0
     e9e:	0905                	addi	s2,s2,1
     ea0:	000c                	0xc
     ea2:	0301                	addi	t1,t1,0
     ea4:	0905                	addi	s2,s2,1
     ea6:	000c                	0xc
     ea8:	0301                	addi	t1,t1,0
     eaa:	0905                	addi	s2,s2,1
     eac:	000c                	0xc
     eae:	0301                	addi	t1,t1,0
     eb0:	0905                	addi	s2,s2,1
     eb2:	000c                	0xc
     eb4:	0301                	addi	t1,t1,0
     eb6:	0905                	addi	s2,s2,1
     eb8:	000c                	0xc
     eba:	0301                	addi	t1,t1,0
     ebc:	0905                	addi	s2,s2,1
     ebe:	000c                	0xc
     ec0:	0301                	addi	t1,t1,0
     ec2:	0905                	addi	s2,s2,1
     ec4:	000c                	0xc
     ec6:	0301                	addi	t1,t1,0
     ec8:	0905                	addi	s2,s2,1
     eca:	000c                	0xc
     ecc:	0301                	addi	t1,t1,0
     ece:	0905                	addi	s2,s2,1
     ed0:	000c                	0xc
     ed2:	0301                	addi	t1,t1,0
     ed4:	0905                	addi	s2,s2,1
     ed6:	000c                	0xc
     ed8:	0301                	addi	t1,t1,0
     eda:	0905                	addi	s2,s2,1
     edc:	000c                	0xc
     ede:	0301                	addi	t1,t1,0
     ee0:	0905                	addi	s2,s2,1
     ee2:	000c                	0xc
     ee4:	0301                	addi	t1,t1,0
     ee6:	0905                	addi	s2,s2,1
     ee8:	000c                	0xc
     eea:	0301                	addi	t1,t1,0
     eec:	0905                	addi	s2,s2,1
     eee:	000c                	0xc
     ef0:	0301                	addi	t1,t1,0
     ef2:	0905                	addi	s2,s2,1
     ef4:	000c                	0xc
     ef6:	0301                	addi	t1,t1,0
     ef8:	0905                	addi	s2,s2,1
     efa:	000c                	0xc
     efc:	0301                	addi	t1,t1,0
     efe:	0905                	addi	s2,s2,1
     f00:	000c                	0xc
     f02:	0301                	addi	t1,t1,0
     f04:	0905                	addi	s2,s2,1
     f06:	000c                	0xc
     f08:	0301                	addi	t1,t1,0
     f0a:	0905                	addi	s2,s2,1
     f0c:	000c                	0xc
     f0e:	0301                	addi	t1,t1,0
     f10:	0905                	addi	s2,s2,1
     f12:	000c                	0xc
     f14:	0301                	addi	t1,t1,0
     f16:	0905                	addi	s2,s2,1
     f18:	000c                	0xc
     f1a:	0301                	addi	t1,t1,0
     f1c:	0905                	addi	s2,s2,1
     f1e:	000c                	0xc
     f20:	0301                	addi	t1,t1,0
     f22:	0905                	addi	s2,s2,1
     f24:	000c                	0xc
     f26:	0301                	addi	t1,t1,0
     f28:	0905                	addi	s2,s2,1
     f2a:	000c                	0xc
     f2c:	0301                	addi	t1,t1,0
     f2e:	0905                	addi	s2,s2,1
     f30:	000c                	0xc
     f32:	0301                	addi	t1,t1,0
     f34:	0905                	addi	s2,s2,1
     f36:	000c                	0xc
     f38:	0301                	addi	t1,t1,0
     f3a:	0905                	addi	s2,s2,1
     f3c:	000c                	0xc
     f3e:	0301                	addi	t1,t1,0
     f40:	0905                	addi	s2,s2,1
     f42:	000c                	0xc
     f44:	0301                	addi	t1,t1,0
     f46:	0905                	addi	s2,s2,1
     f48:	000c                	0xc
     f4a:	0301                	addi	t1,t1,0
     f4c:	0905                	addi	s2,s2,1
     f4e:	000c                	0xc
     f50:	0301                	addi	t1,t1,0
     f52:	0905                	addi	s2,s2,1
     f54:	000c                	0xc
     f56:	0301                	addi	t1,t1,0
     f58:	0905                	addi	s2,s2,1
     f5a:	000c                	0xc
     f5c:	0301                	addi	t1,t1,0
     f5e:	0905                	addi	s2,s2,1
     f60:	000c                	0xc
     f62:	0301                	addi	t1,t1,0
     f64:	0905                	addi	s2,s2,1
     f66:	000c                	0xc
     f68:	0301                	addi	t1,t1,0
     f6a:	0905                	addi	s2,s2,1
     f6c:	000c                	0xc
     f6e:	0301                	addi	t1,t1,0
     f70:	0905                	addi	s2,s2,1
     f72:	000c                	0xc
     f74:	0301                	addi	t1,t1,0
     f76:	0905                	addi	s2,s2,1
     f78:	000c                	0xc
     f7a:	0301                	addi	t1,t1,0
     f7c:	0905                	addi	s2,s2,1
     f7e:	000c                	0xc
     f80:	0301                	addi	t1,t1,0
     f82:	0905                	addi	s2,s2,1
     f84:	000c                	0xc
     f86:	0301                	addi	t1,t1,0
     f88:	0905                	addi	s2,s2,1
     f8a:	000c                	0xc
     f8c:	0301                	addi	t1,t1,0
     f8e:	0905                	addi	s2,s2,1
     f90:	000c                	0xc
     f92:	0301                	addi	t1,t1,0
     f94:	0905                	addi	s2,s2,1
     f96:	000c                	0xc
     f98:	0301                	addi	t1,t1,0
     f9a:	0905                	addi	s2,s2,1
     f9c:	000c                	0xc
     f9e:	0301                	addi	t1,t1,0
     fa0:	0905                	addi	s2,s2,1
     fa2:	0010                	0x10
     fa4:	0301                	addi	t1,t1,0
     fa6:	0905                	addi	s2,s2,1
     fa8:	0010                	0x10
     faa:	0301                	addi	t1,t1,0
     fac:	0905                	addi	s2,s2,1
     fae:	0010                	0x10
     fb0:	0301                	addi	t1,t1,0
     fb2:	0905                	addi	s2,s2,1
     fb4:	0010                	0x10
     fb6:	0301                	addi	t1,t1,0
     fb8:	0905                	addi	s2,s2,1
     fba:	0010                	0x10
     fbc:	0301                	addi	t1,t1,0
     fbe:	0905                	addi	s2,s2,1
     fc0:	0010                	0x10
     fc2:	0301                	addi	t1,t1,0
     fc4:	0905                	addi	s2,s2,1
     fc6:	0010                	0x10
     fc8:	0301                	addi	t1,t1,0
     fca:	0905                	addi	s2,s2,1
     fcc:	0010                	0x10
     fce:	0301                	addi	t1,t1,0
     fd0:	0905                	addi	s2,s2,1
     fd2:	0010                	0x10
     fd4:	0301                	addi	t1,t1,0
     fd6:	0905                	addi	s2,s2,1
     fd8:	0010                	0x10
     fda:	0301                	addi	t1,t1,0
     fdc:	0905                	addi	s2,s2,1
     fde:	0010                	0x10
     fe0:	0301                	addi	t1,t1,0
     fe2:	0905                	addi	s2,s2,1
     fe4:	0010                	0x10
     fe6:	0301                	addi	t1,t1,0
     fe8:	0905                	addi	s2,s2,1
     fea:	0010                	0x10
     fec:	0301                	addi	t1,t1,0
     fee:	0905                	addi	s2,s2,1
     ff0:	0010                	0x10
     ff2:	0301                	addi	t1,t1,0
     ff4:	0905                	addi	s2,s2,1
     ff6:	0010                	0x10
     ff8:	0301                	addi	t1,t1,0
     ffa:	0905                	addi	s2,s2,1
     ffc:	0010                	0x10
     ffe:	0301                	addi	t1,t1,0
    1000:	0905                	addi	s2,s2,1
    1002:	0010                	0x10
    1004:	0301                	addi	t1,t1,0
    1006:	0905                	addi	s2,s2,1
    1008:	0010                	0x10
    100a:	0301                	addi	t1,t1,0
    100c:	0905                	addi	s2,s2,1
    100e:	0010                	0x10
    1010:	0301                	addi	t1,t1,0
    1012:	0905                	addi	s2,s2,1
    1014:	0010                	0x10
    1016:	0301                	addi	t1,t1,0
    1018:	0905                	addi	s2,s2,1
    101a:	0010                	0x10
    101c:	0301                	addi	t1,t1,0
    101e:	0905                	addi	s2,s2,1
    1020:	0010                	0x10
    1022:	0301                	addi	t1,t1,0
    1024:	0905                	addi	s2,s2,1
    1026:	0010                	0x10
    1028:	0301                	addi	t1,t1,0
    102a:	0905                	addi	s2,s2,1
    102c:	0010                	0x10
    102e:	0301                	addi	t1,t1,0
    1030:	0905                	addi	s2,s2,1
    1032:	0010                	0x10
    1034:	0301                	addi	t1,t1,0
    1036:	0905                	addi	s2,s2,1
    1038:	0010                	0x10
    103a:	0301                	addi	t1,t1,0
    103c:	0905                	addi	s2,s2,1
    103e:	0010                	0x10
    1040:	0301                	addi	t1,t1,0
    1042:	0905                	addi	s2,s2,1
    1044:	0010                	0x10
    1046:	0301                	addi	t1,t1,0
    1048:	0905                	addi	s2,s2,1
    104a:	0010                	0x10
    104c:	0301                	addi	t1,t1,0
    104e:	0905                	addi	s2,s2,1
    1050:	0010                	0x10
    1052:	0301                	addi	t1,t1,0
    1054:	0905                	addi	s2,s2,1
    1056:	0010                	0x10
    1058:	0301                	addi	t1,t1,0
    105a:	0905                	addi	s2,s2,1
    105c:	0010                	0x10
    105e:	0301                	addi	t1,t1,0
    1060:	0905                	addi	s2,s2,1
    1062:	0010                	0x10
    1064:	0301                	addi	t1,t1,0
    1066:	0905                	addi	s2,s2,1
    1068:	0010                	0x10
    106a:	0301                	addi	t1,t1,0
    106c:	0905                	addi	s2,s2,1
    106e:	0010                	0x10
    1070:	0301                	addi	t1,t1,0
    1072:	0905                	addi	s2,s2,1
    1074:	0010                	0x10
    1076:	0301                	addi	t1,t1,0
    1078:	0905                	addi	s2,s2,1
    107a:	0010                	0x10
    107c:	0301                	addi	t1,t1,0
    107e:	0905                	addi	s2,s2,1
    1080:	0010                	0x10
    1082:	0301                	addi	t1,t1,0
    1084:	0905                	addi	s2,s2,1
    1086:	0010                	0x10
    1088:	0301                	addi	t1,t1,0
    108a:	0905                	addi	s2,s2,1
    108c:	0010                	0x10
    108e:	0301                	addi	t1,t1,0
    1090:	0905                	addi	s2,s2,1
    1092:	0010                	0x10
    1094:	0301                	addi	t1,t1,0
    1096:	0905                	addi	s2,s2,1
    1098:	0010                	0x10
    109a:	0301                	addi	t1,t1,0
    109c:	0905                	addi	s2,s2,1
    109e:	0010                	0x10
    10a0:	0301                	addi	t1,t1,0
    10a2:	0905                	addi	s2,s2,1
    10a4:	0010                	0x10
    10a6:	0301                	addi	t1,t1,0
    10a8:	0905                	addi	s2,s2,1
    10aa:	0010                	0x10
    10ac:	0301                	addi	t1,t1,0
    10ae:	0905                	addi	s2,s2,1
    10b0:	0014                	0x14
    10b2:	0901                	addi	s2,s2,0
    10b4:	0014                	0x14
    10b6:	0100                	addi	s0,sp,128
    10b8:	01              	Address 0x00000000000010b8 is out of bounds.


Disassembly of section .debug_info:

00000000 <.debug_info>:
   0:	0022                	c.slli	zero,0x8
   2:	0000                	unimp
   4:	0002                	c.slli64	zero
   6:	0000                	unimp
   8:	0000                	unimp
   a:	0104                	addi	s1,sp,128
   c:	0000                	unimp
   e:	0000                	unimp
  10:	0000                	unimp
  12:	9000                	0x9000
  14:	28f4                	fld	fa3,208(s1)
  16:	9000                	0x9000
  18:	0000                	unimp
  1a:	0000                	unimp
  1c:	0000000f          	fence	unknown,unknown
  20:	0076                	c.slli	zero,0x1d
  22:	0000                	unimp
  24:	8001                	c.srli64	s0

Disassembly of section .debug_abbrev:

00000000 <.debug_abbrev>:
   0:	1101                	addi	sp,sp,-32
   2:	1000                	addi	s0,sp,32
   4:	1106                	slli	sp,sp,0x21
   6:	1201                	addi	tp,tp,-32
   8:	0301                	addi	t1,t1,0
   a:	1b0e                	slli	s6,s6,0x23
   c:	250e                	fld	fa0,192(sp)
   e:	130e                	slli	t1,t1,0x23
  10:	0005                	c.nop	1
	...

Disassembly of section .debug_aranges:

00000000 <.debug_aranges>:
   0:	001c                	0x1c
   2:	0000                	unimp
   4:	0002                	c.slli64	zero
   6:	0000                	unimp
   8:	0000                	unimp
   a:	0004                	0x4
   c:	0000                	unimp
   e:	0000                	unimp
  10:	0000                	unimp
  12:	9000                	0x9000
  14:	28f4                	fld	fa3,208(s1)
	...

Disassembly of section .debug_str:

00000000 <.debug_str>:
   0:	2f637273          	csrrci	tp,0x2f6,6
   4:	69746c73          	csrrsi	s8,0x697,8
   8:	2d75                	jal	6c4 <offset+0x420>
   a:	3130                	fld	fa2,96(a0)
   c:	532e                	lw	t1,232(sp)
   e:	2f00                	fld	fs0,24(a4)
  10:	6f68                	flw	fa0,92(a4)
  12:	656d                	lui	a0,0x1b
  14:	6b61742f          	0x6b61742f
  18:	2f61                	jal	7b0 <offset+0x50c>
  1a:	4952                	lw	s2,20(sp)
  1c:	2f564353          	0x2f564353
  20:	6d6d                	lui	s10,0x1b
  22:	4952                	lw	s2,20(sp)
  24:	732f4353          	0x732f4353
  28:	6d69                	lui	s10,0x1a
  2a:	6c75                	lui	s8,0x1d
  2c:	7461                	lui	s0,0xffff8
  2e:	6f69                	lui	t5,0x1a
  30:	2f6e                	fld	ft10,216(sp)
  32:	6f6d                	lui	t5,0x1b
  34:	6564                	flw	fs1,76(a0)
  36:	736c                	flw	fa1,100(a4)
  38:	6d69                	lui	s10,0x1a
  3a:	7369722f          	0x7369722f
  3e:	612d7663          	bgeu	s10,s2,64a <offset+0x3a6>
  42:	6372                	flw	ft6,28(sp)
  44:	2d68                	fld	fa0,216(a0)
  46:	6574                	flw	fa3,76(a0)
  48:	722f7473          	csrrci	s0,0x722,30
  4c:	7369                	lui	t1,0xffffa
  4e:	612d7663          	bgeu	s10,s2,65a <offset+0x3b6>
  52:	6372                	flw	ft6,28(sp)
  54:	2d68                	fld	fa0,216(a0)
  56:	6574                	flw	fa3,76(a0)
  58:	722f7473          	csrrci	s0,0x722,30
  5c:	7369                	lui	t1,0xffffa
  5e:	742d7663          	bgeu	s10,sp,7aa <offset+0x506>
  62:	7365                	lui	t1,0xffff9
  64:	2d74                	fld	fa3,216(a0)
  66:	74697573          	csrrci	a0,0x746,18
  6a:	2f65                	jal	822 <offset+0x57e>
  6c:	7672                	flw	fa2,60(sp)
  6e:	5f693233          	0x5f693233
  72:	2f6d                	jal	82c <offset+0x588>
  74:	0049                	c.nop	18
  76:	20554e47          	fmsub.s	ft8,fa0,ft5,ft4,rmm
  7a:	5341                	li	t1,-16
  7c:	3220                	fld	fs0,96(a2)
  7e:	332e                	fld	ft6,232(sp)
  80:	0035                	c.nop	13
